
dist/Release/production/THIRDPARTY_LWIP_RAW_BASIC_HTTP_EXAMPLE1.X.production.elf:     file format elf32-littlearm

Sections:
Idx Name          Size      VMA       LMA       File off  Algn
  0 .text         0000a350  00400000  00400000  00010000  2**6
                  CONTENTS, ALLOC, LOAD, READONLY, CODE
  1 .ARM.exidx    00000008  0040a350  0040a350  0001a350  2**2
                  CONTENTS, ALLOC, LOAD, READONLY, DATA
  2 .relocate     000009e0  20400000  0040a358  00020000  2**3
                  CONTENTS, ALLOC, LOAD, DATA
  3 .bss          00004068  204009e0  0040ad38  000209e0  2**3
                  ALLOC
  4 .stack        00000400  20404a48  0040eda0  000209e0  2**0
                  ALLOC
  5 .heap         00000200  20404e48  0040f1a0  000209e0  2**0
                  ALLOC
  6 .ARM.attributes 0000002e  00000000  00000000  000209e0  2**0
                  CONTENTS, READONLY
  7 .comment      00000059  00000000  00000000  00020a0e  2**0
                  CONTENTS, READONLY
  8 .debug_frame  00000e04  00000000  00000000  00020a68  2**2
                  CONTENTS, READONLY, DEBUGGING

Disassembly of section .text:

00400000 <exception_table>:
  400000:	48 4e 40 20 f5 0e 40 00 f3 0e 40 00 f3 0e 40 00     HN@ ..@...@...@.
  400010:	f3 0e 40 00 f3 0e 40 00 f3 0e 40 00 00 00 00 00     ..@...@...@.....
	...
  40002c:	f3 0e 40 00 f3 0e 40 00 00 00 00 00 f3 0e 40 00     ..@...@.......@.
  40003c:	f3 0e 40 00 f3 0e 40 00 f3 0e 40 00 f3 0e 40 00     ..@...@...@...@.
  40004c:	f3 0e 40 00 f3 0e 40 00 f3 0e 40 00 f3 0e 40 00     ..@...@...@...@.
  40005c:	f3 0e 40 00 f3 0e 40 00 00 00 00 00 1d 0c 40 00     ..@...@.......@.
  40006c:	2d 0c 40 00 3d 0c 40 00 f3 0e 40 00 f3 0e 40 00     -.@.=.@...@...@.
  40007c:	f3 0e 40 00 4d 0c 40 00 5d 0c 40 00 f3 0e 40 00     ..@.M.@.].@...@.
  40008c:	f3 0e 40 00 f3 0e 40 00 f3 0e 40 00 f3 0e 40 00     ..@...@...@...@.
  40009c:	b5 60 40 00 f3 0e 40 00 f3 0e 40 00 f3 0e 40 00     .`@...@...@...@.
  4000ac:	f3 0e 40 00 f3 0e 40 00 f3 0e 40 00 f3 0e 40 00     ..@...@...@...@.
  4000bc:	f3 0e 40 00 f3 0e 40 00 f3 0e 40 00 f3 0e 40 00     ..@...@...@...@.
  4000cc:	f3 0e 40 00 f3 0e 40 00 f3 0e 40 00 f3 0e 40 00     ..@...@...@...@.
  4000dc:	b9 5c 40 00 f3 0e 40 00 f3 0e 40 00 f3 0e 40 00     .\@...@...@...@.
  4000ec:	f3 0e 40 00 f3 0e 40 00 f3 0e 40 00 f3 0e 40 00     ..@...@...@...@.
  4000fc:	f3 0e 40 00 f3 0e 40 00 f3 0e 40 00 f3 0e 40 00     ..@...@...@...@.
  40010c:	f3 0e 40 00 f3 0e 40 00 f3 0e 40 00 00 00 00 00     ..@...@...@.....
  40011c:	00 00 00 00 f3 0e 40 00 f3 0e 40 00 f3 0e 40 00     ......@...@...@.
  40012c:	f3 0e 40 00 f3 0e 40 00 f3 0e 40 00 f3 0e 40 00     ..@...@...@...@.
  40013c:	f3 0e 40 00 f3 0e 40 00 f3 0e 40 00 f3 0e 40 00     ..@...@...@...@.
  40014c:	f3 0e 40 00 f3 0e 40 00 f3 0e 40 00 f3 0e 40 00     ..@...@...@...@.
  40015c:	f3 0e 40 00 f3 0e 40 00 f3 0e 40 00                 ..@...@...@.

00400168 <__do_global_dtors_aux>:
  400168:	b510      	push	{r4, lr}
  40016a:	4c05      	ldr	r4, [pc, #20]	; (400180 <__do_global_dtors_aux+0x18>)
  40016c:	7823      	ldrb	r3, [r4, #0]
  40016e:	b933      	cbnz	r3, 40017e <__do_global_dtors_aux+0x16>
  400170:	4b04      	ldr	r3, [pc, #16]	; (400184 <__do_global_dtors_aux+0x1c>)
  400172:	b113      	cbz	r3, 40017a <__do_global_dtors_aux+0x12>
  400174:	4804      	ldr	r0, [pc, #16]	; (400188 <__do_global_dtors_aux+0x20>)
  400176:	f3af 8000 	nop.w
  40017a:	2301      	movs	r3, #1
  40017c:	7023      	strb	r3, [r4, #0]
  40017e:	bd10      	pop	{r4, pc}
  400180:	204009e0 	.word	0x204009e0
  400184:	00000000 	.word	0x00000000
  400188:	0040a358 	.word	0x0040a358

0040018c <frame_dummy>:
  40018c:	4b0c      	ldr	r3, [pc, #48]	; (4001c0 <frame_dummy+0x34>)
  40018e:	b143      	cbz	r3, 4001a2 <frame_dummy+0x16>
  400190:	480c      	ldr	r0, [pc, #48]	; (4001c4 <frame_dummy+0x38>)
  400192:	490d      	ldr	r1, [pc, #52]	; (4001c8 <frame_dummy+0x3c>)
  400194:	b510      	push	{r4, lr}
  400196:	f3af 8000 	nop.w
  40019a:	480c      	ldr	r0, [pc, #48]	; (4001cc <frame_dummy+0x40>)
  40019c:	6803      	ldr	r3, [r0, #0]
  40019e:	b923      	cbnz	r3, 4001aa <frame_dummy+0x1e>
  4001a0:	bd10      	pop	{r4, pc}
  4001a2:	480a      	ldr	r0, [pc, #40]	; (4001cc <frame_dummy+0x40>)
  4001a4:	6803      	ldr	r3, [r0, #0]
  4001a6:	b933      	cbnz	r3, 4001b6 <frame_dummy+0x2a>
  4001a8:	4770      	bx	lr
  4001aa:	4b09      	ldr	r3, [pc, #36]	; (4001d0 <frame_dummy+0x44>)
  4001ac:	2b00      	cmp	r3, #0
  4001ae:	d0f7      	beq.n	4001a0 <frame_dummy+0x14>
  4001b0:	e8bd 4010 	ldmia.w	sp!, {r4, lr}
  4001b4:	4718      	bx	r3
  4001b6:	4b06      	ldr	r3, [pc, #24]	; (4001d0 <frame_dummy+0x44>)
  4001b8:	2b00      	cmp	r3, #0
  4001ba:	d0f5      	beq.n	4001a8 <frame_dummy+0x1c>
  4001bc:	4718      	bx	r3
  4001be:	bf00      	nop
  4001c0:	00000000 	.word	0x00000000
  4001c4:	0040a358 	.word	0x0040a358
  4001c8:	204009e4 	.word	0x204009e4
  4001cc:	0040a358 	.word	0x0040a358
  4001d0:	00000000 	.word	0x00000000

004001d4 <echo_accept>:
  4001d4:	b538      	push	{r3, r4, r5, lr}
  4001d6:	460d      	mov	r5, r1
  4001d8:	4b11      	ldr	r3, [pc, #68]	; (400220 <echo_accept+0x4c>)
  4001da:	2101      	movs	r1, #1
  4001dc:	4628      	mov	r0, r5
  4001de:	4798      	blx	r3
  4001e0:	200c      	movs	r0, #12
  4001e2:	4b10      	ldr	r3, [pc, #64]	; (400224 <echo_accept+0x50>)
  4001e4:	4798      	blx	r3
  4001e6:	4601      	mov	r1, r0
  4001e8:	b1b8      	cbz	r0, 40021a <echo_accept+0x46>
  4001ea:	2400      	movs	r4, #0
  4001ec:	2301      	movs	r3, #1
  4001ee:	6045      	str	r5, [r0, #4]
  4001f0:	7003      	strb	r3, [r0, #0]
  4001f2:	7044      	strb	r4, [r0, #1]
  4001f4:	6084      	str	r4, [r0, #8]
  4001f6:	4628      	mov	r0, r5
  4001f8:	4b0b      	ldr	r3, [pc, #44]	; (400228 <echo_accept+0x54>)
  4001fa:	4798      	blx	r3
  4001fc:	4628      	mov	r0, r5
  4001fe:	490b      	ldr	r1, [pc, #44]	; (40022c <echo_accept+0x58>)
  400200:	4b0b      	ldr	r3, [pc, #44]	; (400230 <echo_accept+0x5c>)
  400202:	4798      	blx	r3
  400204:	4628      	mov	r0, r5
  400206:	490b      	ldr	r1, [pc, #44]	; (400234 <echo_accept+0x60>)
  400208:	4b0b      	ldr	r3, [pc, #44]	; (400238 <echo_accept+0x64>)
  40020a:	4798      	blx	r3
  40020c:	4628      	mov	r0, r5
  40020e:	4622      	mov	r2, r4
  400210:	490a      	ldr	r1, [pc, #40]	; (40023c <echo_accept+0x68>)
  400212:	4b0b      	ldr	r3, [pc, #44]	; (400240 <echo_accept+0x6c>)
  400214:	4798      	blx	r3
  400216:	4620      	mov	r0, r4
  400218:	bd38      	pop	{r3, r4, r5, pc}
  40021a:	f04f 30ff 	mov.w	r0, #4294967295
  40021e:	bd38      	pop	{r3, r4, r5, pc}
  400220:	00402a7d 	.word	0x00402a7d
  400224:	004020c1 	.word	0x004020c1
  400228:	00402ab5 	.word	0x00402ab5
  40022c:	00400361 	.word	0x00400361
  400230:	00402ab9 	.word	0x00402ab9
  400234:	00400245 	.word	0x00400245
  400238:	00402ac3 	.word	0x00402ac3
  40023c:	004003f9 	.word	0x004003f9
  400240:	00402acd 	.word	0x00402acd

00400244 <echo_error>:
  400244:	b108      	cbz	r0, 40024a <echo_error+0x6>
  400246:	4b01      	ldr	r3, [pc, #4]	; (40024c <echo_error+0x8>)
  400248:	4718      	bx	r3
  40024a:	4770      	bx	lr
  40024c:	00401f89 	.word	0x00401f89

00400250 <echo_init>:
  400250:	b510      	push	{r4, lr}
  400252:	4c0b      	ldr	r4, [pc, #44]	; (400280 <echo_init+0x30>)
  400254:	4b0b      	ldr	r3, [pc, #44]	; (400284 <echo_init+0x34>)
  400256:	4798      	blx	r3
  400258:	6020      	str	r0, [r4, #0]
  40025a:	b178      	cbz	r0, 40027c <echo_init+0x2c>
  40025c:	f640 32b8 	movw	r2, #3000	; 0xbb8
  400260:	4909      	ldr	r1, [pc, #36]	; (400288 <echo_init+0x38>)
  400262:	4b0a      	ldr	r3, [pc, #40]	; (40028c <echo_init+0x3c>)
  400264:	4798      	blx	r3
  400266:	b948      	cbnz	r0, 40027c <echo_init+0x2c>
  400268:	21ff      	movs	r1, #255	; 0xff
  40026a:	6820      	ldr	r0, [r4, #0]
  40026c:	4b08      	ldr	r3, [pc, #32]	; (400290 <echo_init+0x40>)
  40026e:	4798      	blx	r3
  400270:	4908      	ldr	r1, [pc, #32]	; (400294 <echo_init+0x44>)
  400272:	6020      	str	r0, [r4, #0]
  400274:	4b08      	ldr	r3, [pc, #32]	; (400298 <echo_init+0x48>)
  400276:	e8bd 4010 	ldmia.w	sp!, {r4, lr}
  40027a:	4718      	bx	r3
  40027c:	bd10      	pop	{r4, pc}
  40027e:	bf00      	nop
  400280:	204009fc 	.word	0x204009fc
  400284:	004032d1 	.word	0x004032d1
  400288:	0040954c 	.word	0x0040954c
  40028c:	00402839 	.word	0x00402839
  400290:	004028dd 	.word	0x004028dd
  400294:	004001d5 	.word	0x004001d5
  400298:	00402ac9 	.word	0x00402ac9

0040029c <echo_send>:
  40029c:	e92d 47f0 	stmdb	sp!, {r4, r5, r6, r7, r8, r9, sl, lr}
  4002a0:	4605      	mov	r5, r0
  4002a2:	460e      	mov	r6, r1
  4002a4:	4f13      	ldr	r7, [pc, #76]	; (4002f4 <echo_send+0x58>)
  4002a6:	f8df 8054 	ldr.w	r8, [pc, #84]	; 4002fc <echo_send+0x60>
  4002aa:	f8df 9054 	ldr.w	r9, [pc, #84]	; 400300 <echo_send+0x64>
  4002ae:	68b4      	ldr	r4, [r6, #8]
  4002b0:	b124      	cbz	r4, 4002bc <echo_send+0x20>
  4002b2:	8962      	ldrh	r2, [r4, #10]
  4002b4:	f8b5 3066 	ldrh.w	r3, [r5, #102]	; 0x66
  4002b8:	4293      	cmp	r3, r2
  4002ba:	d201      	bcs.n	4002c0 <echo_send+0x24>
  4002bc:	e8bd 87f0 	ldmia.w	sp!, {r4, r5, r6, r7, r8, r9, sl, pc}
  4002c0:	2301      	movs	r3, #1
  4002c2:	6861      	ldr	r1, [r4, #4]
  4002c4:	4628      	mov	r0, r5
  4002c6:	47b8      	blx	r7
  4002c8:	b970      	cbnz	r0, 4002e8 <echo_send+0x4c>
  4002ca:	6820      	ldr	r0, [r4, #0]
  4002cc:	f8b4 a00a 	ldrh.w	sl, [r4, #10]
  4002d0:	60b0      	str	r0, [r6, #8]
  4002d2:	b100      	cbz	r0, 4002d6 <echo_send+0x3a>
  4002d4:	47c0      	blx	r8
  4002d6:	4620      	mov	r0, r4
  4002d8:	47c8      	blx	r9
  4002da:	2800      	cmp	r0, #0
  4002dc:	d0fb      	beq.n	4002d6 <echo_send+0x3a>
  4002de:	4651      	mov	r1, sl
  4002e0:	4628      	mov	r0, r5
  4002e2:	4b05      	ldr	r3, [pc, #20]	; (4002f8 <echo_send+0x5c>)
  4002e4:	4798      	blx	r3
  4002e6:	e7e2      	b.n	4002ae <echo_send+0x12>
  4002e8:	3001      	adds	r0, #1
  4002ea:	d1e7      	bne.n	4002bc <echo_send+0x20>
  4002ec:	60b4      	str	r4, [r6, #8]
  4002ee:	e8bd 87f0 	ldmia.w	sp!, {r4, r5, r6, r7, r8, r9, sl, pc}
  4002f2:	bf00      	nop
  4002f4:	004049a5 	.word	0x004049a5
  4002f8:	004029e9 	.word	0x004029e9
  4002fc:	00402589 	.word	0x00402589
  400300:	004023b9 	.word	0x004023b9

00400304 <echo_close>:
  400304:	b570      	push	{r4, r5, r6, lr}
  400306:	4604      	mov	r4, r0
  400308:	460d      	mov	r5, r1
  40030a:	4b0e      	ldr	r3, [pc, #56]	; (400344 <echo_close+0x40>)
  40030c:	2100      	movs	r1, #0
  40030e:	4798      	blx	r3
  400310:	2100      	movs	r1, #0
  400312:	4620      	mov	r0, r4
  400314:	4b0c      	ldr	r3, [pc, #48]	; (400348 <echo_close+0x44>)
  400316:	4798      	blx	r3
  400318:	2100      	movs	r1, #0
  40031a:	4620      	mov	r0, r4
  40031c:	4b0b      	ldr	r3, [pc, #44]	; (40034c <echo_close+0x48>)
  40031e:	4798      	blx	r3
  400320:	2100      	movs	r1, #0
  400322:	4620      	mov	r0, r4
  400324:	4b0a      	ldr	r3, [pc, #40]	; (400350 <echo_close+0x4c>)
  400326:	4798      	blx	r3
  400328:	2200      	movs	r2, #0
  40032a:	4620      	mov	r0, r4
  40032c:	4b09      	ldr	r3, [pc, #36]	; (400354 <echo_close+0x50>)
  40032e:	4611      	mov	r1, r2
  400330:	4798      	blx	r3
  400332:	b115      	cbz	r5, 40033a <echo_close+0x36>
  400334:	4628      	mov	r0, r5
  400336:	4b08      	ldr	r3, [pc, #32]	; (400358 <echo_close+0x54>)
  400338:	4798      	blx	r3
  40033a:	4620      	mov	r0, r4
  40033c:	4b07      	ldr	r3, [pc, #28]	; (40035c <echo_close+0x58>)
  40033e:	e8bd 4070 	ldmia.w	sp!, {r4, r5, r6, lr}
  400342:	4718      	bx	r3
  400344:	00402ab5 	.word	0x00402ab5
  400348:	00402abf 	.word	0x00402abf
  40034c:	00402ab9 	.word	0x00402ab9
  400350:	00402ac3 	.word	0x00402ac3
  400354:	00402acd 	.word	0x00402acd
  400358:	00401f89 	.word	0x00401f89
  40035c:	00403319 	.word	0x00403319

00400360 <echo_recv>:
  400360:	b5f8      	push	{r3, r4, r5, r6, r7, lr}
  400362:	4604      	mov	r4, r0
  400364:	460f      	mov	r7, r1
  400366:	461d      	mov	r5, r3
  400368:	4616      	mov	r6, r2
  40036a:	b99a      	cbnz	r2, 400394 <echo_recv+0x34>
  40036c:	2303      	movs	r3, #3
  40036e:	6885      	ldr	r5, [r0, #8]
  400370:	7003      	strb	r3, [r0, #0]
  400372:	b925      	cbnz	r5, 40037e <echo_recv+0x1e>
  400374:	4601      	mov	r1, r0
  400376:	4b19      	ldr	r3, [pc, #100]	; (4003dc <echo_recv+0x7c>)
  400378:	4638      	mov	r0, r7
  40037a:	4798      	blx	r3
  40037c:	e008      	b.n	400390 <echo_recv+0x30>
  40037e:	4918      	ldr	r1, [pc, #96]	; (4003e0 <echo_recv+0x80>)
  400380:	4638      	mov	r0, r7
  400382:	4b18      	ldr	r3, [pc, #96]	; (4003e4 <echo_recv+0x84>)
  400384:	4635      	mov	r5, r6
  400386:	4798      	blx	r3
  400388:	4621      	mov	r1, r4
  40038a:	4638      	mov	r0, r7
  40038c:	4b16      	ldr	r3, [pc, #88]	; (4003e8 <echo_recv+0x88>)
  40038e:	4798      	blx	r3
  400390:	4628      	mov	r0, r5
  400392:	bdf8      	pop	{r3, r4, r5, r6, r7, pc}
  400394:	b12b      	cbz	r3, 4003a2 <echo_recv+0x42>
  400396:	2300      	movs	r3, #0
  400398:	6083      	str	r3, [r0, #8]
  40039a:	4630      	mov	r0, r6
  40039c:	4b13      	ldr	r3, [pc, #76]	; (4003ec <echo_recv+0x8c>)
  40039e:	4798      	blx	r3
  4003a0:	e7f6      	b.n	400390 <echo_recv+0x30>
  4003a2:	7803      	ldrb	r3, [r0, #0]
  4003a4:	2b01      	cmp	r3, #1
  4003a6:	d10a      	bne.n	4003be <echo_recv+0x5e>
  4003a8:	2302      	movs	r3, #2
  4003aa:	7003      	strb	r3, [r0, #0]
  4003ac:	490c      	ldr	r1, [pc, #48]	; (4003e0 <echo_recv+0x80>)
  4003ae:	4638      	mov	r0, r7
  4003b0:	4b0c      	ldr	r3, [pc, #48]	; (4003e4 <echo_recv+0x84>)
  4003b2:	60a6      	str	r6, [r4, #8]
  4003b4:	4798      	blx	r3
  4003b6:	4621      	mov	r1, r4
  4003b8:	4638      	mov	r0, r7
  4003ba:	4b0b      	ldr	r3, [pc, #44]	; (4003e8 <echo_recv+0x88>)
  4003bc:	e7dd      	b.n	40037a <echo_recv+0x1a>
  4003be:	2b02      	cmp	r3, #2
  4003c0:	d106      	bne.n	4003d0 <echo_recv+0x70>
  4003c2:	6880      	ldr	r0, [r0, #8]
  4003c4:	2800      	cmp	r0, #0
  4003c6:	d0f1      	beq.n	4003ac <echo_recv+0x4c>
  4003c8:	4611      	mov	r1, r2
  4003ca:	4b09      	ldr	r3, [pc, #36]	; (4003f0 <echo_recv+0x90>)
  4003cc:	4798      	blx	r3
  4003ce:	e7df      	b.n	400390 <echo_recv+0x30>
  4003d0:	8911      	ldrh	r1, [r2, #8]
  4003d2:	4638      	mov	r0, r7
  4003d4:	4b07      	ldr	r3, [pc, #28]	; (4003f4 <echo_recv+0x94>)
  4003d6:	4798      	blx	r3
  4003d8:	60a5      	str	r5, [r4, #8]
  4003da:	e7de      	b.n	40039a <echo_recv+0x3a>
  4003dc:	00400305 	.word	0x00400305
  4003e0:	00400449 	.word	0x00400449
  4003e4:	00402abf 	.word	0x00402abf
  4003e8:	0040029d 	.word	0x0040029d
  4003ec:	004023b9 	.word	0x004023b9
  4003f0:	004025d1 	.word	0x004025d1
  4003f4:	004029e9 	.word	0x004029e9

004003f8 <echo_poll>:
  4003f8:	b570      	push	{r4, r5, r6, lr}
  4003fa:	460e      	mov	r6, r1
  4003fc:	4605      	mov	r5, r0
  4003fe:	b190      	cbz	r0, 400426 <echo_poll+0x2e>
  400400:	6884      	ldr	r4, [r0, #8]
  400402:	b14c      	cbz	r4, 400418 <echo_poll+0x20>
  400404:	490b      	ldr	r1, [pc, #44]	; (400434 <echo_poll+0x3c>)
  400406:	4630      	mov	r0, r6
  400408:	4b0b      	ldr	r3, [pc, #44]	; (400438 <echo_poll+0x40>)
  40040a:	4798      	blx	r3
  40040c:	4629      	mov	r1, r5
  40040e:	4630      	mov	r0, r6
  400410:	4b0a      	ldr	r3, [pc, #40]	; (40043c <echo_poll+0x44>)
  400412:	4798      	blx	r3
  400414:	2000      	movs	r0, #0
  400416:	bd70      	pop	{r4, r5, r6, pc}
  400418:	7803      	ldrb	r3, [r0, #0]
  40041a:	2b03      	cmp	r3, #3
  40041c:	d1fa      	bne.n	400414 <echo_poll+0x1c>
  40041e:	4601      	mov	r1, r0
  400420:	4b07      	ldr	r3, [pc, #28]	; (400440 <echo_poll+0x48>)
  400422:	4630      	mov	r0, r6
  400424:	e7f5      	b.n	400412 <echo_poll+0x1a>
  400426:	4608      	mov	r0, r1
  400428:	4b06      	ldr	r3, [pc, #24]	; (400444 <echo_poll+0x4c>)
  40042a:	4798      	blx	r3
  40042c:	f06f 0009 	mvn.w	r0, #9
  400430:	bd70      	pop	{r4, r5, r6, pc}
  400432:	bf00      	nop
  400434:	00400449 	.word	0x00400449
  400438:	00402abf 	.word	0x00402abf
  40043c:	0040029d 	.word	0x0040029d
  400440:	00400305 	.word	0x00400305
  400444:	00403161 	.word	0x00403161

00400448 <echo_sent>:
  400448:	b538      	push	{r3, r4, r5, lr}
  40044a:	2300      	movs	r3, #0
  40044c:	4604      	mov	r4, r0
  40044e:	460d      	mov	r5, r1
  400450:	7043      	strb	r3, [r0, #1]
  400452:	6883      	ldr	r3, [r0, #8]
  400454:	b14b      	cbz	r3, 40046a <echo_sent+0x22>
  400456:	4908      	ldr	r1, [pc, #32]	; (400478 <echo_sent+0x30>)
  400458:	4628      	mov	r0, r5
  40045a:	4b08      	ldr	r3, [pc, #32]	; (40047c <echo_sent+0x34>)
  40045c:	4798      	blx	r3
  40045e:	4621      	mov	r1, r4
  400460:	4628      	mov	r0, r5
  400462:	4b07      	ldr	r3, [pc, #28]	; (400480 <echo_sent+0x38>)
  400464:	4798      	blx	r3
  400466:	2000      	movs	r0, #0
  400468:	bd38      	pop	{r3, r4, r5, pc}
  40046a:	7803      	ldrb	r3, [r0, #0]
  40046c:	2b03      	cmp	r3, #3
  40046e:	d1fa      	bne.n	400466 <echo_sent+0x1e>
  400470:	4601      	mov	r1, r0
  400472:	4b04      	ldr	r3, [pc, #16]	; (400484 <echo_sent+0x3c>)
  400474:	4628      	mov	r0, r5
  400476:	e7f5      	b.n	400464 <echo_sent+0x1c>
  400478:	00400449 	.word	0x00400449
  40047c:	00402abf 	.word	0x00402abf
  400480:	0040029d 	.word	0x0040029d
  400484:	00400305 	.word	0x00400305

00400488 <sysclk_init>:
  400488:	b570      	push	{r4, r5, r6, lr}
  40048a:	4810      	ldr	r0, [pc, #64]	; (4004cc <sysclk_init+0x44>)
  40048c:	4c10      	ldr	r4, [pc, #64]	; (4004d0 <sysclk_init+0x48>)
  40048e:	4d11      	ldr	r5, [pc, #68]	; (4004d4 <sysclk_init+0x4c>)
  400490:	47a0      	blx	r4
  400492:	213e      	movs	r1, #62	; 0x3e
  400494:	2000      	movs	r0, #0
  400496:	4b10      	ldr	r3, [pc, #64]	; (4004d8 <sysclk_init+0x50>)
  400498:	4798      	blx	r3
  40049a:	47a8      	blx	r5
  40049c:	2800      	cmp	r0, #0
  40049e:	d0fc      	beq.n	40049a <sysclk_init+0x12>
  4004a0:	4b0e      	ldr	r3, [pc, #56]	; (4004dc <sysclk_init+0x54>)
  4004a2:	4798      	blx	r3
  4004a4:	4d0e      	ldr	r5, [pc, #56]	; (4004e0 <sysclk_init+0x58>)
  4004a6:	4a0f      	ldr	r2, [pc, #60]	; (4004e4 <sysclk_init+0x5c>)
  4004a8:	4b0f      	ldr	r3, [pc, #60]	; (4004e8 <sysclk_init+0x60>)
  4004aa:	629a      	str	r2, [r3, #40]	; 0x28
  4004ac:	47a8      	blx	r5
  4004ae:	2800      	cmp	r0, #0
  4004b0:	d0fc      	beq.n	4004ac <sysclk_init+0x24>
  4004b2:	2002      	movs	r0, #2
  4004b4:	4b0d      	ldr	r3, [pc, #52]	; (4004ec <sysclk_init+0x64>)
  4004b6:	4798      	blx	r3
  4004b8:	4b0d      	ldr	r3, [pc, #52]	; (4004f0 <sysclk_init+0x68>)
  4004ba:	2010      	movs	r0, #16
  4004bc:	4798      	blx	r3
  4004be:	4b0d      	ldr	r3, [pc, #52]	; (4004f4 <sysclk_init+0x6c>)
  4004c0:	4798      	blx	r3
  4004c2:	4623      	mov	r3, r4
  4004c4:	480c      	ldr	r0, [pc, #48]	; (4004f8 <sysclk_init+0x70>)
  4004c6:	e8bd 4070 	ldmia.w	sp!, {r4, r5, r6, lr}
  4004ca:	4718      	bx	r3
  4004cc:	08f0d180 	.word	0x08f0d180
  4004d0:	00401061 	.word	0x00401061
  4004d4:	00400d25 	.word	0x00400d25
  4004d8:	00400cdd 	.word	0x00400cdd
  4004dc:	00400d35 	.word	0x00400d35
  4004e0:	00400d45 	.word	0x00400d45
  4004e4:	20183f01 	.word	0x20183f01
  4004e8:	400e0600 	.word	0x400e0600
  4004ec:	00400c6d 	.word	0x00400c6d
  4004f0:	00400c99 	.word	0x00400c99
  4004f4:	00400f99 	.word	0x00400f99
  4004f8:	047868c0 	.word	0x047868c0

004004fc <_read>:
  4004fc:	e92d 41f0 	stmdb	sp!, {r4, r5, r6, r7, r8, lr}
  400500:	460e      	mov	r6, r1
  400502:	4614      	mov	r4, r2
  400504:	b988      	cbnz	r0, 40052a <_read+0x2e>
  400506:	4615      	mov	r5, r2
  400508:	4f0a      	ldr	r7, [pc, #40]	; (400534 <_read+0x38>)
  40050a:	f8df 802c 	ldr.w	r8, [pc, #44]	; 400538 <_read+0x3c>
  40050e:	1b61      	subs	r1, r4, r5
  400510:	2d00      	cmp	r5, #0
  400512:	4431      	add	r1, r6
  400514:	dc03      	bgt.n	40051e <_read+0x22>
  400516:	ea24 70e4 	bic.w	r0, r4, r4, asr #31
  40051a:	e8bd 81f0 	ldmia.w	sp!, {r4, r5, r6, r7, r8, pc}
  40051e:	6838      	ldr	r0, [r7, #0]
  400520:	3d01      	subs	r5, #1
  400522:	f8d8 3000 	ldr.w	r3, [r8]
  400526:	4798      	blx	r3
  400528:	e7f1      	b.n	40050e <_read+0x12>
  40052a:	f04f 30ff 	mov.w	r0, #4294967295
  40052e:	e8bd 81f0 	ldmia.w	sp!, {r4, r5, r6, r7, r8, pc}
  400532:	bf00      	nop
  400534:	20403994 	.word	0x20403994
  400538:	2040398c 	.word	0x2040398c

0040053c <_write>:
  40053c:	3801      	subs	r0, #1
  40053e:	2802      	cmp	r0, #2
  400540:	e92d 41f0 	stmdb	sp!, {r4, r5, r6, r7, r8, lr}
  400544:	460e      	mov	r6, r1
  400546:	d812      	bhi.n	40056e <_write+0x32>
  400548:	188d      	adds	r5, r1, r2
  40054a:	460c      	mov	r4, r1
  40054c:	4f0a      	ldr	r7, [pc, #40]	; (400578 <_write+0x3c>)
  40054e:	f8df 802c 	ldr.w	r8, [pc, #44]	; 40057c <_write+0x40>
  400552:	42ac      	cmp	r4, r5
  400554:	eba4 0006 	sub.w	r0, r4, r6
  400558:	d101      	bne.n	40055e <_write+0x22>
  40055a:	e8bd 81f0 	ldmia.w	sp!, {r4, r5, r6, r7, r8, pc}
  40055e:	6838      	ldr	r0, [r7, #0]
  400560:	f814 1b01 	ldrb.w	r1, [r4], #1
  400564:	f8d8 3000 	ldr.w	r3, [r8]
  400568:	4798      	blx	r3
  40056a:	2800      	cmp	r0, #0
  40056c:	daf1      	bge.n	400552 <_write+0x16>
  40056e:	f04f 30ff 	mov.w	r0, #4294967295
  400572:	e8bd 81f0 	ldmia.w	sp!, {r4, r5, r6, r7, r8, pc}
  400576:	bf00      	nop
  400578:	20403994 	.word	0x20403994
  40057c:	20403990 	.word	0x20403990

00400580 <ioport_set_pin_mode>:
  400580:	f000 021f 	and.w	r2, r0, #31
  400584:	0940      	lsrs	r0, r0, #5
  400586:	2301      	movs	r3, #1
  400588:	f500 1000 	add.w	r0, r0, #2097152	; 0x200000
  40058c:	4093      	lsls	r3, r2
  40058e:	070a      	lsls	r2, r1, #28
  400590:	f200 7007 	addw	r0, r0, #1799	; 0x707
  400594:	ea4f 2040 	mov.w	r0, r0, lsl #9
  400598:	d51e      	bpl.n	4005d8 <ioport_set_pin_mode+0x58>
  40059a:	6643      	str	r3, [r0, #100]	; 0x64
  40059c:	06ca      	lsls	r2, r1, #27
  40059e:	d51d      	bpl.n	4005dc <ioport_set_pin_mode+0x5c>
  4005a0:	f8c0 3094 	str.w	r3, [r0, #148]	; 0x94
  4005a4:	068a      	lsls	r2, r1, #26
  4005a6:	d51c      	bpl.n	4005e2 <ioport_set_pin_mode+0x62>
  4005a8:	6503      	str	r3, [r0, #80]	; 0x50
  4005aa:	f011 0fc0 	tst.w	r1, #192	; 0xc0
  4005ae:	d01a      	beq.n	4005e6 <ioport_set_pin_mode+0x66>
  4005b0:	6203      	str	r3, [r0, #32]
  4005b2:	060a      	lsls	r2, r1, #24
  4005b4:	d519      	bpl.n	4005ea <ioport_set_pin_mode+0x6a>
  4005b6:	f8c0 3084 	str.w	r3, [r0, #132]	; 0x84
  4005ba:	6f02      	ldr	r2, [r0, #112]	; 0x70
  4005bc:	f011 0f01 	tst.w	r1, #1
  4005c0:	bf14      	ite	ne
  4005c2:	431a      	orrne	r2, r3
  4005c4:	439a      	biceq	r2, r3
  4005c6:	0789      	lsls	r1, r1, #30
  4005c8:	6702      	str	r2, [r0, #112]	; 0x70
  4005ca:	6f42      	ldr	r2, [r0, #116]	; 0x74
  4005cc:	bf4c      	ite	mi
  4005ce:	4313      	orrmi	r3, r2
  4005d0:	ea22 0303 	bicpl.w	r3, r2, r3
  4005d4:	6743      	str	r3, [r0, #116]	; 0x74
  4005d6:	4770      	bx	lr
  4005d8:	6603      	str	r3, [r0, #96]	; 0x60
  4005da:	e7df      	b.n	40059c <ioport_set_pin_mode+0x1c>
  4005dc:	f8c0 3090 	str.w	r3, [r0, #144]	; 0x90
  4005e0:	e7e0      	b.n	4005a4 <ioport_set_pin_mode+0x24>
  4005e2:	6543      	str	r3, [r0, #84]	; 0x54
  4005e4:	e7e1      	b.n	4005aa <ioport_set_pin_mode+0x2a>
  4005e6:	6243      	str	r3, [r0, #36]	; 0x24
  4005e8:	e7e3      	b.n	4005b2 <ioport_set_pin_mode+0x32>
  4005ea:	f8c0 3080 	str.w	r3, [r0, #128]	; 0x80
  4005ee:	e7e4      	b.n	4005ba <ioport_set_pin_mode+0x3a>

004005f0 <board_init>:
  4005f0:	f44f 4200 	mov.w	r2, #32768	; 0x8000
  4005f4:	4b2c      	ldr	r3, [pc, #176]	; (4006a8 <board_init+0xb8>)
  4005f6:	b570      	push	{r4, r5, r6, lr}
  4005f8:	f5a3 6345 	sub.w	r3, r3, #3152	; 0xc50
  4005fc:	f8c3 2c54 	str.w	r2, [r3, #3156]	; 0xc54
  400600:	4a2a      	ldr	r2, [pc, #168]	; (4006ac <board_init+0xbc>)
  400602:	605a      	str	r2, [r3, #4]
  400604:	f5a2 7280 	sub.w	r2, r2, #256	; 0x100
  400608:	605a      	str	r2, [r3, #4]
  40060a:	f3bf 8f4f 	dsb	sy
  40060e:	f3bf 8f6f 	isb	sy
  400612:	4b27      	ldr	r3, [pc, #156]	; (4006b0 <board_init+0xc0>)
  400614:	f8d3 2290 	ldr.w	r2, [r3, #656]	; 0x290
  400618:	f022 0201 	bic.w	r2, r2, #1
  40061c:	f8c3 2290 	str.w	r2, [r3, #656]	; 0x290
  400620:	f8d3 2294 	ldr.w	r2, [r3, #660]	; 0x294
  400624:	f022 0201 	bic.w	r2, r2, #1
  400628:	f8c3 2294 	str.w	r2, [r3, #660]	; 0x294
  40062c:	f3bf 8f4f 	dsb	sy
  400630:	f3bf 8f6f 	isb	sy
  400634:	4c1f      	ldr	r4, [pc, #124]	; (4006b4 <board_init+0xc4>)
  400636:	200a      	movs	r0, #10
  400638:	47a0      	blx	r4
  40063a:	200b      	movs	r0, #11
  40063c:	47a0      	blx	r4
  40063e:	200c      	movs	r0, #12
  400640:	47a0      	blx	r4
  400642:	2010      	movs	r0, #16
  400644:	47a0      	blx	r4
  400646:	2011      	movs	r0, #17
  400648:	47a0      	blx	r4
  40064a:	4c1b      	ldr	r4, [pc, #108]	; (4006b8 <board_init+0xc8>)
  40064c:	f44f 0300 	mov.w	r3, #8388608	; 0x800000
  400650:	f44f 7500 	mov.w	r5, #512	; 0x200
  400654:	4e19      	ldr	r6, [pc, #100]	; (4006bc <board_init+0xcc>)
  400656:	2188      	movs	r1, #136	; 0x88
  400658:	6123      	str	r3, [r4, #16]
  40065a:	2009      	movs	r0, #9
  40065c:	f8c4 30a0 	str.w	r3, [r4, #160]	; 0xa0
  400660:	6323      	str	r3, [r4, #48]	; 0x30
  400662:	4b17      	ldr	r3, [pc, #92]	; (4006c0 <board_init+0xd0>)
  400664:	611d      	str	r5, [r3, #16]
  400666:	f8c3 50a0 	str.w	r5, [r3, #160]	; 0xa0
  40066a:	631d      	str	r5, [r3, #48]	; 0x30
  40066c:	6165      	str	r5, [r4, #20]
  40066e:	f8c4 50a0 	str.w	r5, [r4, #160]	; 0xa0
  400672:	47b0      	blx	r6
  400674:	f8c4 50c0 	str.w	r5, [r4, #192]	; 0xc0
  400678:	2100      	movs	r1, #0
  40067a:	f8c4 50d4 	str.w	r5, [r4, #212]	; 0xd4
  40067e:	2015      	movs	r0, #21
  400680:	f8c4 50b0 	str.w	r5, [r4, #176]	; 0xb0
  400684:	47b0      	blx	r6
  400686:	4a0f      	ldr	r2, [pc, #60]	; (4006c4 <board_init+0xd4>)
  400688:	f44f 1300 	mov.w	r3, #2097152	; 0x200000
  40068c:	2103      	movs	r1, #3
  40068e:	2024      	movs	r0, #36	; 0x24
  400690:	6063      	str	r3, [r4, #4]
  400692:	f8d2 3114 	ldr.w	r3, [r2, #276]	; 0x114
  400696:	f043 0310 	orr.w	r3, r3, #16
  40069a:	f8c2 3114 	str.w	r3, [r2, #276]	; 0x114
  40069e:	47b0      	blx	r6
  4006a0:	2210      	movs	r2, #16
  4006a2:	4b09      	ldr	r3, [pc, #36]	; (4006c8 <board_init+0xd8>)
  4006a4:	605a      	str	r2, [r3, #4]
  4006a6:	bd70      	pop	{r4, r5, r6, pc}
  4006a8:	400e1850 	.word	0x400e1850
  4006ac:	5a00080c 	.word	0x5a00080c
  4006b0:	e000ed00 	.word	0xe000ed00
  4006b4:	00400d55 	.word	0x00400d55
  4006b8:	400e0e00 	.word	0x400e0e00
  4006bc:	00400581 	.word	0x00400581
  4006c0:	400e1200 	.word	0x400e1200
  4006c4:	40088000 	.word	0x40088000
  4006c8:	400e1000 	.word	0x400e1000

004006cc <ethernet_phy_set_link>:
  4006cc:	b5f7      	push	{r0, r1, r2, r4, r5, r6, r7, lr}
  4006ce:	6803      	ldr	r3, [r0, #0]
  4006d0:	4617      	mov	r7, r2
  4006d2:	4d28      	ldr	r5, [pc, #160]	; (400774 <ethernet_phy_set_link+0xa8>)
  4006d4:	2201      	movs	r2, #1
  4006d6:	f043 0310 	orr.w	r3, r3, #16
  4006da:	4604      	mov	r4, r0
  4006dc:	460e      	mov	r6, r1
  4006de:	6003      	str	r3, [r0, #0]
  4006e0:	466b      	mov	r3, sp
  4006e2:	47a8      	blx	r5
  4006e4:	b120      	cbz	r0, 4006f0 <ethernet_phy_set_link+0x24>
  4006e6:	6823      	ldr	r3, [r4, #0]
  4006e8:	f023 0310 	bic.w	r3, r3, #16
  4006ec:	6023      	str	r3, [r4, #0]
  4006ee:	e007      	b.n	400700 <ethernet_phy_set_link+0x34>
  4006f0:	9b00      	ldr	r3, [sp, #0]
  4006f2:	075b      	lsls	r3, r3, #29
  4006f4:	d406      	bmi.n	400704 <ethernet_phy_set_link+0x38>
  4006f6:	6823      	ldr	r3, [r4, #0]
  4006f8:	20ff      	movs	r0, #255	; 0xff
  4006fa:	f023 0310 	bic.w	r3, r3, #16
  4006fe:	6023      	str	r3, [r4, #0]
  400700:	b003      	add	sp, #12
  400702:	bdf0      	pop	{r4, r5, r6, r7, pc}
  400704:	2f00      	cmp	r7, #0
  400706:	d0ee      	beq.n	4006e6 <ethernet_phy_set_link+0x1a>
  400708:	ab01      	add	r3, sp, #4
  40070a:	221e      	movs	r2, #30
  40070c:	4631      	mov	r1, r6
  40070e:	4620      	mov	r0, r4
  400710:	47a8      	blx	r5
  400712:	2800      	cmp	r0, #0
  400714:	d1e7      	bne.n	4006e6 <ethernet_phy_set_link+0x1a>
  400716:	9900      	ldr	r1, [sp, #0]
  400718:	04cf      	lsls	r7, r1, #19
  40071a:	d51f      	bpl.n	40075c <ethernet_phy_set_link+0x90>
  40071c:	9b01      	ldr	r3, [sp, #4]
  40071e:	f013 0f05 	tst.w	r3, #5
  400722:	bf0c      	ite	eq
  400724:	2301      	moveq	r3, #1
  400726:	2300      	movne	r3, #0
  400728:	048e      	lsls	r6, r1, #18
  40072a:	d519      	bpl.n	400760 <ethernet_phy_set_link+0x94>
  40072c:	9a01      	ldr	r2, [sp, #4]
  40072e:	f002 0202 	and.w	r2, r2, #2
  400732:	2a00      	cmp	r2, #0
  400734:	bf0e      	itee	eq
  400736:	2201      	moveq	r2, #1
  400738:	2200      	movne	r2, #0
  40073a:	2301      	movne	r3, #1
  40073c:	050d      	lsls	r5, r1, #20
  40073e:	d502      	bpl.n	400746 <ethernet_phy_set_link+0x7a>
  400740:	9901      	ldr	r1, [sp, #4]
  400742:	07c9      	lsls	r1, r1, #31
  400744:	d40e      	bmi.n	400764 <ethernet_phy_set_link+0x98>
  400746:	b173      	cbz	r3, 400766 <ethernet_phy_set_link+0x9a>
  400748:	6863      	ldr	r3, [r4, #4]
  40074a:	f043 0301 	orr.w	r3, r3, #1
  40074e:	6063      	str	r3, [r4, #4]
  400750:	6863      	ldr	r3, [r4, #4]
  400752:	b162      	cbz	r2, 40076e <ethernet_phy_set_link+0xa2>
  400754:	f043 0302 	orr.w	r3, r3, #2
  400758:	6063      	str	r3, [r4, #4]
  40075a:	e7c4      	b.n	4006e6 <ethernet_phy_set_link+0x1a>
  40075c:	2301      	movs	r3, #1
  40075e:	e7e3      	b.n	400728 <ethernet_phy_set_link+0x5c>
  400760:	2201      	movs	r2, #1
  400762:	e7eb      	b.n	40073c <ethernet_phy_set_link+0x70>
  400764:	2200      	movs	r2, #0
  400766:	6863      	ldr	r3, [r4, #4]
  400768:	f023 0301 	bic.w	r3, r3, #1
  40076c:	e7ef      	b.n	40074e <ethernet_phy_set_link+0x82>
  40076e:	f023 0302 	bic.w	r3, r3, #2
  400772:	e7f1      	b.n	400758 <ethernet_phy_set_link+0x8c>
  400774:	00400a55 	.word	0x00400a55

00400778 <ethernet_phy_auto_negotiate>:
  400778:	e92d 41f3 	stmdb	sp!, {r0, r1, r4, r5, r6, r7, r8, lr}
  40077c:	6803      	ldr	r3, [r0, #0]
  40077e:	2200      	movs	r2, #0
  400780:	f8df 811c 	ldr.w	r8, [pc, #284]	; 4008a0 <ethernet_phy_auto_negotiate+0x128>
  400784:	4604      	mov	r4, r0
  400786:	f043 0310 	orr.w	r3, r3, #16
  40078a:	460d      	mov	r5, r1
  40078c:	4646      	mov	r6, r8
  40078e:	6003      	str	r3, [r0, #0]
  400790:	466b      	mov	r3, sp
  400792:	47c0      	blx	r8
  400794:	b120      	cbz	r0, 4007a0 <ethernet_phy_auto_negotiate+0x28>
  400796:	6823      	ldr	r3, [r4, #0]
  400798:	f023 0310 	bic.w	r3, r3, #16
  40079c:	6023      	str	r3, [r4, #0]
  40079e:	e043      	b.n	400828 <ethernet_phy_auto_negotiate+0xb0>
  4007a0:	9b00      	ldr	r3, [sp, #0]
  4007a2:	4602      	mov	r2, r0
  4007a4:	4629      	mov	r1, r5
  4007a6:	4620      	mov	r0, r4
  4007a8:	f423 43b0 	bic.w	r3, r3, #22528	; 0x5800
  4007ac:	4f39      	ldr	r7, [pc, #228]	; (400894 <ethernet_phy_auto_negotiate+0x11c>)
  4007ae:	f443 6380 	orr.w	r3, r3, #1024	; 0x400
  4007b2:	9300      	str	r3, [sp, #0]
  4007b4:	47b8      	blx	r7
  4007b6:	2800      	cmp	r0, #0
  4007b8:	d1ed      	bne.n	400796 <ethernet_phy_auto_negotiate+0x1e>
  4007ba:	f240 13e1 	movw	r3, #481	; 0x1e1
  4007be:	2204      	movs	r2, #4
  4007c0:	4629      	mov	r1, r5
  4007c2:	4620      	mov	r0, r4
  4007c4:	47b8      	blx	r7
  4007c6:	2800      	cmp	r0, #0
  4007c8:	d1e5      	bne.n	400796 <ethernet_phy_auto_negotiate+0x1e>
  4007ca:	4602      	mov	r2, r0
  4007cc:	466b      	mov	r3, sp
  4007ce:	4629      	mov	r1, r5
  4007d0:	4620      	mov	r0, r4
  4007d2:	47c0      	blx	r8
  4007d4:	2800      	cmp	r0, #0
  4007d6:	d1de      	bne.n	400796 <ethernet_phy_auto_negotiate+0x1e>
  4007d8:	9b00      	ldr	r3, [sp, #0]
  4007da:	4602      	mov	r2, r0
  4007dc:	4629      	mov	r1, r5
  4007de:	4620      	mov	r0, r4
  4007e0:	f443 5344 	orr.w	r3, r3, #12544	; 0x3100
  4007e4:	9300      	str	r3, [sp, #0]
  4007e6:	47b8      	blx	r7
  4007e8:	2800      	cmp	r0, #0
  4007ea:	d1d4      	bne.n	400796 <ethernet_phy_auto_negotiate+0x1e>
  4007ec:	9b00      	ldr	r3, [sp, #0]
  4007ee:	4602      	mov	r2, r0
  4007f0:	4629      	mov	r1, r5
  4007f2:	4620      	mov	r0, r4
  4007f4:	f423 6380 	bic.w	r3, r3, #1024	; 0x400
  4007f8:	f443 7300 	orr.w	r3, r3, #512	; 0x200
  4007fc:	9300      	str	r3, [sp, #0]
  4007fe:	47b8      	blx	r7
  400800:	2800      	cmp	r0, #0
  400802:	d1c8      	bne.n	400796 <ethernet_phy_auto_negotiate+0x1e>
  400804:	4f24      	ldr	r7, [pc, #144]	; (400898 <ethernet_phy_auto_negotiate+0x120>)
  400806:	466b      	mov	r3, sp
  400808:	2201      	movs	r2, #1
  40080a:	4629      	mov	r1, r5
  40080c:	4620      	mov	r0, r4
  40080e:	47b0      	blx	r6
  400810:	2800      	cmp	r0, #0
  400812:	d1c0      	bne.n	400796 <ethernet_phy_auto_negotiate+0x1e>
  400814:	9b00      	ldr	r3, [sp, #0]
  400816:	0698      	lsls	r0, r3, #26
  400818:	d409      	bmi.n	40082e <ethernet_phy_auto_negotiate+0xb6>
  40081a:	3f01      	subs	r7, #1
  40081c:	d1f3      	bne.n	400806 <ethernet_phy_auto_negotiate+0x8e>
  40081e:	6823      	ldr	r3, [r4, #0]
  400820:	2001      	movs	r0, #1
  400822:	f023 0310 	bic.w	r3, r3, #16
  400826:	6023      	str	r3, [r4, #0]
  400828:	b002      	add	sp, #8
  40082a:	e8bd 81f0 	ldmia.w	sp!, {r4, r5, r6, r7, r8, pc}
  40082e:	ab01      	add	r3, sp, #4
  400830:	2205      	movs	r2, #5
  400832:	4629      	mov	r1, r5
  400834:	4620      	mov	r0, r4
  400836:	47b0      	blx	r6
  400838:	2800      	cmp	r0, #0
  40083a:	d1ac      	bne.n	400796 <ethernet_phy_auto_negotiate+0x1e>
  40083c:	9b01      	ldr	r3, [sp, #4]
  40083e:	05d9      	lsls	r1, r3, #23
  400840:	d422      	bmi.n	400888 <ethernet_phy_auto_negotiate+0x110>
  400842:	065a      	lsls	r2, r3, #25
  400844:	d41e      	bmi.n	400884 <ethernet_phy_auto_negotiate+0x10c>
  400846:	f013 0f80 	tst.w	r3, #128	; 0x80
  40084a:	4603      	mov	r3, r0
  40084c:	d11d      	bne.n	40088a <ethernet_phy_auto_negotiate+0x112>
  40084e:	6862      	ldr	r2, [r4, #4]
  400850:	f022 0201 	bic.w	r2, r2, #1
  400854:	6062      	str	r2, [r4, #4]
  400856:	b18b      	cbz	r3, 40087c <ethernet_phy_auto_negotiate+0x104>
  400858:	6863      	ldr	r3, [r4, #4]
  40085a:	f043 0302 	orr.w	r3, r3, #2
  40085e:	6063      	str	r3, [r4, #4]
  400860:	68e3      	ldr	r3, [r4, #12]
  400862:	f023 0301 	bic.w	r3, r3, #1
  400866:	60e3      	str	r3, [r4, #12]
  400868:	4b0c      	ldr	r3, [pc, #48]	; (40089c <ethernet_phy_auto_negotiate+0x124>)
  40086a:	681a      	ldr	r2, [r3, #0]
  40086c:	f042 0208 	orr.w	r2, r2, #8
  400870:	601a      	str	r2, [r3, #0]
  400872:	681a      	ldr	r2, [r3, #0]
  400874:	f042 0204 	orr.w	r2, r2, #4
  400878:	601a      	str	r2, [r3, #0]
  40087a:	e78c      	b.n	400796 <ethernet_phy_auto_negotiate+0x1e>
  40087c:	6863      	ldr	r3, [r4, #4]
  40087e:	f023 0302 	bic.w	r3, r3, #2
  400882:	e7ec      	b.n	40085e <ethernet_phy_auto_negotiate+0xe6>
  400884:	2301      	movs	r3, #1
  400886:	e7e2      	b.n	40084e <ethernet_phy_auto_negotiate+0xd6>
  400888:	2301      	movs	r3, #1
  40088a:	6862      	ldr	r2, [r4, #4]
  40088c:	f042 0201 	orr.w	r2, r2, #1
  400890:	e7e0      	b.n	400854 <ethernet_phy_auto_negotiate+0xdc>
  400892:	bf00      	nop
  400894:	00400aa9 	.word	0x00400aa9
  400898:	000f4240 	.word	0x000f4240
  40089c:	40050000 	.word	0x40050000
  4008a0:	00400a55 	.word	0x00400a55

004008a4 <ethernet_phy_reset>:
  4008a4:	e92d 41f3 	stmdb	sp!, {r0, r1, r4, r5, r6, r7, r8, lr}
  4008a8:	6803      	ldr	r3, [r0, #0]
  4008aa:	ae02      	add	r6, sp, #8
  4008ac:	4d11      	ldr	r5, [pc, #68]	; (4008f4 <ethernet_phy_reset+0x50>)
  4008ae:	2200      	movs	r2, #0
  4008b0:	f043 0310 	orr.w	r3, r3, #16
  4008b4:	4604      	mov	r4, r0
  4008b6:	460f      	mov	r7, r1
  4008b8:	f8df 803c 	ldr.w	r8, [pc, #60]	; 4008f8 <ethernet_phy_reset+0x54>
  4008bc:	6003      	str	r3, [r0, #0]
  4008be:	f44f 4300 	mov.w	r3, #32768	; 0x8000
  4008c2:	f846 3d04 	str.w	r3, [r6, #-4]!
  4008c6:	47a8      	blx	r5
  4008c8:	250a      	movs	r5, #10
  4008ca:	4633      	mov	r3, r6
  4008cc:	2200      	movs	r2, #0
  4008ce:	4639      	mov	r1, r7
  4008d0:	4620      	mov	r0, r4
  4008d2:	47c0      	blx	r8
  4008d4:	9b01      	ldr	r3, [sp, #4]
  4008d6:	3d01      	subs	r5, #1
  4008d8:	041b      	lsls	r3, r3, #16
  4008da:	d501      	bpl.n	4008e0 <ethernet_phy_reset+0x3c>
  4008dc:	2d00      	cmp	r5, #0
  4008de:	d1f4      	bne.n	4008ca <ethernet_phy_reset+0x26>
  4008e0:	6823      	ldr	r3, [r4, #0]
  4008e2:	1c28      	adds	r0, r5, #0
  4008e4:	f023 0310 	bic.w	r3, r3, #16
  4008e8:	bf18      	it	ne
  4008ea:	2001      	movne	r0, #1
  4008ec:	6023      	str	r3, [r4, #0]
  4008ee:	b002      	add	sp, #8
  4008f0:	e8bd 81f0 	ldmia.w	sp!, {r4, r5, r6, r7, r8, pc}
  4008f4:	00400aa9 	.word	0x00400aa9
  4008f8:	00400a55 	.word	0x00400a55

004008fc <ethernet_phy_init>:
  4008fc:	e92d 47ff 	stmdb	sp!, {r0, r1, r2, r3, r4, r5, r6, r7, r8, r9, sl, lr}
  400900:	2701      	movs	r7, #1
  400902:	2300      	movs	r3, #0
  400904:	460e      	mov	r6, r1
  400906:	4615      	mov	r5, r2
  400908:	9700      	str	r7, [sp, #0]
  40090a:	463a      	mov	r2, r7
  40090c:	f44f 6180 	mov.w	r1, #1024	; 0x400
  400910:	4604      	mov	r4, r0
  400912:	f8df 813c 	ldr.w	r8, [pc, #316]	; 400a50 <ethernet_phy_init+0x154>
  400916:	4840      	ldr	r0, [pc, #256]	; (400a18 <ethernet_phy_init+0x11c>)
  400918:	47c0      	blx	r8
  40091a:	463a      	mov	r2, r7
  40091c:	f44f 2100 	mov.w	r1, #524288	; 0x80000
  400920:	4f3e      	ldr	r7, [pc, #248]	; (400a1c <ethernet_phy_init+0x120>)
  400922:	483f      	ldr	r0, [pc, #252]	; (400a20 <ethernet_phy_init+0x124>)
  400924:	47b8      	blx	r7
  400926:	2200      	movs	r2, #0
  400928:	f04f 5100 	mov.w	r1, #536870912	; 0x20000000
  40092c:	483c      	ldr	r0, [pc, #240]	; (400a20 <ethernet_phy_init+0x124>)
  40092e:	47b8      	blx	r7
  400930:	4b3c      	ldr	r3, [pc, #240]	; (400a24 <ethernet_phy_init+0x128>)
  400932:	f240 32ff 	movw	r2, #1023	; 0x3ff
  400936:	f04f 6100 	mov.w	r1, #134217728	; 0x8000000
  40093a:	483b      	ldr	r0, [pc, #236]	; (400a28 <ethernet_phy_init+0x12c>)
  40093c:	4798      	blx	r3
  40093e:	4f3b      	ldr	r7, [pc, #236]	; (400a2c <ethernet_phy_init+0x130>)
  400940:	4631      	mov	r1, r6
  400942:	483b      	ldr	r0, [pc, #236]	; (400a30 <ethernet_phy_init+0x134>)
  400944:	47b8      	blx	r7
  400946:	4b3b      	ldr	r3, [pc, #236]	; (400a34 <ethernet_phy_init+0x138>)
  400948:	46b9      	mov	r9, r7
  40094a:	429d      	cmp	r5, r3
  40094c:	d850      	bhi.n	4009f0 <ethernet_phy_init+0xf4>
  40094e:	4b3a      	ldr	r3, [pc, #232]	; (400a38 <ethernet_phy_init+0x13c>)
  400950:	429d      	cmp	r5, r3
  400952:	d851      	bhi.n	4009f8 <ethernet_phy_init+0xfc>
  400954:	4b39      	ldr	r3, [pc, #228]	; (400a3c <ethernet_phy_init+0x140>)
  400956:	429d      	cmp	r5, r3
  400958:	d851      	bhi.n	4009fe <ethernet_phy_init+0x102>
  40095a:	4b39      	ldr	r3, [pc, #228]	; (400a40 <ethernet_phy_init+0x144>)
  40095c:	429d      	cmp	r5, r3
  40095e:	d851      	bhi.n	400a04 <ethernet_phy_init+0x108>
  400960:	4b38      	ldr	r3, [pc, #224]	; (400a44 <ethernet_phy_init+0x148>)
  400962:	429d      	cmp	r5, r3
  400964:	d851      	bhi.n	400a0a <ethernet_phy_init+0x10e>
  400966:	4b38      	ldr	r3, [pc, #224]	; (400a48 <ethernet_phy_init+0x14c>)
  400968:	429d      	cmp	r5, r3
  40096a:	bf8c      	ite	hi
  40096c:	f44f 2580 	movhi.w	r5, #262144	; 0x40000
  400970:	2500      	movls	r5, #0
  400972:	6863      	ldr	r3, [r4, #4]
  400974:	f10d 0810 	add.w	r8, sp, #16
  400978:	2202      	movs	r2, #2
  40097a:	4631      	mov	r1, r6
  40097c:	f423 13e0 	bic.w	r3, r3, #1835008	; 0x1c0000
  400980:	4620      	mov	r0, r4
  400982:	4f32      	ldr	r7, [pc, #200]	; (400a4c <ethernet_phy_init+0x150>)
  400984:	6063      	str	r3, [r4, #4]
  400986:	6863      	ldr	r3, [r4, #4]
  400988:	431d      	orrs	r5, r3
  40098a:	2300      	movs	r3, #0
  40098c:	6065      	str	r5, [r4, #4]
  40098e:	4635      	mov	r5, r6
  400990:	f848 3d04 	str.w	r3, [r8, #-4]!
  400994:	6823      	ldr	r3, [r4, #0]
  400996:	f043 0310 	orr.w	r3, r3, #16
  40099a:	6023      	str	r3, [r4, #0]
  40099c:	4643      	mov	r3, r8
  40099e:	47b8      	blx	r7
  4009a0:	9b03      	ldr	r3, [sp, #12]
  4009a2:	2b22      	cmp	r3, #34	; 0x22
  4009a4:	d034      	beq.n	400a10 <ethernet_phy_init+0x114>
  4009a6:	f04f 0a20 	mov.w	sl, #32
  4009aa:	3501      	adds	r5, #1
  4009ac:	4643      	mov	r3, r8
  4009ae:	2202      	movs	r2, #2
  4009b0:	4620      	mov	r0, r4
  4009b2:	f005 051f 	and.w	r5, r5, #31
  4009b6:	4629      	mov	r1, r5
  4009b8:	47b8      	blx	r7
  4009ba:	9b03      	ldr	r3, [sp, #12]
  4009bc:	2b22      	cmp	r3, #34	; 0x22
  4009be:	d029      	beq.n	400a14 <ethernet_phy_init+0x118>
  4009c0:	f10a 3aff 	add.w	sl, sl, #4294967295
  4009c4:	f01a 0aff 	ands.w	sl, sl, #255	; 0xff
  4009c8:	d1ef      	bne.n	4009aa <ethernet_phy_init+0xae>
  4009ca:	f04f 0aff 	mov.w	sl, #255	; 0xff
  4009ce:	6823      	ldr	r3, [r4, #0]
  4009d0:	f1ba 0fff 	cmp.w	sl, #255	; 0xff
  4009d4:	f023 0310 	bic.w	r3, r3, #16
  4009d8:	6023      	str	r3, [r4, #0]
  4009da:	d009      	beq.n	4009f0 <ethernet_phy_init+0xf4>
  4009dc:	4643      	mov	r3, r8
  4009de:	2201      	movs	r2, #1
  4009e0:	4629      	mov	r1, r5
  4009e2:	4620      	mov	r0, r4
  4009e4:	47b8      	blx	r7
  4009e6:	4556      	cmp	r6, sl
  4009e8:	d002      	beq.n	4009f0 <ethernet_phy_init+0xf4>
  4009ea:	4631      	mov	r1, r6
  4009ec:	4620      	mov	r0, r4
  4009ee:	47c8      	blx	r9
  4009f0:	2000      	movs	r0, #0
  4009f2:	b004      	add	sp, #16
  4009f4:	e8bd 87f0 	ldmia.w	sp!, {r4, r5, r6, r7, r8, r9, sl, pc}
  4009f8:	f44f 15a0 	mov.w	r5, #1310720	; 0x140000
  4009fc:	e7b9      	b.n	400972 <ethernet_phy_init+0x76>
  4009fe:	f44f 1580 	mov.w	r5, #1048576	; 0x100000
  400a02:	e7b6      	b.n	400972 <ethernet_phy_init+0x76>
  400a04:	f44f 2540 	mov.w	r5, #786432	; 0xc0000
  400a08:	e7b3      	b.n	400972 <ethernet_phy_init+0x76>
  400a0a:	f44f 2500 	mov.w	r5, #524288	; 0x80000
  400a0e:	e7b0      	b.n	400972 <ethernet_phy_init+0x76>
  400a10:	46b2      	mov	sl, r6
  400a12:	e7dc      	b.n	4009ce <ethernet_phy_init+0xd2>
  400a14:	46aa      	mov	sl, r5
  400a16:	e7da      	b.n	4009ce <ethernet_phy_init+0xd2>
  400a18:	400e1200 	.word	0x400e1200
  400a1c:	00400b75 	.word	0x00400b75
  400a20:	400e0e00 	.word	0x400e0e00
  400a24:	00400af5 	.word	0x00400af5
  400a28:	400e1400 	.word	0x400e1400
  400a2c:	004008a5 	.word	0x004008a5
  400a30:	40050000 	.word	0x40050000
  400a34:	0e4e1c00 	.word	0x0e4e1c00
  400a38:	09896800 	.word	0x09896800
  400a3c:	07270e00 	.word	0x07270e00
  400a40:	04c4b400 	.word	0x04c4b400
  400a44:	02625a00 	.word	0x02625a00
  400a48:	01312d00 	.word	0x01312d00
  400a4c:	00400a55 	.word	0x00400a55
  400a50:	00400ba5 	.word	0x00400ba5

00400a54 <gmac_phy_read>:
  400a54:	b513      	push	{r0, r1, r4, lr}
  400a56:	6884      	ldr	r4, [r0, #8]
  400a58:	0764      	lsls	r4, r4, #29
  400a5a:	d5fc      	bpl.n	400a56 <gmac_phy_read+0x2>
  400a5c:	0492      	lsls	r2, r2, #18
  400a5e:	05c9      	lsls	r1, r1, #23
  400a60:	f402 02f8 	and.w	r2, r2, #8126464	; 0x7c0000
  400a64:	f001 6178 	and.w	r1, r1, #260046848	; 0xf800000
  400a68:	f042 42c0 	orr.w	r2, r2, #1610612736	; 0x60000000
  400a6c:	f442 3200 	orr.w	r2, r2, #131072	; 0x20000
  400a70:	430a      	orrs	r2, r1
  400a72:	490c      	ldr	r1, [pc, #48]	; (400aa4 <gmac_phy_read+0x50>)
  400a74:	6342      	str	r2, [r0, #52]	; 0x34
  400a76:	2200      	movs	r2, #0
  400a78:	9201      	str	r2, [sp, #4]
  400a7a:	6882      	ldr	r2, [r0, #8]
  400a7c:	0754      	lsls	r4, r2, #29
  400a7e:	d508      	bpl.n	400a92 <gmac_phy_read+0x3e>
  400a80:	6882      	ldr	r2, [r0, #8]
  400a82:	0752      	lsls	r2, r2, #29
  400a84:	d5fc      	bpl.n	400a80 <gmac_phy_read+0x2c>
  400a86:	6b42      	ldr	r2, [r0, #52]	; 0x34
  400a88:	2000      	movs	r0, #0
  400a8a:	b292      	uxth	r2, r2
  400a8c:	601a      	str	r2, [r3, #0]
  400a8e:	b002      	add	sp, #8
  400a90:	bd10      	pop	{r4, pc}
  400a92:	9a01      	ldr	r2, [sp, #4]
  400a94:	3201      	adds	r2, #1
  400a96:	9201      	str	r2, [sp, #4]
  400a98:	9a01      	ldr	r2, [sp, #4]
  400a9a:	428a      	cmp	r2, r1
  400a9c:	d9ed      	bls.n	400a7a <gmac_phy_read+0x26>
  400a9e:	2001      	movs	r0, #1
  400aa0:	e7f5      	b.n	400a8e <gmac_phy_read+0x3a>
  400aa2:	bf00      	nop
  400aa4:	000f423f 	.word	0x000f423f

00400aa8 <gmac_phy_write>:
  400aa8:	b513      	push	{r0, r1, r4, lr}
  400aaa:	6884      	ldr	r4, [r0, #8]
  400aac:	0764      	lsls	r4, r4, #29
  400aae:	d5fc      	bpl.n	400aaa <gmac_phy_write+0x2>
  400ab0:	0492      	lsls	r2, r2, #18
  400ab2:	05c9      	lsls	r1, r1, #23
  400ab4:	f402 02f8 	and.w	r2, r2, #8126464	; 0x7c0000
  400ab8:	b29b      	uxth	r3, r3
  400aba:	f001 6178 	and.w	r1, r1, #260046848	; 0xf800000
  400abe:	f042 42a0 	orr.w	r2, r2, #1342177280	; 0x50000000
  400ac2:	f442 3200 	orr.w	r2, r2, #131072	; 0x20000
  400ac6:	430a      	orrs	r2, r1
  400ac8:	431a      	orrs	r2, r3
  400aca:	2300      	movs	r3, #0
  400acc:	6342      	str	r2, [r0, #52]	; 0x34
  400ace:	4a08      	ldr	r2, [pc, #32]	; (400af0 <gmac_phy_write+0x48>)
  400ad0:	9301      	str	r3, [sp, #4]
  400ad2:	6883      	ldr	r3, [r0, #8]
  400ad4:	075b      	lsls	r3, r3, #29
  400ad6:	d502      	bpl.n	400ade <gmac_phy_write+0x36>
  400ad8:	2000      	movs	r0, #0
  400ada:	b002      	add	sp, #8
  400adc:	bd10      	pop	{r4, pc}
  400ade:	9b01      	ldr	r3, [sp, #4]
  400ae0:	3301      	adds	r3, #1
  400ae2:	9301      	str	r3, [sp, #4]
  400ae4:	9b01      	ldr	r3, [sp, #4]
  400ae6:	4293      	cmp	r3, r2
  400ae8:	d9f3      	bls.n	400ad2 <gmac_phy_write+0x2a>
  400aea:	2001      	movs	r0, #1
  400aec:	e7f5      	b.n	400ada <gmac_phy_write+0x32>
  400aee:	bf00      	nop
  400af0:	000f423f 	.word	0x000f423f

00400af4 <pio_set_peripheral>:
  400af4:	f1b1 5fc0 	cmp.w	r1, #402653184	; 0x18000000
  400af8:	6442      	str	r2, [r0, #68]	; 0x44
  400afa:	b510      	push	{r4, lr}
  400afc:	d02e      	beq.n	400b5c <pio_set_peripheral+0x68>
  400afe:	d807      	bhi.n	400b10 <pio_set_peripheral+0x1c>
  400b00:	f1b1 6f00 	cmp.w	r1, #134217728	; 0x8000000
  400b04:	d014      	beq.n	400b30 <pio_set_peripheral+0x3c>
  400b06:	f1b1 5f80 	cmp.w	r1, #268435456	; 0x10000000
  400b0a:	d01e      	beq.n	400b4a <pio_set_peripheral+0x56>
  400b0c:	b939      	cbnz	r1, 400b1e <pio_set_peripheral+0x2a>
  400b0e:	bd10      	pop	{r4, pc}
  400b10:	f1b1 5f20 	cmp.w	r1, #671088640	; 0x28000000
  400b14:	d00b      	beq.n	400b2e <pio_set_peripheral+0x3a>
  400b16:	d804      	bhi.n	400b22 <pio_set_peripheral+0x2e>
  400b18:	f1b1 5f00 	cmp.w	r1, #536870912	; 0x20000000
  400b1c:	d027      	beq.n	400b6e <pio_set_peripheral+0x7a>
  400b1e:	6042      	str	r2, [r0, #4]
  400b20:	e005      	b.n	400b2e <pio_set_peripheral+0x3a>
  400b22:	f1b1 5f40 	cmp.w	r1, #805306368	; 0x30000000
  400b26:	d002      	beq.n	400b2e <pio_set_peripheral+0x3a>
  400b28:	f1b1 5f60 	cmp.w	r1, #939524096	; 0x38000000
  400b2c:	d1f7      	bne.n	400b1e <pio_set_peripheral+0x2a>
  400b2e:	bd10      	pop	{r4, pc}
  400b30:	6f01      	ldr	r1, [r0, #112]	; 0x70
  400b32:	43d3      	mvns	r3, r2
  400b34:	6f04      	ldr	r4, [r0, #112]	; 0x70
  400b36:	4021      	ands	r1, r4
  400b38:	461c      	mov	r4, r3
  400b3a:	4019      	ands	r1, r3
  400b3c:	6701      	str	r1, [r0, #112]	; 0x70
  400b3e:	6f43      	ldr	r3, [r0, #116]	; 0x74
  400b40:	6f41      	ldr	r1, [r0, #116]	; 0x74
  400b42:	400b      	ands	r3, r1
  400b44:	4023      	ands	r3, r4
  400b46:	6743      	str	r3, [r0, #116]	; 0x74
  400b48:	e7e9      	b.n	400b1e <pio_set_peripheral+0x2a>
  400b4a:	6f03      	ldr	r3, [r0, #112]	; 0x70
  400b4c:	4313      	orrs	r3, r2
  400b4e:	6703      	str	r3, [r0, #112]	; 0x70
  400b50:	6f43      	ldr	r3, [r0, #116]	; 0x74
  400b52:	6f41      	ldr	r1, [r0, #116]	; 0x74
  400b54:	400b      	ands	r3, r1
  400b56:	ea23 0302 	bic.w	r3, r3, r2
  400b5a:	e7f4      	b.n	400b46 <pio_set_peripheral+0x52>
  400b5c:	6f03      	ldr	r3, [r0, #112]	; 0x70
  400b5e:	6f01      	ldr	r1, [r0, #112]	; 0x70
  400b60:	400b      	ands	r3, r1
  400b62:	ea23 0302 	bic.w	r3, r3, r2
  400b66:	6703      	str	r3, [r0, #112]	; 0x70
  400b68:	6f43      	ldr	r3, [r0, #116]	; 0x74
  400b6a:	4313      	orrs	r3, r2
  400b6c:	e7eb      	b.n	400b46 <pio_set_peripheral+0x52>
  400b6e:	6f03      	ldr	r3, [r0, #112]	; 0x70
  400b70:	4313      	orrs	r3, r2
  400b72:	e7f8      	b.n	400b66 <pio_set_peripheral+0x72>

00400b74 <pio_set_input>:
  400b74:	07d3      	lsls	r3, r2, #31
  400b76:	6441      	str	r1, [r0, #68]	; 0x44
  400b78:	d50b      	bpl.n	400b92 <pio_set_input+0x1e>
  400b7a:	6641      	str	r1, [r0, #100]	; 0x64
  400b7c:	f012 0f0a 	tst.w	r2, #10
  400b80:	d009      	beq.n	400b96 <pio_set_input+0x22>
  400b82:	6201      	str	r1, [r0, #32]
  400b84:	0793      	lsls	r3, r2, #30
  400b86:	d508      	bpl.n	400b9a <pio_set_input+0x26>
  400b88:	f8c0 1080 	str.w	r1, [r0, #128]	; 0x80
  400b8c:	6141      	str	r1, [r0, #20]
  400b8e:	6001      	str	r1, [r0, #0]
  400b90:	4770      	bx	lr
  400b92:	6601      	str	r1, [r0, #96]	; 0x60
  400b94:	e7f2      	b.n	400b7c <pio_set_input+0x8>
  400b96:	6241      	str	r1, [r0, #36]	; 0x24
  400b98:	e7f4      	b.n	400b84 <pio_set_input+0x10>
  400b9a:	0713      	lsls	r3, r2, #28
  400b9c:	d5f6      	bpl.n	400b8c <pio_set_input+0x18>
  400b9e:	f8c0 1084 	str.w	r1, [r0, #132]	; 0x84
  400ba2:	e7f3      	b.n	400b8c <pio_set_input+0x18>

00400ba4 <pio_set_output>:
  400ba4:	b510      	push	{r4, lr}
  400ba6:	9c02      	ldr	r4, [sp, #8]
  400ba8:	6441      	str	r1, [r0, #68]	; 0x44
  400baa:	b13c      	cbz	r4, 400bbc <pio_set_output+0x18>
  400bac:	6641      	str	r1, [r0, #100]	; 0x64
  400bae:	b13b      	cbz	r3, 400bc0 <pio_set_output+0x1c>
  400bb0:	6501      	str	r1, [r0, #80]	; 0x50
  400bb2:	b13a      	cbz	r2, 400bc4 <pio_set_output+0x20>
  400bb4:	6301      	str	r1, [r0, #48]	; 0x30
  400bb6:	6101      	str	r1, [r0, #16]
  400bb8:	6001      	str	r1, [r0, #0]
  400bba:	bd10      	pop	{r4, pc}
  400bbc:	6601      	str	r1, [r0, #96]	; 0x60
  400bbe:	e7f6      	b.n	400bae <pio_set_output+0xa>
  400bc0:	6541      	str	r1, [r0, #84]	; 0x54
  400bc2:	e7f6      	b.n	400bb2 <pio_set_output+0xe>
  400bc4:	6341      	str	r1, [r0, #52]	; 0x34
  400bc6:	e7f6      	b.n	400bb6 <pio_set_output+0x12>

00400bc8 <pio_get_interrupt_status>:
  400bc8:	6cc0      	ldr	r0, [r0, #76]	; 0x4c
  400bca:	4770      	bx	lr

00400bcc <pio_get_interrupt_mask>:
  400bcc:	6c80      	ldr	r0, [r0, #72]	; 0x48
  400bce:	4770      	bx	lr

00400bd0 <pio_handler_process>:
  400bd0:	b5f8      	push	{r3, r4, r5, r6, r7, lr}
  400bd2:	4604      	mov	r4, r0
  400bd4:	4b0e      	ldr	r3, [pc, #56]	; (400c10 <pio_handler_process+0x40>)
  400bd6:	460e      	mov	r6, r1
  400bd8:	4798      	blx	r3
  400bda:	4605      	mov	r5, r0
  400bdc:	4b0d      	ldr	r3, [pc, #52]	; (400c14 <pio_handler_process+0x44>)
  400bde:	4620      	mov	r0, r4
  400be0:	4798      	blx	r3
  400be2:	4005      	ands	r5, r0
  400be4:	d013      	beq.n	400c0e <pio_handler_process+0x3e>
  400be6:	4c0c      	ldr	r4, [pc, #48]	; (400c18 <pio_handler_process+0x48>)
  400be8:	f104 0760 	add.w	r7, r4, #96	; 0x60
  400bec:	6823      	ldr	r3, [r4, #0]
  400bee:	42b3      	cmp	r3, r6
  400bf0:	d108      	bne.n	400c04 <pio_handler_process+0x34>
  400bf2:	6861      	ldr	r1, [r4, #4]
  400bf4:	4229      	tst	r1, r5
  400bf6:	d005      	beq.n	400c04 <pio_handler_process+0x34>
  400bf8:	68e3      	ldr	r3, [r4, #12]
  400bfa:	4630      	mov	r0, r6
  400bfc:	4798      	blx	r3
  400bfe:	6863      	ldr	r3, [r4, #4]
  400c00:	ea25 0503 	bic.w	r5, r5, r3
  400c04:	42bc      	cmp	r4, r7
  400c06:	d002      	beq.n	400c0e <pio_handler_process+0x3e>
  400c08:	3410      	adds	r4, #16
  400c0a:	2d00      	cmp	r5, #0
  400c0c:	d1ee      	bne.n	400bec <pio_handler_process+0x1c>
  400c0e:	bdf8      	pop	{r3, r4, r5, r6, r7, pc}
  400c10:	00400bc9 	.word	0x00400bc9
  400c14:	00400bcd 	.word	0x00400bcd
  400c18:	20400a00 	.word	0x20400a00

00400c1c <PIOA_Handler>:
  400c1c:	210a      	movs	r1, #10
  400c1e:	4801      	ldr	r0, [pc, #4]	; (400c24 <PIOA_Handler+0x8>)
  400c20:	4b01      	ldr	r3, [pc, #4]	; (400c28 <PIOA_Handler+0xc>)
  400c22:	4718      	bx	r3
  400c24:	400e0e00 	.word	0x400e0e00
  400c28:	00400bd1 	.word	0x00400bd1

00400c2c <PIOB_Handler>:
  400c2c:	210b      	movs	r1, #11
  400c2e:	4801      	ldr	r0, [pc, #4]	; (400c34 <PIOB_Handler+0x8>)
  400c30:	4b01      	ldr	r3, [pc, #4]	; (400c38 <PIOB_Handler+0xc>)
  400c32:	4718      	bx	r3
  400c34:	400e1000 	.word	0x400e1000
  400c38:	00400bd1 	.word	0x00400bd1

00400c3c <PIOC_Handler>:
  400c3c:	210c      	movs	r1, #12
  400c3e:	4801      	ldr	r0, [pc, #4]	; (400c44 <PIOC_Handler+0x8>)
  400c40:	4b01      	ldr	r3, [pc, #4]	; (400c48 <PIOC_Handler+0xc>)
  400c42:	4718      	bx	r3
  400c44:	400e1200 	.word	0x400e1200
  400c48:	00400bd1 	.word	0x00400bd1

00400c4c <PIOD_Handler>:
  400c4c:	2110      	movs	r1, #16
  400c4e:	4801      	ldr	r0, [pc, #4]	; (400c54 <PIOD_Handler+0x8>)
  400c50:	4b01      	ldr	r3, [pc, #4]	; (400c58 <PIOD_Handler+0xc>)
  400c52:	4718      	bx	r3
  400c54:	400e1400 	.word	0x400e1400
  400c58:	00400bd1 	.word	0x00400bd1

00400c5c <PIOE_Handler>:
  400c5c:	2111      	movs	r1, #17
  400c5e:	4801      	ldr	r0, [pc, #4]	; (400c64 <PIOE_Handler+0x8>)
  400c60:	4b01      	ldr	r3, [pc, #4]	; (400c68 <PIOE_Handler+0xc>)
  400c62:	4718      	bx	r3
  400c64:	400e1600 	.word	0x400e1600
  400c68:	00400bd1 	.word	0x00400bd1

00400c6c <pmc_mck_set_division>:
  400c6c:	3802      	subs	r0, #2
  400c6e:	2802      	cmp	r0, #2
  400c70:	bf96      	itet	ls
  400c72:	4b07      	ldrls	r3, [pc, #28]	; (400c90 <pmc_mck_set_division+0x24>)
  400c74:	2100      	movhi	r1, #0
  400c76:	f833 1010 	ldrhls.w	r1, [r3, r0, lsl #1]
  400c7a:	4b06      	ldr	r3, [pc, #24]	; (400c94 <pmc_mck_set_division+0x28>)
  400c7c:	6b1a      	ldr	r2, [r3, #48]	; 0x30
  400c7e:	f422 7240 	bic.w	r2, r2, #768	; 0x300
  400c82:	430a      	orrs	r2, r1
  400c84:	631a      	str	r2, [r3, #48]	; 0x30
  400c86:	6e9a      	ldr	r2, [r3, #104]	; 0x68
  400c88:	0712      	lsls	r2, r2, #28
  400c8a:	d5fc      	bpl.n	400c86 <pmc_mck_set_division+0x1a>
  400c8c:	4770      	bx	lr
  400c8e:	bf00      	nop
  400c90:	00409544 	.word	0x00409544
  400c94:	400e0600 	.word	0x400e0600

00400c98 <pmc_switch_mck_to_pllack>:
  400c98:	4b0f      	ldr	r3, [pc, #60]	; (400cd8 <pmc_switch_mck_to_pllack+0x40>)
  400c9a:	6b1a      	ldr	r2, [r3, #48]	; 0x30
  400c9c:	f022 0270 	bic.w	r2, r2, #112	; 0x70
  400ca0:	4310      	orrs	r0, r2
  400ca2:	f640 0201 	movw	r2, #2049	; 0x801
  400ca6:	6318      	str	r0, [r3, #48]	; 0x30
  400ca8:	6e99      	ldr	r1, [r3, #104]	; 0x68
  400caa:	0708      	lsls	r0, r1, #28
  400cac:	d50c      	bpl.n	400cc8 <pmc_switch_mck_to_pllack+0x30>
  400cae:	6b1a      	ldr	r2, [r3, #48]	; 0x30
  400cb0:	f022 0203 	bic.w	r2, r2, #3
  400cb4:	f042 0202 	orr.w	r2, r2, #2
  400cb8:	631a      	str	r2, [r3, #48]	; 0x30
  400cba:	f640 0201 	movw	r2, #2049	; 0x801
  400cbe:	6e99      	ldr	r1, [r3, #104]	; 0x68
  400cc0:	0709      	lsls	r1, r1, #28
  400cc2:	d505      	bpl.n	400cd0 <pmc_switch_mck_to_pllack+0x38>
  400cc4:	2000      	movs	r0, #0
  400cc6:	4770      	bx	lr
  400cc8:	3a01      	subs	r2, #1
  400cca:	d1ed      	bne.n	400ca8 <pmc_switch_mck_to_pllack+0x10>
  400ccc:	2001      	movs	r0, #1
  400cce:	4770      	bx	lr
  400cd0:	3a01      	subs	r2, #1
  400cd2:	d1f4      	bne.n	400cbe <pmc_switch_mck_to_pllack+0x26>
  400cd4:	e7fa      	b.n	400ccc <pmc_switch_mck_to_pllack+0x34>
  400cd6:	bf00      	nop
  400cd8:	400e0600 	.word	0x400e0600

00400cdc <pmc_switch_mainck_to_xtal>:
  400cdc:	4a0e      	ldr	r2, [pc, #56]	; (400d18 <pmc_switch_mainck_to_xtal+0x3c>)
  400cde:	6a13      	ldr	r3, [r2, #32]
  400ce0:	b128      	cbz	r0, 400cee <pmc_switch_mainck_to_xtal+0x12>
  400ce2:	490e      	ldr	r1, [pc, #56]	; (400d1c <pmc_switch_mainck_to_xtal+0x40>)
  400ce4:	4019      	ands	r1, r3
  400ce6:	4b0e      	ldr	r3, [pc, #56]	; (400d20 <pmc_switch_mainck_to_xtal+0x44>)
  400ce8:	430b      	orrs	r3, r1
  400cea:	6213      	str	r3, [r2, #32]
  400cec:	4770      	bx	lr
  400cee:	f423 135c 	bic.w	r3, r3, #3604480	; 0x370000
  400cf2:	0209      	lsls	r1, r1, #8
  400cf4:	f023 0303 	bic.w	r3, r3, #3
  400cf8:	b289      	uxth	r1, r1
  400cfa:	f443 135c 	orr.w	r3, r3, #3604480	; 0x370000
  400cfe:	f043 0301 	orr.w	r3, r3, #1
  400d02:	430b      	orrs	r3, r1
  400d04:	6213      	str	r3, [r2, #32]
  400d06:	6e93      	ldr	r3, [r2, #104]	; 0x68
  400d08:	07db      	lsls	r3, r3, #31
  400d0a:	d5fc      	bpl.n	400d06 <pmc_switch_mainck_to_xtal+0x2a>
  400d0c:	6a13      	ldr	r3, [r2, #32]
  400d0e:	f043 739b 	orr.w	r3, r3, #20316160	; 0x1360000
  400d12:	f443 3380 	orr.w	r3, r3, #65536	; 0x10000
  400d16:	e7e8      	b.n	400cea <pmc_switch_mainck_to_xtal+0xe>
  400d18:	400e0600 	.word	0x400e0600
  400d1c:	fec8fffc 	.word	0xfec8fffc
  400d20:	01370002 	.word	0x01370002

00400d24 <pmc_osc_is_ready_mainck>:
  400d24:	4b02      	ldr	r3, [pc, #8]	; (400d30 <pmc_osc_is_ready_mainck+0xc>)
  400d26:	6e98      	ldr	r0, [r3, #104]	; 0x68
  400d28:	f400 3080 	and.w	r0, r0, #65536	; 0x10000
  400d2c:	4770      	bx	lr
  400d2e:	bf00      	nop
  400d30:	400e0600 	.word	0x400e0600

00400d34 <pmc_disable_pllack>:
  400d34:	f04f 5200 	mov.w	r2, #536870912	; 0x20000000
  400d38:	4b01      	ldr	r3, [pc, #4]	; (400d40 <pmc_disable_pllack+0xc>)
  400d3a:	629a      	str	r2, [r3, #40]	; 0x28
  400d3c:	4770      	bx	lr
  400d3e:	bf00      	nop
  400d40:	400e0600 	.word	0x400e0600

00400d44 <pmc_is_locked_pllack>:
  400d44:	4b02      	ldr	r3, [pc, #8]	; (400d50 <pmc_is_locked_pllack+0xc>)
  400d46:	6e98      	ldr	r0, [r3, #104]	; 0x68
  400d48:	f000 0002 	and.w	r0, r0, #2
  400d4c:	4770      	bx	lr
  400d4e:	bf00      	nop
  400d50:	400e0600 	.word	0x400e0600

00400d54 <pmc_enable_periph_clk>:
  400d54:	4b06      	ldr	r3, [pc, #24]	; (400d70 <pmc_enable_periph_clk+0x1c>)
  400d56:	f000 007f 	and.w	r0, r0, #127	; 0x7f
  400d5a:	f8c3 010c 	str.w	r0, [r3, #268]	; 0x10c
  400d5e:	2000      	movs	r0, #0
  400d60:	f8d3 210c 	ldr.w	r2, [r3, #268]	; 0x10c
  400d64:	f042 2210 	orr.w	r2, r2, #268439552	; 0x10001000
  400d68:	f8c3 210c 	str.w	r2, [r3, #268]	; 0x10c
  400d6c:	4770      	bx	lr
  400d6e:	bf00      	nop
  400d70:	400e0600 	.word	0x400e0600

00400d74 <tc_init>:
  400d74:	b510      	push	{r4, lr}
  400d76:	0189      	lsls	r1, r1, #6
  400d78:	2402      	movs	r4, #2
  400d7a:	1843      	adds	r3, r0, r1
  400d7c:	5044      	str	r4, [r0, r1]
  400d7e:	f04f 31ff 	mov.w	r1, #4294967295
  400d82:	6299      	str	r1, [r3, #40]	; 0x28
  400d84:	6a19      	ldr	r1, [r3, #32]
  400d86:	605a      	str	r2, [r3, #4]
  400d88:	bd10      	pop	{r4, pc}

00400d8a <tc_start>:
  400d8a:	0189      	lsls	r1, r1, #6
  400d8c:	2305      	movs	r3, #5
  400d8e:	5043      	str	r3, [r0, r1]
  400d90:	4770      	bx	lr

00400d92 <tc_write_rc>:
  400d92:	eb00 1181 	add.w	r1, r0, r1, lsl #6
  400d96:	61ca      	str	r2, [r1, #28]
  400d98:	4770      	bx	lr

00400d9a <tc_enable_interrupt>:
  400d9a:	eb00 1181 	add.w	r1, r0, r1, lsl #6
  400d9e:	624a      	str	r2, [r1, #36]	; 0x24
  400da0:	4770      	bx	lr

00400da2 <tc_find_mck_divisor>:
  400da2:	b5f0      	push	{r4, r5, r6, r7, lr}
  400da4:	2402      	movs	r4, #2
  400da6:	b087      	sub	sp, #28
  400da8:	9401      	str	r4, [sp, #4]
  400daa:	2408      	movs	r4, #8
  400dac:	af01      	add	r7, sp, #4
  400dae:	9402      	str	r4, [sp, #8]
  400db0:	2420      	movs	r4, #32
  400db2:	9403      	str	r4, [sp, #12]
  400db4:	2480      	movs	r4, #128	; 0x80
  400db6:	9404      	str	r4, [sp, #16]
  400db8:	9c0c      	ldr	r4, [sp, #48]	; 0x30
  400dba:	0be4      	lsrs	r4, r4, #15
  400dbc:	9405      	str	r4, [sp, #20]
  400dbe:	2400      	movs	r4, #0
  400dc0:	f857 5024 	ldr.w	r5, [r7, r4, lsl #2]
  400dc4:	fbb1 f6f5 	udiv	r6, r1, r5
  400dc8:	4286      	cmp	r6, r0
  400dca:	ea4f 4e16 	mov.w	lr, r6, lsr #16
  400dce:	d304      	bcc.n	400dda <tc_find_mck_divisor+0x38>
  400dd0:	4586      	cmp	lr, r0
  400dd2:	d905      	bls.n	400de0 <tc_find_mck_divisor+0x3e>
  400dd4:	3401      	adds	r4, #1
  400dd6:	2c05      	cmp	r4, #5
  400dd8:	d1f2      	bne.n	400dc0 <tc_find_mck_divisor+0x1e>
  400dda:	2000      	movs	r0, #0
  400ddc:	b007      	add	sp, #28
  400dde:	bdf0      	pop	{r4, r5, r6, r7, pc}
  400de0:	b102      	cbz	r2, 400de4 <tc_find_mck_divisor+0x42>
  400de2:	6015      	str	r5, [r2, #0]
  400de4:	b103      	cbz	r3, 400de8 <tc_find_mck_divisor+0x46>
  400de6:	601c      	str	r4, [r3, #0]
  400de8:	2001      	movs	r0, #1
  400dea:	e7f7      	b.n	400ddc <tc_find_mck_divisor+0x3a>

00400dec <uart_write>:
  400dec:	6943      	ldr	r3, [r0, #20]
  400dee:	079b      	lsls	r3, r3, #30
  400df0:	d502      	bpl.n	400df8 <uart_write+0xc>
  400df2:	61c1      	str	r1, [r0, #28]
  400df4:	2000      	movs	r0, #0
  400df6:	4770      	bx	lr
  400df8:	2001      	movs	r0, #1
  400dfa:	4770      	bx	lr

00400dfc <uart_read>:
  400dfc:	6943      	ldr	r3, [r0, #20]
  400dfe:	07db      	lsls	r3, r3, #31
  400e00:	d503      	bpl.n	400e0a <uart_read+0xe>
  400e02:	6983      	ldr	r3, [r0, #24]
  400e04:	2000      	movs	r0, #0
  400e06:	700b      	strb	r3, [r1, #0]
  400e08:	4770      	bx	lr
  400e0a:	2001      	movs	r0, #1
  400e0c:	4770      	bx	lr

00400e0e <usart_set_async_baudrate>:
  400e0e:	ebb2 1f01 	cmp.w	r2, r1, lsl #4
  400e12:	b530      	push	{r4, r5, lr}
  400e14:	bf2c      	ite	cs
  400e16:	2410      	movcs	r4, #16
  400e18:	2408      	movcc	r4, #8
  400e1a:	4361      	muls	r1, r4
  400e1c:	084b      	lsrs	r3, r1, #1
  400e1e:	eb03 02c2 	add.w	r2, r3, r2, lsl #3
  400e22:	f64f 73fe 	movw	r3, #65534	; 0xfffe
  400e26:	fbb2 f2f1 	udiv	r2, r2, r1
  400e2a:	08d1      	lsrs	r1, r2, #3
  400e2c:	1e4d      	subs	r5, r1, #1
  400e2e:	429d      	cmp	r5, r3
  400e30:	d80c      	bhi.n	400e4c <usart_set_async_baudrate+0x3e>
  400e32:	2c08      	cmp	r4, #8
  400e34:	d103      	bne.n	400e3e <usart_set_async_baudrate+0x30>
  400e36:	6843      	ldr	r3, [r0, #4]
  400e38:	f443 2300 	orr.w	r3, r3, #524288	; 0x80000
  400e3c:	6043      	str	r3, [r0, #4]
  400e3e:	0412      	lsls	r2, r2, #16
  400e40:	f402 22e0 	and.w	r2, r2, #458752	; 0x70000
  400e44:	430a      	orrs	r2, r1
  400e46:	6202      	str	r2, [r0, #32]
  400e48:	2000      	movs	r0, #0
  400e4a:	bd30      	pop	{r4, r5, pc}
  400e4c:	2001      	movs	r0, #1
  400e4e:	bd30      	pop	{r4, r5, pc}

00400e50 <usart_reset>:
  400e50:	4b08      	ldr	r3, [pc, #32]	; (400e74 <usart_reset+0x24>)
  400e52:	f8c0 30e4 	str.w	r3, [r0, #228]	; 0xe4
  400e56:	2300      	movs	r3, #0
  400e58:	6043      	str	r3, [r0, #4]
  400e5a:	6243      	str	r3, [r0, #36]	; 0x24
  400e5c:	6283      	str	r3, [r0, #40]	; 0x28
  400e5e:	2388      	movs	r3, #136	; 0x88
  400e60:	6003      	str	r3, [r0, #0]
  400e62:	2324      	movs	r3, #36	; 0x24
  400e64:	6003      	str	r3, [r0, #0]
  400e66:	f44f 7380 	mov.w	r3, #256	; 0x100
  400e6a:	6003      	str	r3, [r0, #0]
  400e6c:	f44f 2300 	mov.w	r3, #524288	; 0x80000
  400e70:	6003      	str	r3, [r0, #0]
  400e72:	4770      	bx	lr
  400e74:	55534100 	.word	0x55534100

00400e78 <usart_init_rs232>:
  400e78:	b570      	push	{r4, r5, r6, lr}
  400e7a:	4b0d      	ldr	r3, [pc, #52]	; (400eb0 <usart_init_rs232+0x38>)
  400e7c:	4605      	mov	r5, r0
  400e7e:	460c      	mov	r4, r1
  400e80:	4e0c      	ldr	r6, [pc, #48]	; (400eb4 <usart_init_rs232+0x3c>)
  400e82:	4798      	blx	r3
  400e84:	2300      	movs	r3, #0
  400e86:	6033      	str	r3, [r6, #0]
  400e88:	b909      	cbnz	r1, 400e8e <usart_init_rs232+0x16>
  400e8a:	2001      	movs	r0, #1
  400e8c:	bd70      	pop	{r4, r5, r6, pc}
  400e8e:	6809      	ldr	r1, [r1, #0]
  400e90:	4b09      	ldr	r3, [pc, #36]	; (400eb8 <usart_init_rs232+0x40>)
  400e92:	4798      	blx	r3
  400e94:	2800      	cmp	r0, #0
  400e96:	d1f8      	bne.n	400e8a <usart_init_rs232+0x12>
  400e98:	68a2      	ldr	r2, [r4, #8]
  400e9a:	6863      	ldr	r3, [r4, #4]
  400e9c:	4313      	orrs	r3, r2
  400e9e:	6922      	ldr	r2, [r4, #16]
  400ea0:	4313      	orrs	r3, r2
  400ea2:	68e2      	ldr	r2, [r4, #12]
  400ea4:	4313      	orrs	r3, r2
  400ea6:	686a      	ldr	r2, [r5, #4]
  400ea8:	6033      	str	r3, [r6, #0]
  400eaa:	4313      	orrs	r3, r2
  400eac:	606b      	str	r3, [r5, #4]
  400eae:	bd70      	pop	{r4, r5, r6, pc}
  400eb0:	00400e51 	.word	0x00400e51
  400eb4:	20400a70 	.word	0x20400a70
  400eb8:	00400e0f 	.word	0x00400e0f

00400ebc <usart_enable_tx>:
  400ebc:	2340      	movs	r3, #64	; 0x40
  400ebe:	6003      	str	r3, [r0, #0]
  400ec0:	4770      	bx	lr

00400ec2 <usart_enable_rx>:
  400ec2:	2310      	movs	r3, #16
  400ec4:	6003      	str	r3, [r0, #0]
  400ec6:	4770      	bx	lr

00400ec8 <usart_write>:
  400ec8:	6943      	ldr	r3, [r0, #20]
  400eca:	079b      	lsls	r3, r3, #30
  400ecc:	d504      	bpl.n	400ed8 <usart_write+0x10>
  400ece:	f3c1 0108 	ubfx	r1, r1, #0, #9
  400ed2:	61c1      	str	r1, [r0, #28]
  400ed4:	2000      	movs	r0, #0
  400ed6:	4770      	bx	lr
  400ed8:	2001      	movs	r0, #1
  400eda:	4770      	bx	lr

00400edc <usart_read>:
  400edc:	6943      	ldr	r3, [r0, #20]
  400ede:	07db      	lsls	r3, r3, #31
  400ee0:	d505      	bpl.n	400eee <usart_read+0x12>
  400ee2:	6983      	ldr	r3, [r0, #24]
  400ee4:	2000      	movs	r0, #0
  400ee6:	f3c3 0308 	ubfx	r3, r3, #0, #9
  400eea:	600b      	str	r3, [r1, #0]
  400eec:	4770      	bx	lr
  400eee:	2001      	movs	r0, #1
  400ef0:	4770      	bx	lr

00400ef2 <Dummy_Handler>:
  400ef2:	e7fe      	b.n	400ef2 <Dummy_Handler>

00400ef4 <Reset_Handler>:
  400ef4:	b507      	push	{r0, r1, r2, lr}
  400ef6:	4b1d      	ldr	r3, [pc, #116]	; (400f6c <Reset_Handler+0x78>)
  400ef8:	4a1d      	ldr	r2, [pc, #116]	; (400f70 <Reset_Handler+0x7c>)
  400efa:	429a      	cmp	r2, r3
  400efc:	d12a      	bne.n	400f54 <Reset_Handler+0x60>
  400efe:	4b1d      	ldr	r3, [pc, #116]	; (400f74 <Reset_Handler+0x80>)
  400f00:	2100      	movs	r1, #0
  400f02:	4a1d      	ldr	r2, [pc, #116]	; (400f78 <Reset_Handler+0x84>)
  400f04:	4293      	cmp	r3, r2
  400f06:	d32e      	bcc.n	400f66 <Reset_Handler+0x72>
  400f08:	4b1c      	ldr	r3, [pc, #112]	; (400f7c <Reset_Handler+0x88>)
  400f0a:	4a1d      	ldr	r2, [pc, #116]	; (400f80 <Reset_Handler+0x8c>)
  400f0c:	f023 037f 	bic.w	r3, r3, #127	; 0x7f
  400f10:	6093      	str	r3, [r2, #8]
  400f12:	f3ef 8310 	mrs	r3, PRIMASK
  400f16:	fab3 f383 	clz	r3, r3
  400f1a:	095b      	lsrs	r3, r3, #5
  400f1c:	9301      	str	r3, [sp, #4]
  400f1e:	b672      	cpsid	i
  400f20:	f3bf 8f5f 	dmb	sy
  400f24:	4a17      	ldr	r2, [pc, #92]	; (400f84 <Reset_Handler+0x90>)
  400f26:	2300      	movs	r3, #0
  400f28:	4917      	ldr	r1, [pc, #92]	; (400f88 <Reset_Handler+0x94>)
  400f2a:	7013      	strb	r3, [r2, #0]
  400f2c:	9801      	ldr	r0, [sp, #4]
  400f2e:	680b      	ldr	r3, [r1, #0]
  400f30:	f443 0370 	orr.w	r3, r3, #15728640	; 0xf00000
  400f34:	600b      	str	r3, [r1, #0]
  400f36:	f3bf 8f4f 	dsb	sy
  400f3a:	f3bf 8f6f 	isb	sy
  400f3e:	b120      	cbz	r0, 400f4a <Reset_Handler+0x56>
  400f40:	2301      	movs	r3, #1
  400f42:	7013      	strb	r3, [r2, #0]
  400f44:	f3bf 8f5f 	dmb	sy
  400f48:	b662      	cpsie	i
  400f4a:	4b10      	ldr	r3, [pc, #64]	; (400f8c <Reset_Handler+0x98>)
  400f4c:	4798      	blx	r3
  400f4e:	4b10      	ldr	r3, [pc, #64]	; (400f90 <Reset_Handler+0x9c>)
  400f50:	4798      	blx	r3
  400f52:	e7fe      	b.n	400f52 <Reset_Handler+0x5e>
  400f54:	3a04      	subs	r2, #4
  400f56:	490f      	ldr	r1, [pc, #60]	; (400f94 <Reset_Handler+0xa0>)
  400f58:	428b      	cmp	r3, r1
  400f5a:	d2d0      	bcs.n	400efe <Reset_Handler+0xa>
  400f5c:	f852 0f04 	ldr.w	r0, [r2, #4]!
  400f60:	f843 0b04 	str.w	r0, [r3], #4
  400f64:	e7f8      	b.n	400f58 <Reset_Handler+0x64>
  400f66:	f843 1b04 	str.w	r1, [r3], #4
  400f6a:	e7cb      	b.n	400f04 <Reset_Handler+0x10>
  400f6c:	20400000 	.word	0x20400000
  400f70:	0040a358 	.word	0x0040a358
  400f74:	204009e0 	.word	0x204009e0
  400f78:	20404a48 	.word	0x20404a48
  400f7c:	00400000 	.word	0x00400000
  400f80:	e000ed00 	.word	0xe000ed00
  400f84:	20400000 	.word	0x20400000
  400f88:	e000ed88 	.word	0xe000ed88
  400f8c:	004063c5 	.word	0x004063c5
  400f90:	004062f5 	.word	0x004062f5
  400f94:	204009e0 	.word	0x204009e0

00400f98 <SystemCoreClockUpdate>:
  400f98:	4a2b      	ldr	r2, [pc, #172]	; (401048 <SystemCoreClockUpdate+0xb0>)
  400f9a:	4b2c      	ldr	r3, [pc, #176]	; (40104c <SystemCoreClockUpdate+0xb4>)
  400f9c:	b510      	push	{r4, lr}
  400f9e:	6b11      	ldr	r1, [r2, #48]	; 0x30
  400fa0:	f001 0103 	and.w	r1, r1, #3
  400fa4:	2901      	cmp	r1, #1
  400fa6:	d017      	beq.n	400fd8 <SystemCoreClockUpdate+0x40>
  400fa8:	d30c      	bcc.n	400fc4 <SystemCoreClockUpdate+0x2c>
  400faa:	2902      	cmp	r1, #2
  400fac:	d025      	beq.n	400ffa <SystemCoreClockUpdate+0x62>
  400fae:	6b11      	ldr	r1, [r2, #48]	; 0x30
  400fb0:	f001 0170 	and.w	r1, r1, #112	; 0x70
  400fb4:	2970      	cmp	r1, #112	; 0x70
  400fb6:	d141      	bne.n	40103c <SystemCoreClockUpdate+0xa4>
  400fb8:	681a      	ldr	r2, [r3, #0]
  400fba:	2103      	movs	r1, #3
  400fbc:	fbb2 f2f1 	udiv	r2, r2, r1
  400fc0:	601a      	str	r2, [r3, #0]
  400fc2:	bd10      	pop	{r4, pc}
  400fc4:	4922      	ldr	r1, [pc, #136]	; (401050 <SystemCoreClockUpdate+0xb8>)
  400fc6:	6949      	ldr	r1, [r1, #20]
  400fc8:	060c      	lsls	r4, r1, #24
  400fca:	bf4c      	ite	mi
  400fcc:	f44f 4100 	movmi.w	r1, #32768	; 0x8000
  400fd0:	f44f 41fa 	movpl.w	r1, #32000	; 0x7d00
  400fd4:	6019      	str	r1, [r3, #0]
  400fd6:	e7ea      	b.n	400fae <SystemCoreClockUpdate+0x16>
  400fd8:	6a11      	ldr	r1, [r2, #32]
  400fda:	01c8      	lsls	r0, r1, #7
  400fdc:	d501      	bpl.n	400fe2 <SystemCoreClockUpdate+0x4a>
  400fde:	491d      	ldr	r1, [pc, #116]	; (401054 <SystemCoreClockUpdate+0xbc>)
  400fe0:	e7f8      	b.n	400fd4 <SystemCoreClockUpdate+0x3c>
  400fe2:	491d      	ldr	r1, [pc, #116]	; (401058 <SystemCoreClockUpdate+0xc0>)
  400fe4:	6019      	str	r1, [r3, #0]
  400fe6:	6a11      	ldr	r1, [r2, #32]
  400fe8:	f001 0170 	and.w	r1, r1, #112	; 0x70
  400fec:	2910      	cmp	r1, #16
  400fee:	d002      	beq.n	400ff6 <SystemCoreClockUpdate+0x5e>
  400ff0:	2920      	cmp	r1, #32
  400ff2:	d0f4      	beq.n	400fde <SystemCoreClockUpdate+0x46>
  400ff4:	e7db      	b.n	400fae <SystemCoreClockUpdate+0x16>
  400ff6:	4919      	ldr	r1, [pc, #100]	; (40105c <SystemCoreClockUpdate+0xc4>)
  400ff8:	e7ec      	b.n	400fd4 <SystemCoreClockUpdate+0x3c>
  400ffa:	6a11      	ldr	r1, [r2, #32]
  400ffc:	01c9      	lsls	r1, r1, #7
  400ffe:	d501      	bpl.n	401004 <SystemCoreClockUpdate+0x6c>
  401000:	4914      	ldr	r1, [pc, #80]	; (401054 <SystemCoreClockUpdate+0xbc>)
  401002:	e019      	b.n	401038 <SystemCoreClockUpdate+0xa0>
  401004:	4914      	ldr	r1, [pc, #80]	; (401058 <SystemCoreClockUpdate+0xc0>)
  401006:	6019      	str	r1, [r3, #0]
  401008:	6a11      	ldr	r1, [r2, #32]
  40100a:	f001 0170 	and.w	r1, r1, #112	; 0x70
  40100e:	2910      	cmp	r1, #16
  401010:	d011      	beq.n	401036 <SystemCoreClockUpdate+0x9e>
  401012:	2920      	cmp	r1, #32
  401014:	d0f4      	beq.n	401000 <SystemCoreClockUpdate+0x68>
  401016:	6b11      	ldr	r1, [r2, #48]	; 0x30
  401018:	f001 0103 	and.w	r1, r1, #3
  40101c:	2902      	cmp	r1, #2
  40101e:	d1c6      	bne.n	400fae <SystemCoreClockUpdate+0x16>
  401020:	6a94      	ldr	r4, [r2, #40]	; 0x28
  401022:	6819      	ldr	r1, [r3, #0]
  401024:	6a90      	ldr	r0, [r2, #40]	; 0x28
  401026:	f3c4 440a 	ubfx	r4, r4, #16, #11
  40102a:	b2c0      	uxtb	r0, r0
  40102c:	fb04 1101 	mla	r1, r4, r1, r1
  401030:	fbb1 f1f0 	udiv	r1, r1, r0
  401034:	e7ce      	b.n	400fd4 <SystemCoreClockUpdate+0x3c>
  401036:	4909      	ldr	r1, [pc, #36]	; (40105c <SystemCoreClockUpdate+0xc4>)
  401038:	6019      	str	r1, [r3, #0]
  40103a:	e7ec      	b.n	401016 <SystemCoreClockUpdate+0x7e>
  40103c:	6b11      	ldr	r1, [r2, #48]	; 0x30
  40103e:	681a      	ldr	r2, [r3, #0]
  401040:	f3c1 1102 	ubfx	r1, r1, #4, #3
  401044:	40ca      	lsrs	r2, r1
  401046:	e7bb      	b.n	400fc0 <SystemCoreClockUpdate+0x28>
  401048:	400e0600 	.word	0x400e0600
  40104c:	20400004 	.word	0x20400004
  401050:	400e1810 	.word	0x400e1810
  401054:	00b71b00 	.word	0x00b71b00
  401058:	003d0900 	.word	0x003d0900
  40105c:	007a1200 	.word	0x007a1200

00401060 <system_init_flash>:
  401060:	4b11      	ldr	r3, [pc, #68]	; (4010a8 <system_init_flash+0x48>)
  401062:	4298      	cmp	r0, r3
  401064:	4b11      	ldr	r3, [pc, #68]	; (4010ac <system_init_flash+0x4c>)
  401066:	d803      	bhi.n	401070 <system_init_flash+0x10>
  401068:	f04f 6280 	mov.w	r2, #67108864	; 0x4000000
  40106c:	601a      	str	r2, [r3, #0]
  40106e:	4770      	bx	lr
  401070:	4a0f      	ldr	r2, [pc, #60]	; (4010b0 <system_init_flash+0x50>)
  401072:	4290      	cmp	r0, r2
  401074:	d801      	bhi.n	40107a <system_init_flash+0x1a>
  401076:	4a0f      	ldr	r2, [pc, #60]	; (4010b4 <system_init_flash+0x54>)
  401078:	e7f8      	b.n	40106c <system_init_flash+0xc>
  40107a:	4a0f      	ldr	r2, [pc, #60]	; (4010b8 <system_init_flash+0x58>)
  40107c:	4290      	cmp	r0, r2
  40107e:	d801      	bhi.n	401084 <system_init_flash+0x24>
  401080:	4a0e      	ldr	r2, [pc, #56]	; (4010bc <system_init_flash+0x5c>)
  401082:	e7f3      	b.n	40106c <system_init_flash+0xc>
  401084:	4a0e      	ldr	r2, [pc, #56]	; (4010c0 <system_init_flash+0x60>)
  401086:	4290      	cmp	r0, r2
  401088:	d801      	bhi.n	40108e <system_init_flash+0x2e>
  40108a:	4a0e      	ldr	r2, [pc, #56]	; (4010c4 <system_init_flash+0x64>)
  40108c:	e7ee      	b.n	40106c <system_init_flash+0xc>
  40108e:	4a0e      	ldr	r2, [pc, #56]	; (4010c8 <system_init_flash+0x68>)
  401090:	4290      	cmp	r0, r2
  401092:	d802      	bhi.n	40109a <system_init_flash+0x3a>
  401094:	f04f 2204 	mov.w	r2, #67109888	; 0x4000400
  401098:	e7e8      	b.n	40106c <system_init_flash+0xc>
  40109a:	4a0c      	ldr	r2, [pc, #48]	; (4010cc <system_init_flash+0x6c>)
  40109c:	4290      	cmp	r0, r2
  40109e:	bf94      	ite	ls
  4010a0:	4a0b      	ldrls	r2, [pc, #44]	; (4010d0 <system_init_flash+0x70>)
  4010a2:	4a0c      	ldrhi	r2, [pc, #48]	; (4010d4 <system_init_flash+0x74>)
  4010a4:	e7e2      	b.n	40106c <system_init_flash+0xc>
  4010a6:	bf00      	nop
  4010a8:	015ef3bf 	.word	0x015ef3bf
  4010ac:	400e0c00 	.word	0x400e0c00
  4010b0:	02bde77f 	.word	0x02bde77f
  4010b4:	04000100 	.word	0x04000100
  4010b8:	041cdb3f 	.word	0x041cdb3f
  4010bc:	04000200 	.word	0x04000200
  4010c0:	057bceff 	.word	0x057bceff
  4010c4:	04000300 	.word	0x04000300
  4010c8:	06dac2bf 	.word	0x06dac2bf
  4010cc:	0839b67f 	.word	0x0839b67f
  4010d0:	04000500 	.word	0x04000500
  4010d4:	04000600 	.word	0x04000600

004010d8 <_sbrk>:
  4010d8:	4b07      	ldr	r3, [pc, #28]	; (4010f8 <_sbrk+0x20>)
  4010da:	681a      	ldr	r2, [r3, #0]
  4010dc:	b90a      	cbnz	r2, 4010e2 <_sbrk+0xa>
  4010de:	4a07      	ldr	r2, [pc, #28]	; (4010fc <_sbrk+0x24>)
  4010e0:	601a      	str	r2, [r3, #0]
  4010e2:	681a      	ldr	r2, [r3, #0]
  4010e4:	4906      	ldr	r1, [pc, #24]	; (401100 <_sbrk+0x28>)
  4010e6:	4410      	add	r0, r2
  4010e8:	4281      	cmp	r1, r0
  4010ea:	bfa6      	itte	ge
  4010ec:	6018      	strge	r0, [r3, #0]
  4010ee:	4610      	movge	r0, r2
  4010f0:	f04f 30ff 	movlt.w	r0, #4294967295
  4010f4:	4770      	bx	lr
  4010f6:	bf00      	nop
  4010f8:	20400a74 	.word	0x20400a74
  4010fc:	20405048 	.word	0x20405048
  401100:	2045fffc 	.word	0x2045fffc

00401104 <_close>:
  401104:	f04f 30ff 	mov.w	r0, #4294967295
  401108:	4770      	bx	lr

0040110a <_fstat>:
  40110a:	f44f 5300 	mov.w	r3, #8192	; 0x2000
  40110e:	2000      	movs	r0, #0
  401110:	604b      	str	r3, [r1, #4]
  401112:	4770      	bx	lr

00401114 <_isatty>:
  401114:	2001      	movs	r0, #1
  401116:	4770      	bx	lr

00401118 <_lseek>:
  401118:	2000      	movs	r0, #0
  40111a:	4770      	bx	lr

0040111c <lwip_htons>:
  40111c:	ba40      	rev16	r0, r0
  40111e:	b280      	uxth	r0, r0
  401120:	4770      	bx	lr

00401122 <lwip_ntohs>:
  401122:	ba40      	rev16	r0, r0
  401124:	b280      	uxth	r0, r0
  401126:	4770      	bx	lr

00401128 <lwip_htonl>:
  401128:	ba00      	rev	r0, r0
  40112a:	4770      	bx	lr

0040112c <lwip_ntohl>:
  40112c:	4b00      	ldr	r3, [pc, #0]	; (401130 <lwip_ntohl+0x4>)
  40112e:	4718      	bx	r3
  401130:	00401129 	.word	0x00401129

00401134 <icmp_send_response.isra.0>:
  401134:	e92d 43f0 	stmdb	sp!, {r4, r5, r6, r7, r8, r9, lr}
  401138:	4b1d      	ldr	r3, [pc, #116]	; (4011b0 <icmp_send_response.isra.0+0x7c>)
  40113a:	b085      	sub	sp, #20
  40113c:	4606      	mov	r6, r0
  40113e:	4689      	mov	r9, r1
  401140:	4690      	mov	r8, r2
  401142:	2124      	movs	r1, #36	; 0x24
  401144:	2200      	movs	r2, #0
  401146:	2001      	movs	r0, #1
  401148:	4798      	blx	r3
  40114a:	4605      	mov	r5, r0
  40114c:	b360      	cbz	r0, 4011a8 <icmp_send_response.isra.0+0x74>
  40114e:	6844      	ldr	r4, [r0, #4]
  401150:	2300      	movs	r3, #0
  401152:	6837      	ldr	r7, [r6, #0]
  401154:	f884 9000 	strb.w	r9, [r4]
  401158:	f884 8001 	strb.w	r8, [r4, #1]
  40115c:	7123      	strb	r3, [r4, #4]
  40115e:	7163      	strb	r3, [r4, #5]
  401160:	71a3      	strb	r3, [r4, #6]
  401162:	71e3      	strb	r3, [r4, #7]
  401164:	6842      	ldr	r2, [r0, #4]
  401166:	6833      	ldr	r3, [r6, #0]
  401168:	3208      	adds	r2, #8
  40116a:	f103 011c 	add.w	r1, r3, #28
  40116e:	f853 0b04 	ldr.w	r0, [r3], #4
  401172:	428b      	cmp	r3, r1
  401174:	f842 0b04 	str.w	r0, [r2], #4
  401178:	d1f9      	bne.n	40116e <icmp_send_response.isra.0+0x3a>
  40117a:	2600      	movs	r6, #0
  40117c:	4620      	mov	r0, r4
  40117e:	4b0d      	ldr	r3, [pc, #52]	; (4011b4 <icmp_send_response.isra.0+0x80>)
  401180:	70a6      	strb	r6, [r4, #2]
  401182:	70e6      	strb	r6, [r4, #3]
  401184:	8969      	ldrh	r1, [r5, #10]
  401186:	4798      	blx	r3
  401188:	aa04      	add	r2, sp, #16
  40118a:	8060      	strh	r0, [r4, #2]
  40118c:	4631      	mov	r1, r6
  40118e:	68fb      	ldr	r3, [r7, #12]
  401190:	4628      	mov	r0, r5
  401192:	4c09      	ldr	r4, [pc, #36]	; (4011b8 <icmp_send_response.isra.0+0x84>)
  401194:	f842 3d04 	str.w	r3, [r2, #-4]!
  401198:	2301      	movs	r3, #1
  40119a:	9600      	str	r6, [sp, #0]
  40119c:	9301      	str	r3, [sp, #4]
  40119e:	23ff      	movs	r3, #255	; 0xff
  4011a0:	47a0      	blx	r4
  4011a2:	4628      	mov	r0, r5
  4011a4:	4b05      	ldr	r3, [pc, #20]	; (4011bc <icmp_send_response.isra.0+0x88>)
  4011a6:	4798      	blx	r3
  4011a8:	b005      	add	sp, #20
  4011aa:	e8bd 83f0 	ldmia.w	sp!, {r4, r5, r6, r7, r8, r9, pc}
  4011ae:	bf00      	nop
  4011b0:	00402401 	.word	0x00402401
  4011b4:	0040141d 	.word	0x0040141d
  4011b8:	00401749 	.word	0x00401749
  4011bc:	004023b9 	.word	0x004023b9

004011c0 <icmp_input>:
  4011c0:	e92d 4ff0 	stmdb	sp!, {r4, r5, r6, r7, r8, r9, sl, fp, lr}
  4011c4:	6846      	ldr	r6, [r0, #4]
  4011c6:	b087      	sub	sp, #28
  4011c8:	4689      	mov	r9, r1
  4011ca:	4f46      	ldr	r7, [pc, #280]	; (4012e4 <icmp_input+0x124>)
  4011cc:	7835      	ldrb	r5, [r6, #0]
  4011ce:	4604      	mov	r4, r0
  4011d0:	f8df 8134 	ldr.w	r8, [pc, #308]	; 401308 <icmp_input+0x148>
  4011d4:	f005 050f 	and.w	r5, r5, #15
  4011d8:	00ad      	lsls	r5, r5, #2
  4011da:	f1c5 0b00 	rsb	fp, r5, #0
  4011de:	fa0f fb8b 	sxth.w	fp, fp
  4011e2:	4659      	mov	r1, fp
  4011e4:	47b8      	blx	r7
  4011e6:	b9b0      	cbnz	r0, 401216 <icmp_input+0x56>
  4011e8:	8923      	ldrh	r3, [r4, #8]
  4011ea:	2b03      	cmp	r3, #3
  4011ec:	d913      	bls.n	401216 <icmp_input+0x56>
  4011ee:	6863      	ldr	r3, [r4, #4]
  4011f0:	781b      	ldrb	r3, [r3, #0]
  4011f2:	2b08      	cmp	r3, #8
  4011f4:	d10f      	bne.n	401216 <icmp_input+0x56>
  4011f6:	f8df a108 	ldr.w	sl, [pc, #264]	; 401300 <icmp_input+0x140>
  4011fa:	4649      	mov	r1, r9
  4011fc:	4a3a      	ldr	r2, [pc, #232]	; (4012e8 <icmp_input+0x128>)
  4011fe:	f8da 0000 	ldr.w	r0, [sl]
  401202:	f000 03f0 	and.w	r3, r0, #240	; 0xf0
  401206:	9305      	str	r3, [sp, #20]
  401208:	4790      	blx	r2
  40120a:	f8cd a010 	str.w	sl, [sp, #16]
  40120e:	b910      	cbnz	r0, 401216 <icmp_input+0x56>
  401210:	9b05      	ldr	r3, [sp, #20]
  401212:	2be0      	cmp	r3, #224	; 0xe0
  401214:	d105      	bne.n	401222 <icmp_input+0x62>
  401216:	4620      	mov	r0, r4
  401218:	4643      	mov	r3, r8
  40121a:	b007      	add	sp, #28
  40121c:	e8bd 4ff0 	ldmia.w	sp!, {r4, r5, r6, r7, r8, r9, sl, fp, lr}
  401220:	4718      	bx	r3
  401222:	8923      	ldrh	r3, [r4, #8]
  401224:	2b07      	cmp	r3, #7
  401226:	d9f6      	bls.n	401216 <icmp_input+0x56>
  401228:	4620      	mov	r0, r4
  40122a:	4b30      	ldr	r3, [pc, #192]	; (4012ec <icmp_input+0x12c>)
  40122c:	4798      	blx	r3
  40122e:	2800      	cmp	r0, #0
  401230:	d1f1      	bne.n	401216 <icmp_input+0x56>
  401232:	2122      	movs	r1, #34	; 0x22
  401234:	4620      	mov	r0, r4
  401236:	b22d      	sxth	r5, r5
  401238:	47b8      	blx	r7
  40123a:	2800      	cmp	r0, #0
  40123c:	d04a      	beq.n	4012d4 <icmp_input+0x114>
  40123e:	4629      	mov	r1, r5
  401240:	4620      	mov	r0, r4
  401242:	47b8      	blx	r7
  401244:	4602      	mov	r2, r0
  401246:	2800      	cmp	r0, #0
  401248:	d1e5      	bne.n	401216 <icmp_input+0x56>
  40124a:	8921      	ldrh	r1, [r4, #8]
  40124c:	2002      	movs	r0, #2
  40124e:	4b28      	ldr	r3, [pc, #160]	; (4012f0 <icmp_input+0x130>)
  401250:	4798      	blx	r3
  401252:	4682      	mov	sl, r0
  401254:	2800      	cmp	r0, #0
  401256:	d0de      	beq.n	401216 <icmp_input+0x56>
  401258:	4621      	mov	r1, r4
  40125a:	4a26      	ldr	r2, [pc, #152]	; (4012f4 <icmp_input+0x134>)
  40125c:	4790      	blx	r2
  40125e:	2800      	cmp	r0, #0
  401260:	d1d9      	bne.n	401216 <icmp_input+0x56>
  401262:	4659      	mov	r1, fp
  401264:	4650      	mov	r0, sl
  401266:	f8da 6004 	ldr.w	r6, [sl, #4]
  40126a:	47b8      	blx	r7
  40126c:	2800      	cmp	r0, #0
  40126e:	d1d2      	bne.n	401216 <icmp_input+0x56>
  401270:	4620      	mov	r0, r4
  401272:	4654      	mov	r4, sl
  401274:	47c0      	blx	r8
  401276:	9b04      	ldr	r3, [sp, #16]
  401278:	f64f 71f6 	movw	r1, #65526	; 0xfff6
  40127c:	6862      	ldr	r2, [r4, #4]
  40127e:	f04f 0aff 	mov.w	sl, #255	; 0xff
  401282:	681b      	ldr	r3, [r3, #0]
  401284:	4630      	mov	r0, r6
  401286:	60f3      	str	r3, [r6, #12]
  401288:	4b1b      	ldr	r3, [pc, #108]	; (4012f8 <icmp_input+0x138>)
  40128a:	681b      	ldr	r3, [r3, #0]
  40128c:	6133      	str	r3, [r6, #16]
  40128e:	2300      	movs	r3, #0
  401290:	7013      	strb	r3, [r2, #0]
  401292:	8853      	ldrh	r3, [r2, #2]
  401294:	428b      	cmp	r3, r1
  401296:	f04f 0114 	mov.w	r1, #20
  40129a:	bf8c      	ite	hi
  40129c:	3309      	addhi	r3, #9
  40129e:	3308      	addls	r3, #8
  4012a0:	8053      	strh	r3, [r2, #2]
  4012a2:	2300      	movs	r3, #0
  4012a4:	f886 a008 	strb.w	sl, [r6, #8]
  4012a8:	72b3      	strb	r3, [r6, #10]
  4012aa:	72f3      	strb	r3, [r6, #11]
  4012ac:	4b13      	ldr	r3, [pc, #76]	; (4012fc <icmp_input+0x13c>)
  4012ae:	4798      	blx	r3
  4012b0:	4629      	mov	r1, r5
  4012b2:	8170      	strh	r0, [r6, #10]
  4012b4:	4620      	mov	r0, r4
  4012b6:	47b8      	blx	r7
  4012b8:	4602      	mov	r2, r0
  4012ba:	2800      	cmp	r0, #0
  4012bc:	d1ab      	bne.n	401216 <icmp_input+0x56>
  4012be:	2301      	movs	r3, #1
  4012c0:	f8cd 9008 	str.w	r9, [sp, #8]
  4012c4:	490e      	ldr	r1, [pc, #56]	; (401300 <icmp_input+0x140>)
  4012c6:	4620      	mov	r0, r4
  4012c8:	4d0e      	ldr	r5, [pc, #56]	; (401304 <icmp_input+0x144>)
  4012ca:	e88d 000c 	stmia.w	sp, {r2, r3}
  4012ce:	4653      	mov	r3, sl
  4012d0:	47a8      	blx	r5
  4012d2:	e7a0      	b.n	401216 <icmp_input+0x56>
  4012d4:	f06f 0121 	mvn.w	r1, #33	; 0x21
  4012d8:	4620      	mov	r0, r4
  4012da:	47b8      	blx	r7
  4012dc:	2800      	cmp	r0, #0
  4012de:	d19a      	bne.n	401216 <icmp_input+0x56>
  4012e0:	e7c9      	b.n	401276 <icmp_input+0xb6>
  4012e2:	bf00      	nop
  4012e4:	00402341 	.word	0x00402341
  4012e8:	00401789 	.word	0x00401789
  4012ec:	0040142d 	.word	0x0040142d
  4012f0:	00402401 	.word	0x00402401
  4012f4:	004025ed 	.word	0x004025ed
  4012f8:	20403998 	.word	0x20403998
  4012fc:	0040141d 	.word	0x0040141d
  401300:	204039a0 	.word	0x204039a0
  401304:	0040164d 	.word	0x0040164d
  401308:	004023b9 	.word	0x004023b9

0040130c <icmp_dest_unreach>:
  40130c:	460a      	mov	r2, r1
  40130e:	3004      	adds	r0, #4
  401310:	2103      	movs	r1, #3
  401312:	4b01      	ldr	r3, [pc, #4]	; (401318 <icmp_dest_unreach+0xc>)
  401314:	4718      	bx	r3
  401316:	bf00      	nop
  401318:	00401135 	.word	0x00401135

0040131c <icmp_time_exceeded>:
  40131c:	460a      	mov	r2, r1
  40131e:	3004      	adds	r0, #4
  401320:	210b      	movs	r1, #11
  401322:	4b01      	ldr	r3, [pc, #4]	; (401328 <icmp_time_exceeded+0xc>)
  401324:	4718      	bx	r3
  401326:	bf00      	nop
  401328:	00401135 	.word	0x00401135

0040132c <lwip_standard_chksum>:
  40132c:	2300      	movs	r3, #0
  40132e:	f010 0201 	ands.w	r2, r0, #1
  401332:	b513      	push	{r0, r1, r4, lr}
  401334:	f8ad 3006 	strh.w	r3, [sp, #6]
  401338:	d01f      	beq.n	40137a <lwip_standard_chksum+0x4e>
  40133a:	4299      	cmp	r1, r3
  40133c:	dd24      	ble.n	401388 <lwip_standard_chksum+0x5c>
  40133e:	1c43      	adds	r3, r0, #1
  401340:	3901      	subs	r1, #1
  401342:	7800      	ldrb	r0, [r0, #0]
  401344:	f88d 0007 	strb.w	r0, [sp, #7]
  401348:	2000      	movs	r0, #0
  40134a:	2901      	cmp	r1, #1
  40134c:	dc17      	bgt.n	40137e <lwip_standard_chksum+0x52>
  40134e:	d102      	bne.n	401356 <lwip_standard_chksum+0x2a>
  401350:	781b      	ldrb	r3, [r3, #0]
  401352:	f88d 3006 	strb.w	r3, [sp, #6]
  401356:	f8bd 3006 	ldrh.w	r3, [sp, #6]
  40135a:	4403      	add	r3, r0
  40135c:	b298      	uxth	r0, r3
  40135e:	eb00 4313 	add.w	r3, r0, r3, lsr #16
  401362:	b298      	uxth	r0, r3
  401364:	eb00 4013 	add.w	r0, r0, r3, lsr #16
  401368:	b122      	cbz	r2, 401374 <lwip_standard_chksum+0x48>
  40136a:	0203      	lsls	r3, r0, #8
  40136c:	f3c0 2007 	ubfx	r0, r0, #8, #8
  401370:	b29b      	uxth	r3, r3
  401372:	4318      	orrs	r0, r3
  401374:	b280      	uxth	r0, r0
  401376:	b002      	add	sp, #8
  401378:	bd10      	pop	{r4, pc}
  40137a:	4603      	mov	r3, r0
  40137c:	e7e4      	b.n	401348 <lwip_standard_chksum+0x1c>
  40137e:	f833 4b02 	ldrh.w	r4, [r3], #2
  401382:	3902      	subs	r1, #2
  401384:	4420      	add	r0, r4
  401386:	e7e0      	b.n	40134a <lwip_standard_chksum+0x1e>
  401388:	4618      	mov	r0, r3
  40138a:	e7e4      	b.n	401356 <lwip_standard_chksum+0x2a>

0040138c <inet_chksum_pseudo>:
  40138c:	e92d 47f0 	stmdb	sp!, {r4, r5, r6, r7, r8, r9, sl, lr}
  401390:	2500      	movs	r5, #0
  401392:	4606      	mov	r6, r0
  401394:	4688      	mov	r8, r1
  401396:	4691      	mov	r9, r2
  401398:	461f      	mov	r7, r3
  40139a:	462c      	mov	r4, r5
  40139c:	f8df a078 	ldr.w	sl, [pc, #120]	; 401418 <inet_chksum_pseudo+0x8c>
  4013a0:	bb1e      	cbnz	r6, 4013ea <inet_chksum_pseudo+0x5e>
  4013a2:	b125      	cbz	r5, 4013ae <inet_chksum_pseudo+0x22>
  4013a4:	0221      	lsls	r1, r4, #8
  4013a6:	f3c4 2407 	ubfx	r4, r4, #8, #8
  4013aa:	b289      	uxth	r1, r1
  4013ac:	430c      	orrs	r4, r1
  4013ae:	f8d9 2000 	ldr.w	r2, [r9]
  4013b2:	f8d8 3000 	ldr.w	r3, [r8]
  4013b6:	0c10      	lsrs	r0, r2, #16
  4013b8:	4d16      	ldr	r5, [pc, #88]	; (401414 <inet_chksum_pseudo+0x88>)
  4013ba:	fa10 f082 	uxtah	r0, r0, r2
  4013be:	fa10 f083 	uxtah	r0, r0, r3
  4013c2:	eb00 4013 	add.w	r0, r0, r3, lsr #16
  4013c6:	4404      	add	r4, r0
  4013c8:	4638      	mov	r0, r7
  4013ca:	47a8      	blx	r5
  4013cc:	4404      	add	r4, r0
  4013ce:	f8bd 0020 	ldrh.w	r0, [sp, #32]
  4013d2:	47a8      	blx	r5
  4013d4:	4420      	add	r0, r4
  4013d6:	b284      	uxth	r4, r0
  4013d8:	eb04 4410 	add.w	r4, r4, r0, lsr #16
  4013dc:	b2a0      	uxth	r0, r4
  4013de:	eb00 4014 	add.w	r0, r0, r4, lsr #16
  4013e2:	43c0      	mvns	r0, r0
  4013e4:	b280      	uxth	r0, r0
  4013e6:	e8bd 87f0 	ldmia.w	sp!, {r4, r5, r6, r7, r8, r9, sl, pc}
  4013ea:	8971      	ldrh	r1, [r6, #10]
  4013ec:	6870      	ldr	r0, [r6, #4]
  4013ee:	47d0      	blx	sl
  4013f0:	8973      	ldrh	r3, [r6, #10]
  4013f2:	4404      	add	r4, r0
  4013f4:	07db      	lsls	r3, r3, #31
  4013f6:	b2a0      	uxth	r0, r4
  4013f8:	eb00 4414 	add.w	r4, r0, r4, lsr #16
  4013fc:	d507      	bpl.n	40140e <inet_chksum_pseudo+0x82>
  4013fe:	0223      	lsls	r3, r4, #8
  401400:	f1c5 0501 	rsb	r5, r5, #1
  401404:	f3c4 2407 	ubfx	r4, r4, #8, #8
  401408:	b29b      	uxth	r3, r3
  40140a:	b2ed      	uxtb	r5, r5
  40140c:	431c      	orrs	r4, r3
  40140e:	6836      	ldr	r6, [r6, #0]
  401410:	e7c6      	b.n	4013a0 <inet_chksum_pseudo+0x14>
  401412:	bf00      	nop
  401414:	0040111d 	.word	0x0040111d
  401418:	0040132d 	.word	0x0040132d

0040141c <inet_chksum>:
  40141c:	b508      	push	{r3, lr}
  40141e:	4b02      	ldr	r3, [pc, #8]	; (401428 <inet_chksum+0xc>)
  401420:	4798      	blx	r3
  401422:	43c0      	mvns	r0, r0
  401424:	b280      	uxth	r0, r0
  401426:	bd08      	pop	{r3, pc}
  401428:	0040132d 	.word	0x0040132d

0040142c <inet_chksum_pbuf>:
  40142c:	b5f8      	push	{r3, r4, r5, r6, r7, lr}
  40142e:	2500      	movs	r5, #0
  401430:	4606      	mov	r6, r0
  401432:	4f10      	ldr	r7, [pc, #64]	; (401474 <inet_chksum_pbuf+0x48>)
  401434:	462c      	mov	r4, r5
  401436:	b946      	cbnz	r6, 40144a <inet_chksum_pbuf+0x1e>
  401438:	b125      	cbz	r5, 401444 <inet_chksum_pbuf+0x18>
  40143a:	0223      	lsls	r3, r4, #8
  40143c:	f3c4 2407 	ubfx	r4, r4, #8, #8
  401440:	b29b      	uxth	r3, r3
  401442:	431c      	orrs	r4, r3
  401444:	43e0      	mvns	r0, r4
  401446:	b280      	uxth	r0, r0
  401448:	bdf8      	pop	{r3, r4, r5, r6, r7, pc}
  40144a:	8971      	ldrh	r1, [r6, #10]
  40144c:	6870      	ldr	r0, [r6, #4]
  40144e:	47b8      	blx	r7
  401450:	8973      	ldrh	r3, [r6, #10]
  401452:	4420      	add	r0, r4
  401454:	07db      	lsls	r3, r3, #31
  401456:	b284      	uxth	r4, r0
  401458:	eb04 4410 	add.w	r4, r4, r0, lsr #16
  40145c:	d507      	bpl.n	40146e <inet_chksum_pbuf+0x42>
  40145e:	0223      	lsls	r3, r4, #8
  401460:	f1c5 0501 	rsb	r5, r5, #1
  401464:	f3c4 2407 	ubfx	r4, r4, #8, #8
  401468:	b29b      	uxth	r3, r3
  40146a:	b2ed      	uxtb	r5, r5
  40146c:	431c      	orrs	r4, r3
  40146e:	6836      	ldr	r6, [r6, #0]
  401470:	e7e1      	b.n	401436 <inet_chksum_pbuf+0xa>
  401472:	bf00      	nop
  401474:	0040132d 	.word	0x0040132d

00401478 <ip_route>:
  401478:	4b0c      	ldr	r3, [pc, #48]	; (4014ac <ip_route+0x34>)
  40147a:	681b      	ldr	r3, [r3, #0]
  40147c:	b94b      	cbnz	r3, 401492 <ip_route+0x1a>
  40147e:	4a0c      	ldr	r2, [pc, #48]	; (4014b0 <ip_route+0x38>)
  401480:	6812      	ldr	r2, [r2, #0]
  401482:	b182      	cbz	r2, 4014a6 <ip_route+0x2e>
  401484:	f892 102d 	ldrb.w	r1, [r2, #45]	; 0x2d
  401488:	f011 0f01 	tst.w	r1, #1
  40148c:	bf18      	it	ne
  40148e:	4613      	movne	r3, r2
  401490:	e009      	b.n	4014a6 <ip_route+0x2e>
  401492:	f893 202d 	ldrb.w	r2, [r3, #45]	; 0x2d
  401496:	07d2      	lsls	r2, r2, #31
  401498:	d5ef      	bpl.n	40147a <ip_route+0x2>
  40149a:	6859      	ldr	r1, [r3, #4]
  40149c:	6802      	ldr	r2, [r0, #0]
  40149e:	404a      	eors	r2, r1
  4014a0:	6899      	ldr	r1, [r3, #8]
  4014a2:	420a      	tst	r2, r1
  4014a4:	d1e9      	bne.n	40147a <ip_route+0x2>
  4014a6:	4618      	mov	r0, r3
  4014a8:	4770      	bx	lr
  4014aa:	bf00      	nop
  4014ac:	204049bc 	.word	0x204049bc
  4014b0:	204049c0 	.word	0x204049c0

004014b4 <ip_input>:
  4014b4:	e92d 4ff7 	stmdb	sp!, {r0, r1, r2, r4, r5, r6, r7, r8, r9, sl, fp, lr}
  4014b8:	6846      	ldr	r6, [r0, #4]
  4014ba:	4604      	mov	r4, r0
  4014bc:	460f      	mov	r7, r1
  4014be:	7835      	ldrb	r5, [r6, #0]
  4014c0:	092b      	lsrs	r3, r5, #4
  4014c2:	2b04      	cmp	r3, #4
  4014c4:	d006      	beq.n	4014d4 <ip_input+0x20>
  4014c6:	4620      	mov	r0, r4
  4014c8:	4b50      	ldr	r3, [pc, #320]	; (40160c <ip_input+0x158>)
  4014ca:	4798      	blx	r3
  4014cc:	2000      	movs	r0, #0
  4014ce:	b003      	add	sp, #12
  4014d0:	e8bd 8ff0 	ldmia.w	sp!, {r4, r5, r6, r7, r8, r9, sl, fp, pc}
  4014d4:	f005 050f 	and.w	r5, r5, #15
  4014d8:	4b4d      	ldr	r3, [pc, #308]	; (401610 <ip_input+0x15c>)
  4014da:	8870      	ldrh	r0, [r6, #2]
  4014dc:	4798      	blx	r3
  4014de:	8963      	ldrh	r3, [r4, #10]
  4014e0:	00ad      	lsls	r5, r5, #2
  4014e2:	4680      	mov	r8, r0
  4014e4:	42ab      	cmp	r3, r5
  4014e6:	d3ee      	bcc.n	4014c6 <ip_input+0x12>
  4014e8:	8923      	ldrh	r3, [r4, #8]
  4014ea:	4283      	cmp	r3, r0
  4014ec:	d3eb      	bcc.n	4014c6 <ip_input+0x12>
  4014ee:	4629      	mov	r1, r5
  4014f0:	4630      	mov	r0, r6
  4014f2:	4b48      	ldr	r3, [pc, #288]	; (401614 <ip_input+0x160>)
  4014f4:	4798      	blx	r3
  4014f6:	2800      	cmp	r0, #0
  4014f8:	d1e5      	bne.n	4014c6 <ip_input+0x12>
  4014fa:	4641      	mov	r1, r8
  4014fc:	4b46      	ldr	r3, [pc, #280]	; (401618 <ip_input+0x164>)
  4014fe:	4620      	mov	r0, r4
  401500:	463d      	mov	r5, r7
  401502:	4798      	blx	r3
  401504:	6933      	ldr	r3, [r6, #16]
  401506:	4a45      	ldr	r2, [pc, #276]	; (40161c <ip_input+0x168>)
  401508:	f04f 0a01 	mov.w	sl, #1
  40150c:	f8df b134 	ldr.w	fp, [pc, #308]	; 401644 <ip_input+0x190>
  401510:	6013      	str	r3, [r2, #0]
  401512:	4690      	mov	r8, r2
  401514:	4b42      	ldr	r3, [pc, #264]	; (401620 <ip_input+0x16c>)
  401516:	68f1      	ldr	r1, [r6, #12]
  401518:	4699      	mov	r9, r3
  40151a:	6019      	str	r1, [r3, #0]
  40151c:	4b41      	ldr	r3, [pc, #260]	; (401624 <ip_input+0x170>)
  40151e:	f895 202d 	ldrb.w	r2, [r5, #45]	; 0x2d
  401522:	07d2      	lsls	r2, r2, #31
  401524:	d404      	bmi.n	401530 <ip_input+0x7c>
  401526:	f1ba 0f00 	cmp.w	sl, #0
  40152a:	d13f      	bne.n	4015ac <ip_input+0xf8>
  40152c:	682d      	ldr	r5, [r5, #0]
  40152e:	e03f      	b.n	4015b0 <ip_input+0xfc>
  401530:	686a      	ldr	r2, [r5, #4]
  401532:	2a00      	cmp	r2, #0
  401534:	d0f7      	beq.n	401526 <ip_input+0x72>
  401536:	f8d8 0000 	ldr.w	r0, [r8]
  40153a:	4282      	cmp	r2, r0
  40153c:	d005      	beq.n	40154a <ip_input+0x96>
  40153e:	4629      	mov	r1, r5
  401540:	9301      	str	r3, [sp, #4]
  401542:	4798      	blx	r3
  401544:	9b01      	ldr	r3, [sp, #4]
  401546:	2800      	cmp	r0, #0
  401548:	d0ed      	beq.n	401526 <ip_input+0x72>
  40154a:	4639      	mov	r1, r7
  40154c:	f8d9 0000 	ldr.w	r0, [r9]
  401550:	f8df a0d0 	ldr.w	sl, [pc, #208]	; 401624 <ip_input+0x170>
  401554:	47d0      	blx	sl
  401556:	2800      	cmp	r0, #0
  401558:	d1b5      	bne.n	4014c6 <ip_input+0x12>
  40155a:	f8d9 3000 	ldr.w	r3, [r9]
  40155e:	f003 03f0 	and.w	r3, r3, #240	; 0xf0
  401562:	2be0      	cmp	r3, #224	; 0xe0
  401564:	d0af      	beq.n	4014c6 <ip_input+0x12>
  401566:	2d00      	cmp	r5, #0
  401568:	d0ad      	beq.n	4014c6 <ip_input+0x12>
  40156a:	88f3      	ldrh	r3, [r6, #6]
  40156c:	f023 03c0 	bic.w	r3, r3, #192	; 0xc0
  401570:	b133      	cbz	r3, 401580 <ip_input+0xcc>
  401572:	4620      	mov	r0, r4
  401574:	4b2c      	ldr	r3, [pc, #176]	; (401628 <ip_input+0x174>)
  401576:	4798      	blx	r3
  401578:	4604      	mov	r4, r0
  40157a:	2800      	cmp	r0, #0
  40157c:	d0a6      	beq.n	4014cc <ip_input+0x18>
  40157e:	6846      	ldr	r6, [r0, #4]
  401580:	f8df b0c4 	ldr.w	fp, [pc, #196]	; 401648 <ip_input+0x194>
  401584:	4639      	mov	r1, r7
  401586:	4d29      	ldr	r5, [pc, #164]	; (40162c <ip_input+0x178>)
  401588:	4620      	mov	r0, r4
  40158a:	4b29      	ldr	r3, [pc, #164]	; (401630 <ip_input+0x17c>)
  40158c:	f8cb 7000 	str.w	r7, [fp]
  401590:	602e      	str	r6, [r5, #0]
  401592:	4798      	blx	r3
  401594:	b9c0      	cbnz	r0, 4015c8 <ip_input+0x114>
  401596:	7a73      	ldrb	r3, [r6, #9]
  401598:	2b06      	cmp	r3, #6
  40159a:	d01e      	beq.n	4015da <ip_input+0x126>
  40159c:	2b11      	cmp	r3, #17
  40159e:	d00f      	beq.n	4015c0 <ip_input+0x10c>
  4015a0:	2b01      	cmp	r3, #1
  4015a2:	d11e      	bne.n	4015e2 <ip_input+0x12e>
  4015a4:	4639      	mov	r1, r7
  4015a6:	4620      	mov	r0, r4
  4015a8:	4b22      	ldr	r3, [pc, #136]	; (401634 <ip_input+0x180>)
  4015aa:	e00c      	b.n	4015c6 <ip_input+0x112>
  4015ac:	f8db 5000 	ldr.w	r5, [fp]
  4015b0:	42bd      	cmp	r5, r7
  4015b2:	f04f 0a00 	mov.w	sl, #0
  4015b6:	bf08      	it	eq
  4015b8:	682d      	ldreq	r5, [r5, #0]
  4015ba:	2d00      	cmp	r5, #0
  4015bc:	d1af      	bne.n	40151e <ip_input+0x6a>
  4015be:	e7c4      	b.n	40154a <ip_input+0x96>
  4015c0:	4639      	mov	r1, r7
  4015c2:	4620      	mov	r0, r4
  4015c4:	4b1c      	ldr	r3, [pc, #112]	; (401638 <ip_input+0x184>)
  4015c6:	4798      	blx	r3
  4015c8:	2300      	movs	r3, #0
  4015ca:	f8cb 3000 	str.w	r3, [fp]
  4015ce:	602b      	str	r3, [r5, #0]
  4015d0:	f8c9 3000 	str.w	r3, [r9]
  4015d4:	f8c8 3000 	str.w	r3, [r8]
  4015d8:	e778      	b.n	4014cc <ip_input+0x18>
  4015da:	4639      	mov	r1, r7
  4015dc:	4620      	mov	r0, r4
  4015de:	4b17      	ldr	r3, [pc, #92]	; (40163c <ip_input+0x188>)
  4015e0:	e7f1      	b.n	4015c6 <ip_input+0x112>
  4015e2:	4639      	mov	r1, r7
  4015e4:	f8d8 0000 	ldr.w	r0, [r8]
  4015e8:	47d0      	blx	sl
  4015ea:	b950      	cbnz	r0, 401602 <ip_input+0x14e>
  4015ec:	f8d8 3000 	ldr.w	r3, [r8]
  4015f0:	f003 03f0 	and.w	r3, r3, #240	; 0xf0
  4015f4:	2be0      	cmp	r3, #224	; 0xe0
  4015f6:	d004      	beq.n	401602 <ip_input+0x14e>
  4015f8:	6066      	str	r6, [r4, #4]
  4015fa:	2102      	movs	r1, #2
  4015fc:	4620      	mov	r0, r4
  4015fe:	4b10      	ldr	r3, [pc, #64]	; (401640 <ip_input+0x18c>)
  401600:	4798      	blx	r3
  401602:	4620      	mov	r0, r4
  401604:	4b01      	ldr	r3, [pc, #4]	; (40160c <ip_input+0x158>)
  401606:	4798      	blx	r3
  401608:	e7de      	b.n	4015c8 <ip_input+0x114>
  40160a:	bf00      	nop
  40160c:	004023b9 	.word	0x004023b9
  401610:	00401123 	.word	0x00401123
  401614:	0040141d 	.word	0x0040141d
  401618:	00402525 	.word	0x00402525
  40161c:	204039a0 	.word	0x204039a0
  401620:	20403998 	.word	0x20403998
  401624:	00401789 	.word	0x00401789
  401628:	004019a5 	.word	0x004019a5
  40162c:	204039a4 	.word	0x204039a4
  401630:	0040275d 	.word	0x0040275d
  401634:	004011c1 	.word	0x004011c1
  401638:	0040542d 	.word	0x0040542d
  40163c:	00403f2d 	.word	0x00403f2d
  401640:	0040130d 	.word	0x0040130d
  401644:	204049bc 	.word	0x204049bc
  401648:	2040399c 	.word	0x2040399c

0040164c <ip_output_if>:
  40164c:	e92d 4ff0 	stmdb	sp!, {r4, r5, r6, r7, r8, r9, sl, fp, lr}
  401650:	b087      	sub	sp, #28
  401652:	461c      	mov	r4, r3
  401654:	4607      	mov	r7, r0
  401656:	468b      	mov	fp, r1
  401658:	f89d 3044 	ldrb.w	r3, [sp, #68]	; 0x44
  40165c:	4616      	mov	r6, r2
  40165e:	f89d 8040 	ldrb.w	r8, [sp, #64]	; 0x40
  401662:	9302      	str	r3, [sp, #8]
  401664:	f8dd 9048 	ldr.w	r9, [sp, #72]	; 0x48
  401668:	2a00      	cmp	r2, #0
  40166a:	d055      	beq.n	401718 <ip_output_if+0xcc>
  40166c:	2114      	movs	r1, #20
  40166e:	4a32      	ldr	r2, [pc, #200]	; (401738 <ip_output_if+0xec>)
  401670:	4790      	blx	r2
  401672:	9001      	str	r0, [sp, #4]
  401674:	2800      	cmp	r0, #0
  401676:	d15b      	bne.n	401730 <ip_output_if+0xe4>
  401678:	687d      	ldr	r5, [r7, #4]
  40167a:	9b02      	ldr	r3, [sp, #8]
  40167c:	722c      	strb	r4, [r5, #8]
  40167e:	726b      	strb	r3, [r5, #9]
  401680:	ea44 2403 	orr.w	r4, r4, r3, lsl #8
  401684:	6830      	ldr	r0, [r6, #0]
  401686:	f885 8001 	strb.w	r8, [r5, #1]
  40168a:	ea4f 2808 	mov.w	r8, r8, lsl #8
  40168e:	b281      	uxth	r1, r0
  401690:	6128      	str	r0, [r5, #16]
  401692:	ea4f 4a10 	mov.w	sl, r0, lsr #16
  401696:	2045      	movs	r0, #69	; 0x45
  401698:	4b28      	ldr	r3, [pc, #160]	; (40173c <ip_output_if+0xf0>)
  40169a:	ea48 0800 	orr.w	r8, r8, r0
  40169e:	7028      	strb	r0, [r5, #0]
  4016a0:	8938      	ldrh	r0, [r7, #8]
  4016a2:	9103      	str	r1, [sp, #12]
  4016a4:	4444      	add	r4, r8
  4016a6:	9302      	str	r3, [sp, #8]
  4016a8:	4798      	blx	r3
  4016aa:	9a01      	ldr	r2, [sp, #4]
  4016ac:	4680      	mov	r8, r0
  4016ae:	8068      	strh	r0, [r5, #2]
  4016b0:	71aa      	strb	r2, [r5, #6]
  4016b2:	71ea      	strb	r2, [r5, #7]
  4016b4:	4a22      	ldr	r2, [pc, #136]	; (401740 <ip_output_if+0xf4>)
  4016b6:	9b02      	ldr	r3, [sp, #8]
  4016b8:	8810      	ldrh	r0, [r2, #0]
  4016ba:	9201      	str	r2, [sp, #4]
  4016bc:	4798      	blx	r3
  4016be:	9a01      	ldr	r2, [sp, #4]
  4016c0:	80a8      	strh	r0, [r5, #4]
  4016c2:	8813      	ldrh	r3, [r2, #0]
  4016c4:	9903      	ldr	r1, [sp, #12]
  4016c6:	3301      	adds	r3, #1
  4016c8:	8013      	strh	r3, [r2, #0]
  4016ca:	f1bb 0f00 	cmp.w	fp, #0
  4016ce:	d002      	beq.n	4016d6 <ip_output_if+0x8a>
  4016d0:	f8db 3000 	ldr.w	r3, [fp]
  4016d4:	b90b      	cbnz	r3, 4016da <ip_output_if+0x8e>
  4016d6:	f8d9 3004 	ldr.w	r3, [r9, #4]
  4016da:	60eb      	str	r3, [r5, #12]
  4016dc:	68eb      	ldr	r3, [r5, #12]
  4016de:	fa14 f483 	uxtah	r4, r4, r3
  4016e2:	eb04 4413 	add.w	r4, r4, r3, lsr #16
  4016e6:	4421      	add	r1, r4
  4016e8:	448a      	add	sl, r1
  4016ea:	44c2      	add	sl, r8
  4016ec:	4450      	add	r0, sl
  4016ee:	b283      	uxth	r3, r0
  4016f0:	eb03 4010 	add.w	r0, r3, r0, lsr #16
  4016f4:	eb00 4010 	add.w	r0, r0, r0, lsr #16
  4016f8:	43c0      	mvns	r0, r0
  4016fa:	8168      	strh	r0, [r5, #10]
  4016fc:	f8b9 3024 	ldrh.w	r3, [r9, #36]	; 0x24
  401700:	b183      	cbz	r3, 401724 <ip_output_if+0xd8>
  401702:	893a      	ldrh	r2, [r7, #8]
  401704:	429a      	cmp	r2, r3
  401706:	d90d      	bls.n	401724 <ip_output_if+0xd8>
  401708:	4632      	mov	r2, r6
  40170a:	4649      	mov	r1, r9
  40170c:	4638      	mov	r0, r7
  40170e:	4b0d      	ldr	r3, [pc, #52]	; (401744 <ip_output_if+0xf8>)
  401710:	4798      	blx	r3
  401712:	b007      	add	sp, #28
  401714:	e8bd 8ff0 	ldmia.w	sp!, {r4, r5, r6, r7, r8, r9, sl, fp, pc}
  401718:	6843      	ldr	r3, [r0, #4]
  40171a:	ae06      	add	r6, sp, #24
  40171c:	691b      	ldr	r3, [r3, #16]
  40171e:	f846 3d04 	str.w	r3, [r6, #-4]!
  401722:	e7eb      	b.n	4016fc <ip_output_if+0xb0>
  401724:	f8d9 3014 	ldr.w	r3, [r9, #20]
  401728:	4632      	mov	r2, r6
  40172a:	4639      	mov	r1, r7
  40172c:	4648      	mov	r0, r9
  40172e:	e7ef      	b.n	401710 <ip_output_if+0xc4>
  401730:	f06f 0001 	mvn.w	r0, #1
  401734:	e7ed      	b.n	401712 <ip_output_if+0xc6>
  401736:	bf00      	nop
  401738:	00402341 	.word	0x00402341
  40173c:	0040111d 	.word	0x0040111d
  401740:	20400a78 	.word	0x20400a78
  401744:	00401ca5 	.word	0x00401ca5

00401748 <ip_output>:
  401748:	b5f0      	push	{r4, r5, r6, r7, lr}
  40174a:	4605      	mov	r5, r0
  40174c:	b085      	sub	sp, #20
  40174e:	461f      	mov	r7, r3
  401750:	4610      	mov	r0, r2
  401752:	4b0b      	ldr	r3, [pc, #44]	; (401780 <ip_output+0x38>)
  401754:	460e      	mov	r6, r1
  401756:	4614      	mov	r4, r2
  401758:	4798      	blx	r3
  40175a:	b170      	cbz	r0, 40177a <ip_output+0x32>
  40175c:	f89d 302c 	ldrb.w	r3, [sp, #44]	; 0x2c
  401760:	4622      	mov	r2, r4
  401762:	9002      	str	r0, [sp, #8]
  401764:	4631      	mov	r1, r6
  401766:	9301      	str	r3, [sp, #4]
  401768:	4628      	mov	r0, r5
  40176a:	f89d 3028 	ldrb.w	r3, [sp, #40]	; 0x28
  40176e:	4c05      	ldr	r4, [pc, #20]	; (401784 <ip_output+0x3c>)
  401770:	9300      	str	r3, [sp, #0]
  401772:	463b      	mov	r3, r7
  401774:	47a0      	blx	r4
  401776:	b005      	add	sp, #20
  401778:	bdf0      	pop	{r4, r5, r6, r7, pc}
  40177a:	f06f 0003 	mvn.w	r0, #3
  40177e:	e7fa      	b.n	401776 <ip_output+0x2e>
  401780:	00401479 	.word	0x00401479
  401784:	0040164d 	.word	0x0040164d

00401788 <ip4_addr_isbroadcast>:
  401788:	1e43      	subs	r3, r0, #1
  40178a:	3303      	adds	r3, #3
  40178c:	d811      	bhi.n	4017b2 <ip4_addr_isbroadcast+0x2a>
  40178e:	f891 302d 	ldrb.w	r3, [r1, #45]	; 0x2d
  401792:	f013 0302 	ands.w	r3, r3, #2
  401796:	d00e      	beq.n	4017b6 <ip4_addr_isbroadcast+0x2e>
  401798:	684a      	ldr	r2, [r1, #4]
  40179a:	4290      	cmp	r0, r2
  40179c:	d00b      	beq.n	4017b6 <ip4_addr_isbroadcast+0x2e>
  40179e:	688b      	ldr	r3, [r1, #8]
  4017a0:	4042      	eors	r2, r0
  4017a2:	421a      	tst	r2, r3
  4017a4:	d107      	bne.n	4017b6 <ip4_addr_isbroadcast+0x2e>
  4017a6:	43db      	mvns	r3, r3
  4017a8:	4383      	bics	r3, r0
  4017aa:	bf0c      	ite	eq
  4017ac:	2001      	moveq	r0, #1
  4017ae:	2000      	movne	r0, #0
  4017b0:	4770      	bx	lr
  4017b2:	2001      	movs	r0, #1
  4017b4:	4770      	bx	lr
  4017b6:	2000      	movs	r0, #0
  4017b8:	4770      	bx	lr

004017ba <ipaddr_ntoa_r>:
  4017ba:	e92d 47f3 	stmdb	sp!, {r0, r1, r4, r5, r6, r7, r8, r9, sl, lr}
  4017be:	460f      	mov	r7, r1
  4017c0:	6803      	ldr	r3, [r0, #0]
  4017c2:	f10d 0c07 	add.w	ip, sp, #7
  4017c6:	f10d 0003 	add.w	r0, sp, #3
  4017ca:	2500      	movs	r5, #0
  4017cc:	f04f 0e0a 	mov.w	lr, #10
  4017d0:	f04f 082e 	mov.w	r8, #46	; 0x2e
  4017d4:	9301      	str	r3, [sp, #4]
  4017d6:	7844      	ldrb	r4, [r0, #1]
  4017d8:	2300      	movs	r3, #0
  4017da:	f10d 0a08 	add.w	sl, sp, #8
  4017de:	f103 0901 	add.w	r9, r3, #1
  4017e2:	fbb4 f6fe 	udiv	r6, r4, lr
  4017e6:	fb0e 4416 	mls	r4, lr, r6, r4
  4017ea:	449a      	add	sl, r3
  4017ec:	fa5f f989 	uxtb.w	r9, r9
  4017f0:	3430      	adds	r4, #48	; 0x30
  4017f2:	f80a 4c08 	strb.w	r4, [sl, #-8]
  4017f6:	f016 04ff 	ands.w	r4, r6, #255	; 0xff
  4017fa:	d117      	bne.n	40182c <ipaddr_ntoa_r+0x72>
  4017fc:	f800 4f01 	strb.w	r4, [r0, #1]!
  401800:	1bed      	subs	r5, r5, r7
  401802:	463c      	mov	r4, r7
  401804:	2bff      	cmp	r3, #255	; 0xff
  401806:	eb04 0605 	add.w	r6, r4, r5
  40180a:	d111      	bne.n	401830 <ipaddr_ntoa_r+0x76>
  40180c:	4296      	cmp	r6, r2
  40180e:	f106 0501 	add.w	r5, r6, #1
  401812:	da19      	bge.n	401848 <ipaddr_ntoa_r+0x8e>
  401814:	4560      	cmp	r0, ip
  401816:	f104 0701 	add.w	r7, r4, #1
  40181a:	f884 8000 	strb.w	r8, [r4]
  40181e:	d1da      	bne.n	4017d6 <ipaddr_ntoa_r+0x1c>
  401820:	2300      	movs	r3, #0
  401822:	4608      	mov	r0, r1
  401824:	7023      	strb	r3, [r4, #0]
  401826:	b002      	add	sp, #8
  401828:	e8bd 87f0 	ldmia.w	sp!, {r4, r5, r6, r7, r8, r9, sl, pc}
  40182c:	464b      	mov	r3, r9
  40182e:	e7d4      	b.n	4017da <ipaddr_ntoa_r+0x20>
  401830:	1e5f      	subs	r7, r3, #1
  401832:	4296      	cmp	r6, r2
  401834:	b2ff      	uxtb	r7, r7
  401836:	da07      	bge.n	401848 <ipaddr_ntoa_r+0x8e>
  401838:	ae02      	add	r6, sp, #8
  40183a:	4433      	add	r3, r6
  40183c:	f813 3c08 	ldrb.w	r3, [r3, #-8]
  401840:	f804 3b01 	strb.w	r3, [r4], #1
  401844:	463b      	mov	r3, r7
  401846:	e7dd      	b.n	401804 <ipaddr_ntoa_r+0x4a>
  401848:	2000      	movs	r0, #0
  40184a:	e7ec      	b.n	401826 <ipaddr_ntoa_r+0x6c>

0040184c <ipaddr_ntoa>:
  40184c:	2210      	movs	r2, #16
  40184e:	4901      	ldr	r1, [pc, #4]	; (401854 <ipaddr_ntoa+0x8>)
  401850:	4b01      	ldr	r3, [pc, #4]	; (401858 <ipaddr_ntoa+0xc>)
  401852:	4718      	bx	r3
  401854:	20400a7a 	.word	0x20400a7a
  401858:	004017bb 	.word	0x004017bb

0040185c <ip_reass_free_complete_datagram>:
  40185c:	e92d 47f0 	stmdb	sp!, {r4, r5, r6, r7, r8, r9, sl, lr}
  401860:	6846      	ldr	r6, [r0, #4]
  401862:	4604      	mov	r4, r0
  401864:	460f      	mov	r7, r1
  401866:	6873      	ldr	r3, [r6, #4]
  401868:	889a      	ldrh	r2, [r3, #4]
  40186a:	2a00      	cmp	r2, #0
  40186c:	d12f      	bne.n	4018ce <ip_reass_free_complete_datagram+0x72>
  40186e:	681b      	ldr	r3, [r3, #0]
  401870:	f100 011c 	add.w	r1, r0, #28
  401874:	6043      	str	r3, [r0, #4]
  401876:	f100 0308 	add.w	r3, r0, #8
  40187a:	6872      	ldr	r2, [r6, #4]
  40187c:	f853 0b04 	ldr.w	r0, [r3], #4
  401880:	428b      	cmp	r3, r1
  401882:	f842 0b04 	str.w	r0, [r2], #4
  401886:	d1f9      	bne.n	40187c <ip_reass_free_complete_datagram+0x20>
  401888:	2101      	movs	r1, #1
  40188a:	4630      	mov	r0, r6
  40188c:	4b16      	ldr	r3, [pc, #88]	; (4018e8 <ip_reass_free_complete_datagram+0x8c>)
  40188e:	4798      	blx	r3
  401890:	4b16      	ldr	r3, [pc, #88]	; (4018ec <ip_reass_free_complete_datagram+0x90>)
  401892:	4630      	mov	r0, r6
  401894:	4798      	blx	r3
  401896:	4b16      	ldr	r3, [pc, #88]	; (4018f0 <ip_reass_free_complete_datagram+0x94>)
  401898:	b285      	uxth	r5, r0
  40189a:	4630      	mov	r0, r6
  40189c:	4798      	blx	r3
  40189e:	6866      	ldr	r6, [r4, #4]
  4018a0:	f8df 8048 	ldr.w	r8, [pc, #72]	; 4018ec <ip_reass_free_complete_datagram+0x90>
  4018a4:	f8df 9048 	ldr.w	r9, [pc, #72]	; 4018f0 <ip_reass_free_complete_datagram+0x94>
  4018a8:	b99e      	cbnz	r6, 4018d2 <ip_reass_free_complete_datagram+0x76>
  4018aa:	4a12      	ldr	r2, [pc, #72]	; (4018f4 <ip_reass_free_complete_datagram+0x98>)
  4018ac:	4621      	mov	r1, r4
  4018ae:	2005      	movs	r0, #5
  4018b0:	6813      	ldr	r3, [r2, #0]
  4018b2:	429c      	cmp	r4, r3
  4018b4:	6823      	ldr	r3, [r4, #0]
  4018b6:	bf0c      	ite	eq
  4018b8:	6013      	streq	r3, [r2, #0]
  4018ba:	603b      	strne	r3, [r7, #0]
  4018bc:	4b0e      	ldr	r3, [pc, #56]	; (4018f8 <ip_reass_free_complete_datagram+0x9c>)
  4018be:	4798      	blx	r3
  4018c0:	4a0e      	ldr	r2, [pc, #56]	; (4018fc <ip_reass_free_complete_datagram+0xa0>)
  4018c2:	4628      	mov	r0, r5
  4018c4:	8813      	ldrh	r3, [r2, #0]
  4018c6:	1b5b      	subs	r3, r3, r5
  4018c8:	8013      	strh	r3, [r2, #0]
  4018ca:	e8bd 87f0 	ldmia.w	sp!, {r4, r5, r6, r7, r8, r9, sl, pc}
  4018ce:	2500      	movs	r5, #0
  4018d0:	e7e5      	b.n	40189e <ip_reass_free_complete_datagram+0x42>
  4018d2:	6873      	ldr	r3, [r6, #4]
  4018d4:	4630      	mov	r0, r6
  4018d6:	f8d3 a000 	ldr.w	sl, [r3]
  4018da:	47c0      	blx	r8
  4018dc:	4405      	add	r5, r0
  4018de:	4630      	mov	r0, r6
  4018e0:	47c8      	blx	r9
  4018e2:	4656      	mov	r6, sl
  4018e4:	b2ad      	uxth	r5, r5
  4018e6:	e7df      	b.n	4018a8 <ip_reass_free_complete_datagram+0x4c>
  4018e8:	0040131d 	.word	0x0040131d
  4018ec:	00402579 	.word	0x00402579
  4018f0:	004023b9 	.word	0x004023b9
  4018f4:	20400a8c 	.word	0x20400a8c
  4018f8:	00402215 	.word	0x00402215
  4018fc:	20400a8a 	.word	0x20400a8a

00401900 <ip_reass_remove_oldest_datagram>:
  401900:	e92d 43f8 	stmdb	sp!, {r3, r4, r5, r6, r7, r8, r9, lr}
  401904:	4606      	mov	r6, r0
  401906:	460f      	mov	r7, r1
  401908:	2500      	movs	r5, #0
  40190a:	f8df 8064 	ldr.w	r8, [pc, #100]	; 401970 <ip_reass_remove_oldest_datagram+0x70>
  40190e:	f8df 9064 	ldr.w	r9, [pc, #100]	; 401974 <ip_reass_remove_oldest_datagram+0x74>
  401912:	2400      	movs	r4, #0
  401914:	f8d8 3000 	ldr.w	r3, [r8]
  401918:	4621      	mov	r1, r4
  40191a:	4620      	mov	r0, r4
  40191c:	b94b      	cbnz	r3, 401932 <ip_reass_remove_oldest_datagram+0x32>
  40191e:	b108      	cbz	r0, 401924 <ip_reass_remove_oldest_datagram+0x24>
  401920:	47c8      	blx	r9
  401922:	4405      	add	r5, r0
  401924:	42bd      	cmp	r5, r7
  401926:	da01      	bge.n	40192c <ip_reass_remove_oldest_datagram+0x2c>
  401928:	2c01      	cmp	r4, #1
  40192a:	dcf2      	bgt.n	401912 <ip_reass_remove_oldest_datagram+0x12>
  40192c:	4628      	mov	r0, r5
  40192e:	e8bd 83f8 	ldmia.w	sp!, {r3, r4, r5, r6, r7, r8, r9, pc}
  401932:	f8d6 e00c 	ldr.w	lr, [r6, #12]
  401936:	695a      	ldr	r2, [r3, #20]
  401938:	4572      	cmp	r2, lr
  40193a:	d109      	bne.n	401950 <ip_reass_remove_oldest_datagram+0x50>
  40193c:	f8d6 e010 	ldr.w	lr, [r6, #16]
  401940:	699a      	ldr	r2, [r3, #24]
  401942:	4572      	cmp	r2, lr
  401944:	d104      	bne.n	401950 <ip_reass_remove_oldest_datagram+0x50>
  401946:	f8b3 e00c 	ldrh.w	lr, [r3, #12]
  40194a:	88b2      	ldrh	r2, [r6, #4]
  40194c:	4596      	cmp	lr, r2
  40194e:	d007      	beq.n	401960 <ip_reass_remove_oldest_datagram+0x60>
  401950:	3401      	adds	r4, #1
  401952:	b158      	cbz	r0, 40196c <ip_reass_remove_oldest_datagram+0x6c>
  401954:	f893 e01f 	ldrb.w	lr, [r3, #31]
  401958:	7fc2      	ldrb	r2, [r0, #31]
  40195a:	4596      	cmp	lr, r2
  40195c:	bf98      	it	ls
  40195e:	4618      	movls	r0, r3
  401960:	681a      	ldr	r2, [r3, #0]
  401962:	2a00      	cmp	r2, #0
  401964:	bf18      	it	ne
  401966:	4619      	movne	r1, r3
  401968:	4613      	mov	r3, r2
  40196a:	e7d7      	b.n	40191c <ip_reass_remove_oldest_datagram+0x1c>
  40196c:	4618      	mov	r0, r3
  40196e:	e7f7      	b.n	401960 <ip_reass_remove_oldest_datagram+0x60>
  401970:	20400a8c 	.word	0x20400a8c
  401974:	0040185d 	.word	0x0040185d

00401978 <ip_reass_tmr>:
  401978:	4b08      	ldr	r3, [pc, #32]	; (40199c <ip_reass_tmr+0x24>)
  40197a:	b570      	push	{r4, r5, r6, lr}
  40197c:	2400      	movs	r4, #0
  40197e:	6818      	ldr	r0, [r3, #0]
  401980:	4e07      	ldr	r6, [pc, #28]	; (4019a0 <ip_reass_tmr+0x28>)
  401982:	b900      	cbnz	r0, 401986 <ip_reass_tmr+0xe>
  401984:	bd70      	pop	{r4, r5, r6, pc}
  401986:	7fc3      	ldrb	r3, [r0, #31]
  401988:	6805      	ldr	r5, [r0, #0]
  40198a:	b123      	cbz	r3, 401996 <ip_reass_tmr+0x1e>
  40198c:	3b01      	subs	r3, #1
  40198e:	4604      	mov	r4, r0
  401990:	77c3      	strb	r3, [r0, #31]
  401992:	4628      	mov	r0, r5
  401994:	e7f5      	b.n	401982 <ip_reass_tmr+0xa>
  401996:	4621      	mov	r1, r4
  401998:	47b0      	blx	r6
  40199a:	e7fa      	b.n	401992 <ip_reass_tmr+0x1a>
  40199c:	20400a8c 	.word	0x20400a8c
  4019a0:	0040185d 	.word	0x0040185d

004019a4 <ip_reass>:
  4019a4:	e92d 4ff0 	stmdb	sp!, {r4, r5, r6, r7, r8, r9, sl, fp, lr}
  4019a8:	6844      	ldr	r4, [r0, #4]
  4019aa:	b085      	sub	sp, #20
  4019ac:	4605      	mov	r5, r0
  4019ae:	7823      	ldrb	r3, [r4, #0]
  4019b0:	f003 030f 	and.w	r3, r3, #15
  4019b4:	2b05      	cmp	r3, #5
  4019b6:	f040 8094 	bne.w	401ae2 <ip_reass+0x13e>
  4019ba:	4ead      	ldr	r6, [pc, #692]	; (401c70 <ip_reass+0x2cc>)
  4019bc:	88e0      	ldrh	r0, [r4, #6]
  4019be:	47b0      	blx	r6
  4019c0:	9001      	str	r0, [sp, #4]
  4019c2:	8860      	ldrh	r0, [r4, #2]
  4019c4:	47b0      	blx	r6
  4019c6:	f8df 92b8 	ldr.w	r9, [pc, #696]	; 401c80 <ip_reass+0x2dc>
  4019ca:	7823      	ldrb	r3, [r4, #0]
  4019cc:	9002      	str	r0, [sp, #8]
  4019ce:	4628      	mov	r0, r5
  4019d0:	f8df 82c4 	ldr.w	r8, [pc, #708]	; 401c98 <ip_reass+0x2f4>
  4019d4:	9303      	str	r3, [sp, #12]
  4019d6:	47c0      	blx	r8
  4019d8:	f8b9 3000 	ldrh.w	r3, [r9]
  4019dc:	4607      	mov	r7, r0
  4019de:	f8cd 8000 	str.w	r8, [sp]
  4019e2:	4403      	add	r3, r0
  4019e4:	2b0a      	cmp	r3, #10
  4019e6:	dc72      	bgt.n	401ace <ip_reass+0x12a>
  4019e8:	4aa2      	ldr	r2, [pc, #648]	; (401c74 <ip_reass+0x2d0>)
  4019ea:	f04f 0a00 	mov.w	sl, #0
  4019ee:	f8d2 8000 	ldr.w	r8, [r2]
  4019f2:	4691      	mov	r9, r2
  4019f4:	f1b8 0f00 	cmp.w	r8, #0
  4019f8:	d178      	bne.n	401aec <ip_reass+0x148>
  4019fa:	2005      	movs	r0, #5
  4019fc:	f8df b29c 	ldr.w	fp, [pc, #668]	; 401c9c <ip_reass+0x2f8>
  401a00:	47d8      	blx	fp
  401a02:	4680      	mov	r8, r0
  401a04:	b950      	cbnz	r0, 401a1c <ip_reass+0x78>
  401a06:	4639      	mov	r1, r7
  401a08:	4620      	mov	r0, r4
  401a0a:	4b9b      	ldr	r3, [pc, #620]	; (401c78 <ip_reass+0x2d4>)
  401a0c:	4798      	blx	r3
  401a0e:	4287      	cmp	r7, r0
  401a10:	dc67      	bgt.n	401ae2 <ip_reass+0x13e>
  401a12:	2005      	movs	r0, #5
  401a14:	47d8      	blx	fp
  401a16:	4680      	mov	r8, r0
  401a18:	2800      	cmp	r0, #0
  401a1a:	d062      	beq.n	401ae2 <ip_reass+0x13e>
  401a1c:	2220      	movs	r2, #32
  401a1e:	2100      	movs	r1, #0
  401a20:	4640      	mov	r0, r8
  401a22:	4b96      	ldr	r3, [pc, #600]	; (401c7c <ip_reass+0x2d8>)
  401a24:	4798      	blx	r3
  401a26:	2203      	movs	r2, #3
  401a28:	f108 0108 	add.w	r1, r8, #8
  401a2c:	f104 0014 	add.w	r0, r4, #20
  401a30:	f888 201f 	strb.w	r2, [r8, #31]
  401a34:	f8d9 2000 	ldr.w	r2, [r9]
  401a38:	f8c9 8000 	str.w	r8, [r9]
  401a3c:	f8c8 2000 	str.w	r2, [r8]
  401a40:	4622      	mov	r2, r4
  401a42:	f852 eb04 	ldr.w	lr, [r2], #4
  401a46:	4282      	cmp	r2, r0
  401a48:	f841 eb04 	str.w	lr, [r1], #4
  401a4c:	d1f9      	bne.n	401a42 <ip_reass+0x9e>
  401a4e:	4a8c      	ldr	r2, [pc, #560]	; (401c80 <ip_reass+0x2dc>)
  401a50:	8811      	ldrh	r1, [r2, #0]
  401a52:	440f      	add	r7, r1
  401a54:	8017      	strh	r7, [r2, #0]
  401a56:	88e1      	ldrh	r1, [r4, #6]
  401a58:	4614      	mov	r4, r2
  401a5a:	f011 0f20 	tst.w	r1, #32
  401a5e:	d110      	bne.n	401a82 <ip_reass+0xde>
  401a60:	f898 201e 	ldrb.w	r2, [r8, #30]
  401a64:	9b03      	ldr	r3, [sp, #12]
  401a66:	f042 0201 	orr.w	r2, r2, #1
  401a6a:	f888 201e 	strb.w	r2, [r8, #30]
  401a6e:	f003 020f 	and.w	r2, r3, #15
  401a72:	9b02      	ldr	r3, [sp, #8]
  401a74:	eba3 0282 	sub.w	r2, r3, r2, lsl #2
  401a78:	9b01      	ldr	r3, [sp, #4]
  401a7a:	eb02 02c3 	add.w	r2, r2, r3, lsl #3
  401a7e:	f8a8 201c 	strh.w	r2, [r8, #28]
  401a82:	f8d5 9004 	ldr.w	r9, [r5, #4]
  401a86:	f8b9 0002 	ldrh.w	r0, [r9, #2]
  401a8a:	47b0      	blx	r6
  401a8c:	f899 7000 	ldrb.w	r7, [r9]
  401a90:	f007 070f 	and.w	r7, r7, #15
  401a94:	eba0 0787 	sub.w	r7, r0, r7, lsl #2
  401a98:	f8b9 0006 	ldrh.w	r0, [r9, #6]
  401a9c:	47b0      	blx	r6
  401a9e:	f3c0 000c 	ubfx	r0, r0, #0, #13
  401aa2:	b2bf      	uxth	r7, r7
  401aa4:	6869      	ldr	r1, [r5, #4]
  401aa6:	00c0      	lsls	r0, r0, #3
  401aa8:	2200      	movs	r2, #0
  401aaa:	2301      	movs	r3, #1
  401aac:	4407      	add	r7, r0
  401aae:	700a      	strb	r2, [r1, #0]
  401ab0:	704a      	strb	r2, [r1, #1]
  401ab2:	b2bf      	uxth	r7, r7
  401ab4:	708a      	strb	r2, [r1, #2]
  401ab6:	70ca      	strb	r2, [r1, #3]
  401ab8:	8088      	strh	r0, [r1, #4]
  401aba:	80cf      	strh	r7, [r1, #6]
  401abc:	f8d8 6004 	ldr.w	r6, [r8, #4]
  401ac0:	bb46      	cbnz	r6, 401b14 <ip_reass+0x170>
  401ac2:	2a00      	cmp	r2, #0
  401ac4:	f040 8095 	bne.w	401bf2 <ip_reass+0x24e>
  401ac8:	f8c8 5004 	str.w	r5, [r8, #4]
  401acc:	e033      	b.n	401b36 <ip_reass+0x192>
  401ace:	4601      	mov	r1, r0
  401ad0:	4b69      	ldr	r3, [pc, #420]	; (401c78 <ip_reass+0x2d4>)
  401ad2:	4620      	mov	r0, r4
  401ad4:	4798      	blx	r3
  401ad6:	b120      	cbz	r0, 401ae2 <ip_reass+0x13e>
  401ad8:	f8b9 3000 	ldrh.w	r3, [r9]
  401adc:	443b      	add	r3, r7
  401ade:	2b0a      	cmp	r3, #10
  401ae0:	dd82      	ble.n	4019e8 <ip_reass+0x44>
  401ae2:	4628      	mov	r0, r5
  401ae4:	4b67      	ldr	r3, [pc, #412]	; (401c84 <ip_reass+0x2e0>)
  401ae6:	4798      	blx	r3
  401ae8:	2500      	movs	r5, #0
  401aea:	e070      	b.n	401bce <ip_reass+0x22a>
  401aec:	68e2      	ldr	r2, [r4, #12]
  401aee:	f8d8 1014 	ldr.w	r1, [r8, #20]
  401af2:	4291      	cmp	r1, r2
  401af4:	d10a      	bne.n	401b0c <ip_reass+0x168>
  401af6:	6922      	ldr	r2, [r4, #16]
  401af8:	f8d8 1018 	ldr.w	r1, [r8, #24]
  401afc:	4291      	cmp	r1, r2
  401afe:	d105      	bne.n	401b0c <ip_reass+0x168>
  401b00:	f8b8 100c 	ldrh.w	r1, [r8, #12]
  401b04:	88a2      	ldrh	r2, [r4, #4]
  401b06:	4291      	cmp	r1, r2
  401b08:	f000 8096 	beq.w	401c38 <ip_reass+0x294>
  401b0c:	46c2      	mov	sl, r8
  401b0e:	f8d8 8000 	ldr.w	r8, [r8]
  401b12:	e76f      	b.n	4019f4 <ip_reass+0x50>
  401b14:	f8d6 c004 	ldr.w	ip, [r6, #4]
  401b18:	f8bc 9004 	ldrh.w	r9, [ip, #4]
  401b1c:	4548      	cmp	r0, r9
  401b1e:	d25a      	bcs.n	401bd6 <ip_reass+0x232>
  401b20:	600e      	str	r6, [r1, #0]
  401b22:	2a00      	cmp	r2, #0
  401b24:	d0d0      	beq.n	401ac8 <ip_reass+0x124>
  401b26:	88d6      	ldrh	r6, [r2, #6]
  401b28:	4286      	cmp	r6, r0
  401b2a:	d872      	bhi.n	401c12 <ip_reass+0x26e>
  401b2c:	f8bc 0004 	ldrh.w	r0, [ip, #4]
  401b30:	42b8      	cmp	r0, r7
  401b32:	d36e      	bcc.n	401c12 <ip_reass+0x26e>
  401b34:	6015      	str	r5, [r2, #0]
  401b36:	f898 201e 	ldrb.w	r2, [r8, #30]
  401b3a:	f012 0501 	ands.w	r5, r2, #1
  401b3e:	d046      	beq.n	401bce <ip_reass+0x22a>
  401b40:	2b00      	cmp	r3, #0
  401b42:	d0d1      	beq.n	401ae8 <ip_reass+0x144>
  401b44:	f8d8 5004 	ldr.w	r5, [r8, #4]
  401b48:	686a      	ldr	r2, [r5, #4]
  401b4a:	8892      	ldrh	r2, [r2, #4]
  401b4c:	2a00      	cmp	r2, #0
  401b4e:	d1cb      	bne.n	401ae8 <ip_reass+0x144>
  401b50:	680a      	ldr	r2, [r1, #0]
  401b52:	2a00      	cmp	r2, #0
  401b54:	d154      	bne.n	401c00 <ip_reass+0x25c>
  401b56:	f8b8 201c 	ldrh.w	r2, [r8, #28]
  401b5a:	f108 001c 	add.w	r0, r8, #28
  401b5e:	3214      	adds	r2, #20
  401b60:	f8a8 201c 	strh.w	r2, [r8, #28]
  401b64:	f108 0208 	add.w	r2, r8, #8
  401b68:	686d      	ldr	r5, [r5, #4]
  401b6a:	682e      	ldr	r6, [r5, #0]
  401b6c:	4629      	mov	r1, r5
  401b6e:	f852 7b04 	ldr.w	r7, [r2], #4
  401b72:	4282      	cmp	r2, r0
  401b74:	f841 7b04 	str.w	r7, [r1], #4
  401b78:	d1f9      	bne.n	401b6e <ip_reass+0x1ca>
  401b7a:	4a43      	ldr	r2, [pc, #268]	; (401c88 <ip_reass+0x2e4>)
  401b7c:	f8b8 001c 	ldrh.w	r0, [r8, #28]
  401b80:	4790      	blx	r2
  401b82:	2200      	movs	r2, #0
  401b84:	8068      	strh	r0, [r5, #2]
  401b86:	2114      	movs	r1, #20
  401b88:	71aa      	strb	r2, [r5, #6]
  401b8a:	4628      	mov	r0, r5
  401b8c:	71ea      	strb	r2, [r5, #7]
  401b8e:	72aa      	strb	r2, [r5, #10]
  401b90:	72ea      	strb	r2, [r5, #11]
  401b92:	4a3e      	ldr	r2, [pc, #248]	; (401c8c <ip_reass+0x2e8>)
  401b94:	4790      	blx	r2
  401b96:	4f3e      	ldr	r7, [pc, #248]	; (401c90 <ip_reass+0x2ec>)
  401b98:	8168      	strh	r0, [r5, #10]
  401b9a:	f8df 9104 	ldr.w	r9, [pc, #260]	; 401ca0 <ip_reass+0x2fc>
  401b9e:	f8d8 5004 	ldr.w	r5, [r8, #4]
  401ba2:	2e00      	cmp	r6, #0
  401ba4:	d13c      	bne.n	401c20 <ip_reass+0x27c>
  401ba6:	4933      	ldr	r1, [pc, #204]	; (401c74 <ip_reass+0x2d0>)
  401ba8:	2005      	movs	r0, #5
  401baa:	4b3a      	ldr	r3, [pc, #232]	; (401c94 <ip_reass+0x2f0>)
  401bac:	680a      	ldr	r2, [r1, #0]
  401bae:	4590      	cmp	r8, r2
  401bb0:	f8d8 2000 	ldr.w	r2, [r8]
  401bb4:	bf08      	it	eq
  401bb6:	600a      	streq	r2, [r1, #0]
  401bb8:	4641      	mov	r1, r8
  401bba:	bf18      	it	ne
  401bbc:	f8ca 2000 	strne.w	r2, [sl]
  401bc0:	4798      	blx	r3
  401bc2:	9b00      	ldr	r3, [sp, #0]
  401bc4:	4628      	mov	r0, r5
  401bc6:	4798      	blx	r3
  401bc8:	8823      	ldrh	r3, [r4, #0]
  401bca:	1a18      	subs	r0, r3, r0
  401bcc:	8020      	strh	r0, [r4, #0]
  401bce:	4628      	mov	r0, r5
  401bd0:	b005      	add	sp, #20
  401bd2:	e8bd 8ff0 	ldmia.w	sp!, {r4, r5, r6, r7, r8, r9, sl, fp, pc}
  401bd6:	d01c      	beq.n	401c12 <ip_reass+0x26e>
  401bd8:	f8bc 6006 	ldrh.w	r6, [ip, #6]
  401bdc:	4286      	cmp	r6, r0
  401bde:	d818      	bhi.n	401c12 <ip_reass+0x26e>
  401be0:	b11a      	cbz	r2, 401bea <ip_reass+0x246>
  401be2:	88d2      	ldrh	r2, [r2, #6]
  401be4:	454a      	cmp	r2, r9
  401be6:	bf18      	it	ne
  401be8:	2300      	movne	r3, #0
  401bea:	f8dc 6000 	ldr.w	r6, [ip]
  401bee:	4662      	mov	r2, ip
  401bf0:	e766      	b.n	401ac0 <ip_reass+0x11c>
  401bf2:	88d0      	ldrh	r0, [r2, #6]
  401bf4:	6015      	str	r5, [r2, #0]
  401bf6:	888a      	ldrh	r2, [r1, #4]
  401bf8:	4290      	cmp	r0, r2
  401bfa:	bf18      	it	ne
  401bfc:	2300      	movne	r3, #0
  401bfe:	e79a      	b.n	401b36 <ip_reass+0x192>
  401c00:	6850      	ldr	r0, [r2, #4]
  401c02:	88c9      	ldrh	r1, [r1, #6]
  401c04:	8882      	ldrh	r2, [r0, #4]
  401c06:	4291      	cmp	r1, r2
  401c08:	f47f af6e 	bne.w	401ae8 <ip_reass+0x144>
  401c0c:	6802      	ldr	r2, [r0, #0]
  401c0e:	4601      	mov	r1, r0
  401c10:	e79f      	b.n	401b52 <ip_reass+0x1ae>
  401c12:	9b00      	ldr	r3, [sp, #0]
  401c14:	4628      	mov	r0, r5
  401c16:	4798      	blx	r3
  401c18:	8823      	ldrh	r3, [r4, #0]
  401c1a:	1a18      	subs	r0, r3, r0
  401c1c:	8020      	strh	r0, [r4, #0]
  401c1e:	e760      	b.n	401ae2 <ip_reass+0x13e>
  401c20:	f8d6 b004 	ldr.w	fp, [r6, #4]
  401c24:	f06f 0113 	mvn.w	r1, #19
  401c28:	4630      	mov	r0, r6
  401c2a:	47b8      	blx	r7
  401c2c:	4631      	mov	r1, r6
  401c2e:	4628      	mov	r0, r5
  401c30:	47c8      	blx	r9
  401c32:	f8db 6000 	ldr.w	r6, [fp]
  401c36:	e7b4      	b.n	401ba2 <ip_reass+0x1fe>
  401c38:	88e0      	ldrh	r0, [r4, #6]
  401c3a:	47b0      	blx	r6
  401c3c:	f3c0 000c 	ubfx	r0, r0, #0, #13
  401c40:	2800      	cmp	r0, #0
  401c42:	f47f af04 	bne.w	401a4e <ip_reass+0xaa>
  401c46:	f8b8 000e 	ldrh.w	r0, [r8, #14]
  401c4a:	47b0      	blx	r6
  401c4c:	f3c0 000c 	ubfx	r0, r0, #0, #13
  401c50:	2800      	cmp	r0, #0
  401c52:	f43f aefc 	beq.w	401a4e <ip_reass+0xaa>
  401c56:	4622      	mov	r2, r4
  401c58:	f108 0108 	add.w	r1, r8, #8
  401c5c:	f104 0014 	add.w	r0, r4, #20
  401c60:	f852 eb04 	ldr.w	lr, [r2], #4
  401c64:	4282      	cmp	r2, r0
  401c66:	f841 eb04 	str.w	lr, [r1], #4
  401c6a:	d1f9      	bne.n	401c60 <ip_reass+0x2bc>
  401c6c:	e6ef      	b.n	401a4e <ip_reass+0xaa>
  401c6e:	bf00      	nop
  401c70:	00401123 	.word	0x00401123
  401c74:	20400a8c 	.word	0x20400a8c
  401c78:	00401901 	.word	0x00401901
  401c7c:	004065d1 	.word	0x004065d1
  401c80:	20400a8a 	.word	0x20400a8a
  401c84:	004023b9 	.word	0x004023b9
  401c88:	0040111d 	.word	0x0040111d
  401c8c:	0040141d 	.word	0x0040141d
  401c90:	00402341 	.word	0x00402341
  401c94:	00402215 	.word	0x00402215
  401c98:	00402579 	.word	0x00402579
  401c9c:	004021d9 	.word	0x004021d9
  401ca0:	00402595 	.word	0x00402595

00401ca4 <ip_frag>:
  401ca4:	e92d 4ff0 	stmdb	sp!, {r4, r5, r6, r7, r8, r9, sl, fp, lr}
  401ca8:	b089      	sub	sp, #36	; 0x24
  401caa:	8c8b      	ldrh	r3, [r1, #36]	; 0x24
  401cac:	4682      	mov	sl, r0
  401cae:	468b      	mov	fp, r1
  401cb0:	9303      	str	r3, [sp, #12]
  401cb2:	6843      	ldr	r3, [r0, #4]
  401cb4:	9207      	str	r2, [sp, #28]
  401cb6:	9302      	str	r3, [sp, #8]
  401cb8:	88d8      	ldrh	r0, [r3, #6]
  401cba:	4b39      	ldr	r3, [pc, #228]	; (401da0 <ip_frag+0xfc>)
  401cbc:	4798      	blx	r3
  401cbe:	f400 5300 	and.w	r3, r0, #8192	; 0x2000
  401cc2:	2208      	movs	r2, #8
  401cc4:	f8ba 4008 	ldrh.w	r4, [sl, #8]
  401cc8:	9305      	str	r3, [sp, #20]
  401cca:	f3c0 090c 	ubfx	r9, r0, #0, #13
  401cce:	9b03      	ldr	r3, [sp, #12]
  401cd0:	3c14      	subs	r4, #20
  401cd2:	3b14      	subs	r3, #20
  401cd4:	b2a4      	uxth	r4, r4
  401cd6:	fb93 f3f2 	sdiv	r3, r3, r2
  401cda:	b29b      	uxth	r3, r3
  401cdc:	9304      	str	r3, [sp, #16]
  401cde:	00db      	lsls	r3, r3, #3
  401ce0:	b29b      	uxth	r3, r3
  401ce2:	9306      	str	r3, [sp, #24]
  401ce4:	2314      	movs	r3, #20
  401ce6:	9301      	str	r3, [sp, #4]
  401ce8:	b91c      	cbnz	r4, 401cf2 <ip_frag+0x4e>
  401cea:	4620      	mov	r0, r4
  401cec:	b009      	add	sp, #36	; 0x24
  401cee:	e8bd 8ff0 	ldmia.w	sp!, {r4, r5, r6, r7, r8, r9, sl, fp, pc}
  401cf2:	9b05      	ldr	r3, [sp, #20]
  401cf4:	f3c9 080c 	ubfx	r8, r9, #0, #13
  401cf8:	2200      	movs	r2, #0
  401cfa:	2001      	movs	r0, #1
  401cfc:	ea43 0808 	orr.w	r8, r3, r8
  401d00:	9b03      	ldr	r3, [sp, #12]
  401d02:	3b13      	subs	r3, #19
  401d04:	42a3      	cmp	r3, r4
  401d06:	4b27      	ldr	r3, [pc, #156]	; (401da4 <ip_frag+0x100>)
  401d08:	bfd6      	itet	le
  401d0a:	9e06      	ldrle	r6, [sp, #24]
  401d0c:	4626      	movgt	r6, r4
  401d0e:	f448 5800 	orrle.w	r8, r8, #8192	; 0x2000
  401d12:	4631      	mov	r1, r6
  401d14:	4798      	blx	r3
  401d16:	4605      	mov	r5, r0
  401d18:	b188      	cbz	r0, 401d3e <ip_frag+0x9a>
  401d1a:	6841      	ldr	r1, [r0, #4]
  401d1c:	4632      	mov	r2, r6
  401d1e:	9b01      	ldr	r3, [sp, #4]
  401d20:	4650      	mov	r0, sl
  401d22:	4f21      	ldr	r7, [pc, #132]	; (401da8 <ip_frag+0x104>)
  401d24:	47b8      	blx	r7
  401d26:	9b01      	ldr	r3, [sp, #4]
  401d28:	2114      	movs	r1, #20
  401d2a:	4403      	add	r3, r0
  401d2c:	4628      	mov	r0, r5
  401d2e:	b29b      	uxth	r3, r3
  401d30:	9301      	str	r3, [sp, #4]
  401d32:	4b1e      	ldr	r3, [pc, #120]	; (401dac <ip_frag+0x108>)
  401d34:	4798      	blx	r3
  401d36:	b128      	cbz	r0, 401d44 <ip_frag+0xa0>
  401d38:	4628      	mov	r0, r5
  401d3a:	4b1d      	ldr	r3, [pc, #116]	; (401db0 <ip_frag+0x10c>)
  401d3c:	4798      	blx	r3
  401d3e:	f04f 30ff 	mov.w	r0, #4294967295
  401d42:	e7d3      	b.n	401cec <ip_frag+0x48>
  401d44:	9b02      	ldr	r3, [sp, #8]
  401d46:	686a      	ldr	r2, [r5, #4]
  401d48:	4619      	mov	r1, r3
  401d4a:	3114      	adds	r1, #20
  401d4c:	f853 0b04 	ldr.w	r0, [r3], #4
  401d50:	428b      	cmp	r3, r1
  401d52:	f842 0b04 	str.w	r0, [r2], #4
  401d56:	d1f9      	bne.n	401d4c <ip_frag+0xa8>
  401d58:	686f      	ldr	r7, [r5, #4]
  401d5a:	4640      	mov	r0, r8
  401d5c:	f8df 8058 	ldr.w	r8, [pc, #88]	; 401db8 <ip_frag+0x114>
  401d60:	1ba4      	subs	r4, r4, r6
  401d62:	47c0      	blx	r8
  401d64:	80f8      	strh	r0, [r7, #6]
  401d66:	f106 0014 	add.w	r0, r6, #20
  401d6a:	b2a4      	uxth	r4, r4
  401d6c:	b280      	uxth	r0, r0
  401d6e:	47c0      	blx	r8
  401d70:	2200      	movs	r2, #0
  401d72:	8078      	strh	r0, [r7, #2]
  401d74:	2114      	movs	r1, #20
  401d76:	72ba      	strb	r2, [r7, #10]
  401d78:	4638      	mov	r0, r7
  401d7a:	72fa      	strb	r2, [r7, #11]
  401d7c:	4a0d      	ldr	r2, [pc, #52]	; (401db4 <ip_frag+0x110>)
  401d7e:	4790      	blx	r2
  401d80:	9a07      	ldr	r2, [sp, #28]
  401d82:	8178      	strh	r0, [r7, #10]
  401d84:	4629      	mov	r1, r5
  401d86:	f8db 3014 	ldr.w	r3, [fp, #20]
  401d8a:	4658      	mov	r0, fp
  401d8c:	4798      	blx	r3
  401d8e:	4b08      	ldr	r3, [pc, #32]	; (401db0 <ip_frag+0x10c>)
  401d90:	4628      	mov	r0, r5
  401d92:	4798      	blx	r3
  401d94:	9b04      	ldr	r3, [sp, #16]
  401d96:	444b      	add	r3, r9
  401d98:	fa1f f983 	uxth.w	r9, r3
  401d9c:	e7a4      	b.n	401ce8 <ip_frag+0x44>
  401d9e:	bf00      	nop
  401da0:	00401123 	.word	0x00401123
  401da4:	00402401 	.word	0x00402401
  401da8:	004026d1 	.word	0x004026d1
  401dac:	00402341 	.word	0x00402341
  401db0:	004023b9 	.word	0x004023b9
  401db4:	0040141d 	.word	0x0040141d
  401db8:	0040111d 	.word	0x0040111d

00401dbc <lwip_init>:
  401dbc:	b510      	push	{r4, lr}
  401dbe:	4b07      	ldr	r3, [pc, #28]	; (401ddc <lwip_init+0x20>)
  401dc0:	4798      	blx	r3
  401dc2:	4b07      	ldr	r3, [pc, #28]	; (401de0 <lwip_init+0x24>)
  401dc4:	4798      	blx	r3
  401dc6:	4b07      	ldr	r3, [pc, #28]	; (401de4 <lwip_init+0x28>)
  401dc8:	4798      	blx	r3
  401dca:	4b07      	ldr	r3, [pc, #28]	; (401de8 <lwip_init+0x2c>)
  401dcc:	4798      	blx	r3
  401dce:	4b07      	ldr	r3, [pc, #28]	; (401dec <lwip_init+0x30>)
  401dd0:	4798      	blx	r3
  401dd2:	4b07      	ldr	r3, [pc, #28]	; (401df0 <lwip_init+0x34>)
  401dd4:	e8bd 4010 	ldmia.w	sp!, {r4, lr}
  401dd8:	4718      	bx	r3
  401dda:	bf00      	nop
  401ddc:	00401f4d 	.word	0x00401f4d
  401de0:	0040217d 	.word	0x0040217d
  401de4:	00402229 	.word	0x00402229
  401de8:	00405429 	.word	0x00405429
  401dec:	00402835 	.word	0x00402835
  401df0:	00401ecd 	.word	0x00401ecd

00401df4 <sys_timeout>:
  401df4:	b570      	push	{r4, r5, r6, lr}
  401df6:	4b15      	ldr	r3, [pc, #84]	; (401e4c <sys_timeout+0x58>)
  401df8:	4604      	mov	r4, r0
  401dfa:	2006      	movs	r0, #6
  401dfc:	460e      	mov	r6, r1
  401dfe:	4615      	mov	r5, r2
  401e00:	4798      	blx	r3
  401e02:	b310      	cbz	r0, 401e4a <sys_timeout+0x56>
  401e04:	2300      	movs	r3, #0
  401e06:	4912      	ldr	r1, [pc, #72]	; (401e50 <sys_timeout+0x5c>)
  401e08:	6086      	str	r6, [r0, #8]
  401e0a:	6003      	str	r3, [r0, #0]
  401e0c:	680b      	ldr	r3, [r1, #0]
  401e0e:	60c5      	str	r5, [r0, #12]
  401e10:	6044      	str	r4, [r0, #4]
  401e12:	b90b      	cbnz	r3, 401e18 <sys_timeout+0x24>
  401e14:	6008      	str	r0, [r1, #0]
  401e16:	bd70      	pop	{r4, r5, r6, pc}
  401e18:	685a      	ldr	r2, [r3, #4]
  401e1a:	4294      	cmp	r4, r2
  401e1c:	d207      	bcs.n	401e2e <sys_timeout+0x3a>
  401e1e:	1b12      	subs	r2, r2, r4
  401e20:	605a      	str	r2, [r3, #4]
  401e22:	6003      	str	r3, [r0, #0]
  401e24:	e7f6      	b.n	401e14 <sys_timeout+0x20>
  401e26:	684c      	ldr	r4, [r1, #4]
  401e28:	42a2      	cmp	r2, r4
  401e2a:	d30b      	bcc.n	401e44 <sys_timeout+0x50>
  401e2c:	460b      	mov	r3, r1
  401e2e:	6859      	ldr	r1, [r3, #4]
  401e30:	6842      	ldr	r2, [r0, #4]
  401e32:	1a52      	subs	r2, r2, r1
  401e34:	6042      	str	r2, [r0, #4]
  401e36:	6819      	ldr	r1, [r3, #0]
  401e38:	2900      	cmp	r1, #0
  401e3a:	d1f4      	bne.n	401e26 <sys_timeout+0x32>
  401e3c:	681a      	ldr	r2, [r3, #0]
  401e3e:	6002      	str	r2, [r0, #0]
  401e40:	6018      	str	r0, [r3, #0]
  401e42:	bd70      	pop	{r4, r5, r6, pc}
  401e44:	1aa2      	subs	r2, r4, r2
  401e46:	604a      	str	r2, [r1, #4]
  401e48:	e7f8      	b.n	401e3c <sys_timeout+0x48>
  401e4a:	bd70      	pop	{r4, r5, r6, pc}
  401e4c:	004021d9 	.word	0x004021d9
  401e50:	20400a90 	.word	0x20400a90

00401e54 <tcp_timer_needed>:
  401e54:	4b08      	ldr	r3, [pc, #32]	; (401e78 <tcp_timer_needed+0x24>)
  401e56:	681a      	ldr	r2, [r3, #0]
  401e58:	b962      	cbnz	r2, 401e74 <tcp_timer_needed+0x20>
  401e5a:	4a08      	ldr	r2, [pc, #32]	; (401e7c <tcp_timer_needed+0x28>)
  401e5c:	6812      	ldr	r2, [r2, #0]
  401e5e:	b912      	cbnz	r2, 401e66 <tcp_timer_needed+0x12>
  401e60:	4a07      	ldr	r2, [pc, #28]	; (401e80 <tcp_timer_needed+0x2c>)
  401e62:	6812      	ldr	r2, [r2, #0]
  401e64:	b132      	cbz	r2, 401e74 <tcp_timer_needed+0x20>
  401e66:	2201      	movs	r2, #1
  401e68:	4906      	ldr	r1, [pc, #24]	; (401e84 <tcp_timer_needed+0x30>)
  401e6a:	20fa      	movs	r0, #250	; 0xfa
  401e6c:	601a      	str	r2, [r3, #0]
  401e6e:	2200      	movs	r2, #0
  401e70:	4b05      	ldr	r3, [pc, #20]	; (401e88 <tcp_timer_needed+0x34>)
  401e72:	4718      	bx	r3
  401e74:	4770      	bx	lr
  401e76:	bf00      	nop
  401e78:	20400a94 	.word	0x20400a94
  401e7c:	204049cc 	.word	0x204049cc
  401e80:	204049e0 	.word	0x204049e0
  401e84:	00401e8d 	.word	0x00401e8d
  401e88:	00401df5 	.word	0x00401df5

00401e8c <tcpip_tcp_timer>:
  401e8c:	4b09      	ldr	r3, [pc, #36]	; (401eb4 <tcpip_tcp_timer+0x28>)
  401e8e:	b510      	push	{r4, lr}
  401e90:	4798      	blx	r3
  401e92:	4b09      	ldr	r3, [pc, #36]	; (401eb8 <tcpip_tcp_timer+0x2c>)
  401e94:	681b      	ldr	r3, [r3, #0]
  401e96:	b913      	cbnz	r3, 401e9e <tcpip_tcp_timer+0x12>
  401e98:	4b08      	ldr	r3, [pc, #32]	; (401ebc <tcpip_tcp_timer+0x30>)
  401e9a:	681b      	ldr	r3, [r3, #0]
  401e9c:	b133      	cbz	r3, 401eac <tcpip_tcp_timer+0x20>
  401e9e:	2200      	movs	r2, #0
  401ea0:	4907      	ldr	r1, [pc, #28]	; (401ec0 <tcpip_tcp_timer+0x34>)
  401ea2:	20fa      	movs	r0, #250	; 0xfa
  401ea4:	4b07      	ldr	r3, [pc, #28]	; (401ec4 <tcpip_tcp_timer+0x38>)
  401ea6:	e8bd 4010 	ldmia.w	sp!, {r4, lr}
  401eaa:	4718      	bx	r3
  401eac:	4a06      	ldr	r2, [pc, #24]	; (401ec8 <tcpip_tcp_timer+0x3c>)
  401eae:	6013      	str	r3, [r2, #0]
  401eb0:	bd10      	pop	{r4, pc}
  401eb2:	bf00      	nop
  401eb4:	00403481 	.word	0x00403481
  401eb8:	204049cc 	.word	0x204049cc
  401ebc:	204049e0 	.word	0x204049e0
  401ec0:	00401e8d 	.word	0x00401e8d
  401ec4:	00401df5 	.word	0x00401df5
  401ec8:	20400a94 	.word	0x20400a94

00401ecc <sys_timeouts_init>:
  401ecc:	b510      	push	{r4, lr}
  401ece:	2200      	movs	r2, #0
  401ed0:	4907      	ldr	r1, [pc, #28]	; (401ef0 <sys_timeouts_init+0x24>)
  401ed2:	f44f 707a 	mov.w	r0, #1000	; 0x3e8
  401ed6:	4c07      	ldr	r4, [pc, #28]	; (401ef4 <sys_timeouts_init+0x28>)
  401ed8:	47a0      	blx	r4
  401eda:	2200      	movs	r2, #0
  401edc:	4906      	ldr	r1, [pc, #24]	; (401ef8 <sys_timeouts_init+0x2c>)
  401ede:	f241 3088 	movw	r0, #5000	; 0x1388
  401ee2:	47a0      	blx	r4
  401ee4:	4b05      	ldr	r3, [pc, #20]	; (401efc <sys_timeouts_init+0x30>)
  401ee6:	4798      	blx	r3
  401ee8:	4b05      	ldr	r3, [pc, #20]	; (401f00 <sys_timeouts_init+0x34>)
  401eea:	6018      	str	r0, [r3, #0]
  401eec:	bd10      	pop	{r4, pc}
  401eee:	bf00      	nop
  401ef0:	00401f29 	.word	0x00401f29
  401ef4:	00401df5 	.word	0x00401df5
  401ef8:	00401f05 	.word	0x00401f05
  401efc:	00406169 	.word	0x00406169
  401f00:	20400a98 	.word	0x20400a98

00401f04 <arp_timer>:
  401f04:	b510      	push	{r4, lr}
  401f06:	4b05      	ldr	r3, [pc, #20]	; (401f1c <arp_timer+0x18>)
  401f08:	4798      	blx	r3
  401f0a:	2200      	movs	r2, #0
  401f0c:	4904      	ldr	r1, [pc, #16]	; (401f20 <arp_timer+0x1c>)
  401f0e:	f241 3088 	movw	r0, #5000	; 0x1388
  401f12:	4b04      	ldr	r3, [pc, #16]	; (401f24 <arp_timer+0x20>)
  401f14:	e8bd 4010 	ldmia.w	sp!, {r4, lr}
  401f18:	4718      	bx	r3
  401f1a:	bf00      	nop
  401f1c:	004056c1 	.word	0x004056c1
  401f20:	00401f05 	.word	0x00401f05
  401f24:	00401df5 	.word	0x00401df5

00401f28 <ip_reass_timer>:
  401f28:	b510      	push	{r4, lr}
  401f2a:	4b05      	ldr	r3, [pc, #20]	; (401f40 <ip_reass_timer+0x18>)
  401f2c:	4798      	blx	r3
  401f2e:	2200      	movs	r2, #0
  401f30:	4904      	ldr	r1, [pc, #16]	; (401f44 <ip_reass_timer+0x1c>)
  401f32:	f44f 707a 	mov.w	r0, #1000	; 0x3e8
  401f36:	4b04      	ldr	r3, [pc, #16]	; (401f48 <ip_reass_timer+0x20>)
  401f38:	e8bd 4010 	ldmia.w	sp!, {r4, lr}
  401f3c:	4718      	bx	r3
  401f3e:	bf00      	nop
  401f40:	00401979 	.word	0x00401979
  401f44:	00401f29 	.word	0x00401f29
  401f48:	00401df5 	.word	0x00401df5

00401f4c <mem_init>:
  401f4c:	4b0a      	ldr	r3, [pc, #40]	; (401f78 <mem_init+0x2c>)
  401f4e:	f44f 5180 	mov.w	r1, #4096	; 0x1000
  401f52:	4a0a      	ldr	r2, [pc, #40]	; (401f7c <mem_init+0x30>)
  401f54:	f023 0303 	bic.w	r3, r3, #3
  401f58:	4809      	ldr	r0, [pc, #36]	; (401f80 <mem_init+0x34>)
  401f5a:	6013      	str	r3, [r2, #0]
  401f5c:	2200      	movs	r2, #0
  401f5e:	8019      	strh	r1, [r3, #0]
  401f60:	805a      	strh	r2, [r3, #2]
  401f62:	711a      	strb	r2, [r3, #4]
  401f64:	185a      	adds	r2, r3, r1
  401f66:	6002      	str	r2, [r0, #0]
  401f68:	2001      	movs	r0, #1
  401f6a:	8011      	strh	r1, [r2, #0]
  401f6c:	8051      	strh	r1, [r2, #2]
  401f6e:	7110      	strb	r0, [r2, #4]
  401f70:	4a04      	ldr	r2, [pc, #16]	; (401f84 <mem_init+0x38>)
  401f72:	6013      	str	r3, [r2, #0]
  401f74:	4770      	bx	lr
  401f76:	bf00      	nop
  401f78:	204039ab 	.word	0x204039ab
  401f7c:	20400aa0 	.word	0x20400aa0
  401f80:	20400aa4 	.word	0x20400aa4
  401f84:	20400a9c 	.word	0x20400a9c

00401f88 <mem_free>:
  401f88:	b5f0      	push	{r4, r5, r6, r7, lr}
  401f8a:	2800      	cmp	r0, #0
  401f8c:	d039      	beq.n	402002 <mem_free+0x7a>
  401f8e:	4b1d      	ldr	r3, [pc, #116]	; (402004 <mem_free+0x7c>)
  401f90:	681b      	ldr	r3, [r3, #0]
  401f92:	4298      	cmp	r0, r3
  401f94:	d335      	bcc.n	402002 <mem_free+0x7a>
  401f96:	4a1c      	ldr	r2, [pc, #112]	; (402008 <mem_free+0x80>)
  401f98:	6815      	ldr	r5, [r2, #0]
  401f9a:	42a8      	cmp	r0, r5
  401f9c:	d231      	bcs.n	402002 <mem_free+0x7a>
  401f9e:	2200      	movs	r2, #0
  401fa0:	f1a0 0608 	sub.w	r6, r0, #8
  401fa4:	f830 4c08 	ldrh.w	r4, [r0, #-8]
  401fa8:	f800 2c04 	strb.w	r2, [r0, #-4]
  401fac:	4a17      	ldr	r2, [pc, #92]	; (40200c <mem_free+0x84>)
  401fae:	6811      	ldr	r1, [r2, #0]
  401fb0:	428e      	cmp	r6, r1
  401fb2:	eb03 0104 	add.w	r1, r3, r4
  401fb6:	bf38      	it	cc
  401fb8:	6016      	strcc	r6, [r2, #0]
  401fba:	428e      	cmp	r6, r1
  401fbc:	d00f      	beq.n	401fde <mem_free+0x56>
  401fbe:	790f      	ldrb	r7, [r1, #4]
  401fc0:	b96f      	cbnz	r7, 401fde <mem_free+0x56>
  401fc2:	428d      	cmp	r5, r1
  401fc4:	d00b      	beq.n	401fde <mem_free+0x56>
  401fc6:	6815      	ldr	r5, [r2, #0]
  401fc8:	42a9      	cmp	r1, r5
  401fca:	5b19      	ldrh	r1, [r3, r4]
  401fcc:	f820 1c08 	strh.w	r1, [r0, #-8]
  401fd0:	5b19      	ldrh	r1, [r3, r4]
  401fd2:	eba6 0403 	sub.w	r4, r6, r3
  401fd6:	bf08      	it	eq
  401fd8:	6016      	streq	r6, [r2, #0]
  401fda:	4419      	add	r1, r3
  401fdc:	804c      	strh	r4, [r1, #2]
  401fde:	f830 1c06 	ldrh.w	r1, [r0, #-6]
  401fe2:	185c      	adds	r4, r3, r1
  401fe4:	42a6      	cmp	r6, r4
  401fe6:	d00c      	beq.n	402002 <mem_free+0x7a>
  401fe8:	7925      	ldrb	r5, [r4, #4]
  401fea:	b955      	cbnz	r5, 402002 <mem_free+0x7a>
  401fec:	6815      	ldr	r5, [r2, #0]
  401fee:	42ae      	cmp	r6, r5
  401ff0:	bf08      	it	eq
  401ff2:	6014      	streq	r4, [r2, #0]
  401ff4:	f830 2c08 	ldrh.w	r2, [r0, #-8]
  401ff8:	525a      	strh	r2, [r3, r1]
  401ffa:	f830 2c08 	ldrh.w	r2, [r0, #-8]
  401ffe:	4413      	add	r3, r2
  402000:	8059      	strh	r1, [r3, #2]
  402002:	bdf0      	pop	{r4, r5, r6, r7, pc}
  402004:	20400aa0 	.word	0x20400aa0
  402008:	20400aa4 	.word	0x20400aa4
  40200c:	20400a9c 	.word	0x20400a9c

00402010 <mem_trim>:
  402010:	3103      	adds	r1, #3
  402012:	f64f 73fc 	movw	r3, #65532	; 0xfffc
  402016:	400b      	ands	r3, r1
  402018:	2b0b      	cmp	r3, #11
  40201a:	b5f0      	push	{r4, r5, r6, r7, lr}
  40201c:	d904      	bls.n	402028 <mem_trim+0x18>
  40201e:	f5b3 5f80 	cmp.w	r3, #4096	; 0x1000
  402022:	d902      	bls.n	40202a <mem_trim+0x1a>
  402024:	2000      	movs	r0, #0
  402026:	bdf0      	pop	{r4, r5, r6, r7, pc}
  402028:	230c      	movs	r3, #12
  40202a:	4a22      	ldr	r2, [pc, #136]	; (4020b4 <mem_trim+0xa4>)
  40202c:	6812      	ldr	r2, [r2, #0]
  40202e:	4282      	cmp	r2, r0
  402030:	d8f9      	bhi.n	402026 <mem_trim+0x16>
  402032:	4921      	ldr	r1, [pc, #132]	; (4020b8 <mem_trim+0xa8>)
  402034:	6809      	ldr	r1, [r1, #0]
  402036:	4288      	cmp	r0, r1
  402038:	d2f5      	bcs.n	402026 <mem_trim+0x16>
  40203a:	f1a0 0108 	sub.w	r1, r0, #8
  40203e:	f830 5c08 	ldrh.w	r5, [r0, #-8]
  402042:	1a89      	subs	r1, r1, r2
  402044:	f1a5 0408 	sub.w	r4, r5, #8
  402048:	b289      	uxth	r1, r1
  40204a:	1a64      	subs	r4, r4, r1
  40204c:	b2a4      	uxth	r4, r4
  40204e:	429c      	cmp	r4, r3
  402050:	d3e8      	bcc.n	402024 <mem_trim+0x14>
  402052:	d0e8      	beq.n	402026 <mem_trim+0x16>
  402054:	1956      	adds	r6, r2, r5
  402056:	7937      	ldrb	r7, [r6, #4]
  402058:	b9c7      	cbnz	r7, 40208c <mem_trim+0x7c>
  40205a:	f101 0408 	add.w	r4, r1, #8
  40205e:	5b57      	ldrh	r7, [r2, r5]
  402060:	4d16      	ldr	r5, [pc, #88]	; (4020bc <mem_trim+0xac>)
  402062:	4423      	add	r3, r4
  402064:	682c      	ldr	r4, [r5, #0]
  402066:	b29b      	uxth	r3, r3
  402068:	42a6      	cmp	r6, r4
  40206a:	eb02 0403 	add.w	r4, r2, r3
  40206e:	bf08      	it	eq
  402070:	602c      	streq	r4, [r5, #0]
  402072:	2500      	movs	r5, #0
  402074:	7125      	strb	r5, [r4, #4]
  402076:	52d7      	strh	r7, [r2, r3]
  402078:	8061      	strh	r1, [r4, #2]
  40207a:	f820 3c08 	strh.w	r3, [r0, #-8]
  40207e:	5ad1      	ldrh	r1, [r2, r3]
  402080:	f5b1 5f80 	cmp.w	r1, #4096	; 0x1000
  402084:	d0cf      	beq.n	402026 <mem_trim+0x16>
  402086:	440a      	add	r2, r1
  402088:	8053      	strh	r3, [r2, #2]
  40208a:	bdf0      	pop	{r4, r5, r6, r7, pc}
  40208c:	f103 0514 	add.w	r5, r3, #20
  402090:	42a5      	cmp	r5, r4
  402092:	d8c8      	bhi.n	402026 <mem_trim+0x16>
  402094:	f101 0408 	add.w	r4, r1, #8
  402098:	4d08      	ldr	r5, [pc, #32]	; (4020bc <mem_trim+0xac>)
  40209a:	4423      	add	r3, r4
  40209c:	682e      	ldr	r6, [r5, #0]
  40209e:	b29b      	uxth	r3, r3
  4020a0:	18d4      	adds	r4, r2, r3
  4020a2:	42b4      	cmp	r4, r6
  4020a4:	bf38      	it	cc
  4020a6:	602c      	strcc	r4, [r5, #0]
  4020a8:	2500      	movs	r5, #0
  4020aa:	7125      	strb	r5, [r4, #4]
  4020ac:	f830 5c08 	ldrh.w	r5, [r0, #-8]
  4020b0:	52d5      	strh	r5, [r2, r3]
  4020b2:	e7e1      	b.n	402078 <mem_trim+0x68>
  4020b4:	20400aa0 	.word	0x20400aa0
  4020b8:	20400aa4 	.word	0x20400aa4
  4020bc:	20400a9c 	.word	0x20400a9c

004020c0 <mem_malloc>:
  4020c0:	e92d 43f0 	stmdb	sp!, {r4, r5, r6, r7, r8, r9, lr}
  4020c4:	b148      	cbz	r0, 4020da <mem_malloc+0x1a>
  4020c6:	3003      	adds	r0, #3
  4020c8:	f64f 73fc 	movw	r3, #65532	; 0xfffc
  4020cc:	4003      	ands	r3, r0
  4020ce:	2b0b      	cmp	r3, #11
  4020d0:	d905      	bls.n	4020de <mem_malloc+0x1e>
  4020d2:	f5b3 5f80 	cmp.w	r3, #4096	; 0x1000
  4020d6:	d903      	bls.n	4020e0 <mem_malloc+0x20>
  4020d8:	2000      	movs	r0, #0
  4020da:	e8bd 83f0 	ldmia.w	sp!, {r4, r5, r6, r7, r8, r9, pc}
  4020de:	230c      	movs	r3, #12
  4020e0:	4c23      	ldr	r4, [pc, #140]	; (402170 <mem_malloc+0xb0>)
  4020e2:	f5c3 5880 	rsb	r8, r3, #4096	; 0x1000
  4020e6:	4d23      	ldr	r5, [pc, #140]	; (402174 <mem_malloc+0xb4>)
  4020e8:	f06f 0907 	mvn.w	r9, #7
  4020ec:	6827      	ldr	r7, [r4, #0]
  4020ee:	6829      	ldr	r1, [r5, #0]
  4020f0:	1a7a      	subs	r2, r7, r1
  4020f2:	b292      	uxth	r2, r2
  4020f4:	4542      	cmp	r2, r8
  4020f6:	daef      	bge.n	4020d8 <mem_malloc+0x18>
  4020f8:	1888      	adds	r0, r1, r2
  4020fa:	f831 e002 	ldrh.w	lr, [r1, r2]
  4020fe:	f890 c004 	ldrb.w	ip, [r0, #4]
  402102:	f1bc 0f00 	cmp.w	ip, #0
  402106:	d130      	bne.n	40216a <mem_malloc+0xaa>
  402108:	eba9 0602 	sub.w	r6, r9, r2
  40210c:	4476      	add	r6, lr
  40210e:	429e      	cmp	r6, r3
  402110:	d32b      	bcc.n	40216a <mem_malloc+0xaa>
  402112:	f103 0e14 	add.w	lr, r3, #20
  402116:	4576      	cmp	r6, lr
  402118:	d321      	bcc.n	40215e <mem_malloc+0x9e>
  40211a:	3308      	adds	r3, #8
  40211c:	4413      	add	r3, r2
  40211e:	b29b      	uxth	r3, r3
  402120:	18ce      	adds	r6, r1, r3
  402122:	f886 c004 	strb.w	ip, [r6, #4]
  402126:	f8b0 e000 	ldrh.w	lr, [r0]
  40212a:	f821 e003 	strh.w	lr, [r1, r3]
  40212e:	8072      	strh	r2, [r6, #2]
  402130:	2201      	movs	r2, #1
  402132:	8003      	strh	r3, [r0, #0]
  402134:	7102      	strb	r2, [r0, #4]
  402136:	5aca      	ldrh	r2, [r1, r3]
  402138:	f5b2 5f80 	cmp.w	r2, #4096	; 0x1000
  40213c:	d001      	beq.n	402142 <mem_malloc+0x82>
  40213e:	4411      	add	r1, r2
  402140:	804b      	strh	r3, [r1, #2]
  402142:	4287      	cmp	r7, r0
  402144:	d108      	bne.n	402158 <mem_malloc+0x98>
  402146:	4b0c      	ldr	r3, [pc, #48]	; (402178 <mem_malloc+0xb8>)
  402148:	6829      	ldr	r1, [r5, #0]
  40214a:	681a      	ldr	r2, [r3, #0]
  40214c:	4603      	mov	r3, r0
  40214e:	791d      	ldrb	r5, [r3, #4]
  402150:	b10d      	cbz	r5, 402156 <mem_malloc+0x96>
  402152:	4293      	cmp	r3, r2
  402154:	d106      	bne.n	402164 <mem_malloc+0xa4>
  402156:	6023      	str	r3, [r4, #0]
  402158:	3008      	adds	r0, #8
  40215a:	e8bd 83f0 	ldmia.w	sp!, {r4, r5, r6, r7, r8, r9, pc}
  40215e:	2301      	movs	r3, #1
  402160:	7103      	strb	r3, [r0, #4]
  402162:	e7ee      	b.n	402142 <mem_malloc+0x82>
  402164:	881b      	ldrh	r3, [r3, #0]
  402166:	440b      	add	r3, r1
  402168:	e7f1      	b.n	40214e <mem_malloc+0x8e>
  40216a:	4672      	mov	r2, lr
  40216c:	e7c2      	b.n	4020f4 <mem_malloc+0x34>
  40216e:	bf00      	nop
  402170:	20400a9c 	.word	0x20400a9c
  402174:	20400aa0 	.word	0x20400aa0
  402178:	20400aa4 	.word	0x20400aa4

0040217c <memp_init>:
  40217c:	4a12      	ldr	r2, [pc, #72]	; (4021c8 <memp_init+0x4c>)
  40217e:	2300      	movs	r3, #0
  402180:	4812      	ldr	r0, [pc, #72]	; (4021cc <memp_init+0x50>)
  402182:	f022 0203 	bic.w	r2, r2, #3
  402186:	f8df c048 	ldr.w	ip, [pc, #72]	; 4021d0 <memp_init+0x54>
  40218a:	e92d 43f0 	stmdb	sp!, {r4, r5, r6, r7, r8, r9, lr}
  40218e:	461e      	mov	r6, r3
  402190:	f8df e040 	ldr.w	lr, [pc, #64]	; 4021d4 <memp_init+0x58>
  402194:	4604      	mov	r4, r0
  402196:	009d      	lsls	r5, r3, #2
  402198:	f83e 8013 	ldrh.w	r8, [lr, r3, lsl #1]
  40219c:	ea4f 0943 	mov.w	r9, r3, lsl #1
  4021a0:	2100      	movs	r1, #0
  4021a2:	f840 6023 	str.w	r6, [r0, r3, lsl #2]
  4021a6:	b28f      	uxth	r7, r1
  4021a8:	45b8      	cmp	r8, r7
  4021aa:	d804      	bhi.n	4021b6 <memp_init+0x3a>
  4021ac:	3301      	adds	r3, #1
  4021ae:	2b09      	cmp	r3, #9
  4021b0:	d1f1      	bne.n	402196 <memp_init+0x1a>
  4021b2:	e8bd 83f0 	ldmia.w	sp!, {r4, r5, r6, r7, r8, r9, pc}
  4021b6:	5967      	ldr	r7, [r4, r5]
  4021b8:	3101      	adds	r1, #1
  4021ba:	6017      	str	r7, [r2, #0]
  4021bc:	f839 700c 	ldrh.w	r7, [r9, ip]
  4021c0:	5162      	str	r2, [r4, r5]
  4021c2:	443a      	add	r2, r7
  4021c4:	e7ef      	b.n	4021a6 <memp_init+0x2a>
  4021c6:	bf00      	nop
  4021c8:	20400aab 	.word	0x20400aab
  4021cc:	204025fc 	.word	0x204025fc
  4021d0:	004095de 	.word	0x004095de
  4021d4:	004095cc 	.word	0x004095cc

004021d8 <memp_malloc>:
  4021d8:	2808      	cmp	r0, #8
  4021da:	b510      	push	{r4, lr}
  4021dc:	d907      	bls.n	4021ee <memp_malloc+0x16>
  4021de:	4b08      	ldr	r3, [pc, #32]	; (402200 <memp_malloc+0x28>)
  4021e0:	f44f 72c7 	mov.w	r2, #398	; 0x18e
  4021e4:	4907      	ldr	r1, [pc, #28]	; (402204 <memp_malloc+0x2c>)
  4021e6:	4808      	ldr	r0, [pc, #32]	; (402208 <memp_malloc+0x30>)
  4021e8:	4c08      	ldr	r4, [pc, #32]	; (40220c <memp_malloc+0x34>)
  4021ea:	47a0      	blx	r4
  4021ec:	e7fe      	b.n	4021ec <memp_malloc+0x14>
  4021ee:	4a08      	ldr	r2, [pc, #32]	; (402210 <memp_malloc+0x38>)
  4021f0:	f852 3020 	ldr.w	r3, [r2, r0, lsl #2]
  4021f4:	b113      	cbz	r3, 4021fc <memp_malloc+0x24>
  4021f6:	6819      	ldr	r1, [r3, #0]
  4021f8:	f842 1020 	str.w	r1, [r2, r0, lsl #2]
  4021fc:	4618      	mov	r0, r3
  4021fe:	bd10      	pop	{r4, pc}
  402200:	00409550 	.word	0x00409550
  402204:	00409586 	.word	0x00409586
  402208:	004095a3 	.word	0x004095a3
  40220c:	00406415 	.word	0x00406415
  402210:	204025fc 	.word	0x204025fc

00402214 <memp_free>:
  402214:	b129      	cbz	r1, 402222 <memp_free+0xe>
  402216:	4b03      	ldr	r3, [pc, #12]	; (402224 <memp_free+0x10>)
  402218:	f853 2020 	ldr.w	r2, [r3, r0, lsl #2]
  40221c:	600a      	str	r2, [r1, #0]
  40221e:	f843 1020 	str.w	r1, [r3, r0, lsl #2]
  402222:	4770      	bx	lr
  402224:	204025fc 	.word	0x204025fc

00402228 <netif_init>:
  402228:	4770      	bx	lr
	...

0040222c <netif_set_ipaddr>:
  40222c:	b5f8      	push	{r3, r4, r5, r6, r7, lr}
  40222e:	4605      	mov	r5, r0
  402230:	460c      	mov	r4, r1
  402232:	b159      	cbz	r1, 40224c <netif_set_ipaddr+0x20>
  402234:	680a      	ldr	r2, [r1, #0]
  402236:	6843      	ldr	r3, [r0, #4]
  402238:	429a      	cmp	r2, r3
  40223a:	d006      	beq.n	40224a <netif_set_ipaddr+0x1e>
  40223c:	4b0d      	ldr	r3, [pc, #52]	; (402274 <netif_set_ipaddr+0x48>)
  40223e:	4f0e      	ldr	r7, [pc, #56]	; (402278 <netif_set_ipaddr+0x4c>)
  402240:	6818      	ldr	r0, [r3, #0]
  402242:	b928      	cbnz	r0, 402250 <netif_set_ipaddr+0x24>
  402244:	4b0d      	ldr	r3, [pc, #52]	; (40227c <netif_set_ipaddr+0x50>)
  402246:	681b      	ldr	r3, [r3, #0]
  402248:	b953      	cbnz	r3, 402260 <netif_set_ipaddr+0x34>
  40224a:	6824      	ldr	r4, [r4, #0]
  40224c:	606c      	str	r4, [r5, #4]
  40224e:	bdf8      	pop	{r3, r4, r5, r6, r7, pc}
  402250:	6802      	ldr	r2, [r0, #0]
  402252:	686b      	ldr	r3, [r5, #4]
  402254:	68c6      	ldr	r6, [r0, #12]
  402256:	429a      	cmp	r2, r3
  402258:	d100      	bne.n	40225c <netif_set_ipaddr+0x30>
  40225a:	47b8      	blx	r7
  40225c:	4630      	mov	r0, r6
  40225e:	e7f0      	b.n	402242 <netif_set_ipaddr+0x16>
  402260:	681a      	ldr	r2, [r3, #0]
  402262:	b122      	cbz	r2, 40226e <netif_set_ipaddr+0x42>
  402264:	6869      	ldr	r1, [r5, #4]
  402266:	428a      	cmp	r2, r1
  402268:	bf04      	itt	eq
  40226a:	6822      	ldreq	r2, [r4, #0]
  40226c:	601a      	streq	r2, [r3, #0]
  40226e:	68db      	ldr	r3, [r3, #12]
  402270:	e7ea      	b.n	402248 <netif_set_ipaddr+0x1c>
  402272:	bf00      	nop
  402274:	204049cc 	.word	0x204049cc
  402278:	00403161 	.word	0x00403161
  40227c:	204049d4 	.word	0x204049d4

00402280 <netif_set_addr>:
  402280:	b570      	push	{r4, r5, r6, lr}
  402282:	4615      	mov	r5, r2
  402284:	461c      	mov	r4, r3
  402286:	4b05      	ldr	r3, [pc, #20]	; (40229c <netif_set_addr+0x1c>)
  402288:	4606      	mov	r6, r0
  40228a:	4798      	blx	r3
  40228c:	b105      	cbz	r5, 402290 <netif_set_addr+0x10>
  40228e:	682d      	ldr	r5, [r5, #0]
  402290:	60b5      	str	r5, [r6, #8]
  402292:	b104      	cbz	r4, 402296 <netif_set_addr+0x16>
  402294:	6824      	ldr	r4, [r4, #0]
  402296:	60f4      	str	r4, [r6, #12]
  402298:	bd70      	pop	{r4, r5, r6, pc}
  40229a:	bf00      	nop
  40229c:	0040222d 	.word	0x0040222d

004022a0 <netif_add>:
  4022a0:	b5f8      	push	{r3, r4, r5, r6, r7, lr}
  4022a2:	9e06      	ldr	r6, [sp, #24]
  4022a4:	2500      	movs	r5, #0
  4022a6:	4f10      	ldr	r7, [pc, #64]	; (4022e8 <netif_add+0x48>)
  4022a8:	4604      	mov	r4, r0
  4022aa:	6206      	str	r6, [r0, #32]
  4022ac:	783e      	ldrb	r6, [r7, #0]
  4022ae:	6045      	str	r5, [r0, #4]
  4022b0:	f106 0e01 	add.w	lr, r6, #1
  4022b4:	f880 6030 	strb.w	r6, [r0, #48]	; 0x30
  4022b8:	9e08      	ldr	r6, [sp, #32]
  4022ba:	6085      	str	r5, [r0, #8]
  4022bc:	6106      	str	r6, [r0, #16]
  4022be:	60c5      	str	r5, [r0, #12]
  4022c0:	f880 502d 	strb.w	r5, [r0, #45]	; 0x2d
  4022c4:	61c5      	str	r5, [r0, #28]
  4022c6:	4e09      	ldr	r6, [pc, #36]	; (4022ec <netif_add+0x4c>)
  4022c8:	f887 e000 	strb.w	lr, [r7]
  4022cc:	47b0      	blx	r6
  4022ce:	4620      	mov	r0, r4
  4022d0:	9b07      	ldr	r3, [sp, #28]
  4022d2:	4798      	blx	r3
  4022d4:	b928      	cbnz	r0, 4022e2 <netif_add+0x42>
  4022d6:	4b06      	ldr	r3, [pc, #24]	; (4022f0 <netif_add+0x50>)
  4022d8:	681a      	ldr	r2, [r3, #0]
  4022da:	6022      	str	r2, [r4, #0]
  4022dc:	601c      	str	r4, [r3, #0]
  4022de:	4620      	mov	r0, r4
  4022e0:	bdf8      	pop	{r3, r4, r5, r6, r7, pc}
  4022e2:	462c      	mov	r4, r5
  4022e4:	e7fb      	b.n	4022de <netif_add+0x3e>
  4022e6:	bf00      	nop
  4022e8:	20402620 	.word	0x20402620
  4022ec:	00402281 	.word	0x00402281
  4022f0:	204049bc 	.word	0x204049bc

004022f4 <netif_set_default>:
  4022f4:	4b01      	ldr	r3, [pc, #4]	; (4022fc <netif_set_default+0x8>)
  4022f6:	6018      	str	r0, [r3, #0]
  4022f8:	4770      	bx	lr
  4022fa:	bf00      	nop
  4022fc:	204049c0 	.word	0x204049c0

00402300 <netif_set_up>:
  402300:	b510      	push	{r4, lr}
  402302:	f890 302d 	ldrb.w	r3, [r0, #45]	; 0x2d
  402306:	4604      	mov	r4, r0
  402308:	07da      	lsls	r2, r3, #31
  40230a:	d412      	bmi.n	402332 <netif_set_up+0x32>
  40230c:	f043 0301 	orr.w	r3, r3, #1
  402310:	f880 302d 	strb.w	r3, [r0, #45]	; 0x2d
  402314:	69c3      	ldr	r3, [r0, #28]
  402316:	b103      	cbz	r3, 40231a <netif_set_up+0x1a>
  402318:	4798      	blx	r3
  40231a:	f894 302d 	ldrb.w	r3, [r4, #45]	; 0x2d
  40231e:	f003 0330 	and.w	r3, r3, #48	; 0x30
  402322:	2b30      	cmp	r3, #48	; 0x30
  402324:	d105      	bne.n	402332 <netif_set_up+0x32>
  402326:	1d21      	adds	r1, r4, #4
  402328:	4620      	mov	r0, r4
  40232a:	4b02      	ldr	r3, [pc, #8]	; (402334 <netif_set_up+0x34>)
  40232c:	e8bd 4010 	ldmia.w	sp!, {r4, lr}
  402330:	4718      	bx	r3
  402332:	bd10      	pop	{r4, pc}
  402334:	00405701 	.word	0x00405701

00402338 <netif_set_status_callback>:
  402338:	b100      	cbz	r0, 40233c <netif_set_status_callback+0x4>
  40233a:	61c1      	str	r1, [r0, #28]
  40233c:	4770      	bx	lr
	...

00402340 <pbuf_header>:
  402340:	b510      	push	{r4, lr}
  402342:	b319      	cbz	r1, 40238c <pbuf_header+0x4c>
  402344:	2800      	cmp	r0, #0
  402346:	d02e      	beq.n	4023a6 <pbuf_header+0x66>
  402348:	2900      	cmp	r1, #0
  40234a:	da0c      	bge.n	402366 <pbuf_header+0x26>
  40234c:	424a      	negs	r2, r1
  40234e:	8943      	ldrh	r3, [r0, #10]
  402350:	b292      	uxth	r2, r2
  402352:	4293      	cmp	r3, r2
  402354:	d208      	bcs.n	402368 <pbuf_header+0x28>
  402356:	4b14      	ldr	r3, [pc, #80]	; (4023a8 <pbuf_header+0x68>)
  402358:	f240 220f 	movw	r2, #527	; 0x20f
  40235c:	4913      	ldr	r1, [pc, #76]	; (4023ac <pbuf_header+0x6c>)
  40235e:	4814      	ldr	r0, [pc, #80]	; (4023b0 <pbuf_header+0x70>)
  402360:	4c14      	ldr	r4, [pc, #80]	; (4023b4 <pbuf_header+0x74>)
  402362:	47a0      	blx	r4
  402364:	e7fe      	b.n	402364 <pbuf_header+0x24>
  402366:	b28a      	uxth	r2, r1
  402368:	7b04      	ldrb	r4, [r0, #12]
  40236a:	6843      	ldr	r3, [r0, #4]
  40236c:	b10c      	cbz	r4, 402372 <pbuf_header+0x32>
  40236e:	2c03      	cmp	r4, #3
  402370:	d10e      	bne.n	402390 <pbuf_header+0x50>
  402372:	1a5b      	subs	r3, r3, r1
  402374:	f100 0210 	add.w	r2, r0, #16
  402378:	4293      	cmp	r3, r2
  40237a:	d313      	bcc.n	4023a4 <pbuf_header+0x64>
  40237c:	b289      	uxth	r1, r1
  40237e:	6043      	str	r3, [r0, #4]
  402380:	8943      	ldrh	r3, [r0, #10]
  402382:	440b      	add	r3, r1
  402384:	8143      	strh	r3, [r0, #10]
  402386:	8903      	ldrh	r3, [r0, #8]
  402388:	4419      	add	r1, r3
  40238a:	8101      	strh	r1, [r0, #8]
  40238c:	2000      	movs	r0, #0
  40238e:	bd10      	pop	{r4, pc}
  402390:	3c01      	subs	r4, #1
  402392:	2c01      	cmp	r4, #1
  402394:	d806      	bhi.n	4023a4 <pbuf_header+0x64>
  402396:	2900      	cmp	r1, #0
  402398:	da04      	bge.n	4023a4 <pbuf_header+0x64>
  40239a:	8944      	ldrh	r4, [r0, #10]
  40239c:	4294      	cmp	r4, r2
  40239e:	d301      	bcc.n	4023a4 <pbuf_header+0x64>
  4023a0:	1a5b      	subs	r3, r3, r1
  4023a2:	e7eb      	b.n	40237c <pbuf_header+0x3c>
  4023a4:	2001      	movs	r0, #1
  4023a6:	bd10      	pop	{r4, pc}
  4023a8:	004096cf 	.word	0x004096cf
  4023ac:	00409705 	.word	0x00409705
  4023b0:	004095a3 	.word	0x004095a3
  4023b4:	00406415 	.word	0x00406415

004023b8 <pbuf_free>:
  4023b8:	b5f8      	push	{r3, r4, r5, r6, r7, lr}
  4023ba:	4601      	mov	r1, r0
  4023bc:	b1d8      	cbz	r0, 4023f6 <pbuf_free+0x3e>
  4023be:	2400      	movs	r4, #0
  4023c0:	4e0d      	ldr	r6, [pc, #52]	; (4023f8 <pbuf_free+0x40>)
  4023c2:	4d0e      	ldr	r5, [pc, #56]	; (4023fc <pbuf_free+0x44>)
  4023c4:	b2e0      	uxtb	r0, r4
  4023c6:	b901      	cbnz	r1, 4023ca <pbuf_free+0x12>
  4023c8:	bdf8      	pop	{r3, r4, r5, r6, r7, pc}
  4023ca:	89cb      	ldrh	r3, [r1, #14]
  4023cc:	3b01      	subs	r3, #1
  4023ce:	b29b      	uxth	r3, r3
  4023d0:	81cb      	strh	r3, [r1, #14]
  4023d2:	b983      	cbnz	r3, 4023f6 <pbuf_free+0x3e>
  4023d4:	7b0b      	ldrb	r3, [r1, #12]
  4023d6:	680f      	ldr	r7, [r1, #0]
  4023d8:	2b03      	cmp	r3, #3
  4023da:	d104      	bne.n	4023e6 <pbuf_free+0x2e>
  4023dc:	2008      	movs	r0, #8
  4023de:	47a8      	blx	r5
  4023e0:	3401      	adds	r4, #1
  4023e2:	4639      	mov	r1, r7
  4023e4:	e7ee      	b.n	4023c4 <pbuf_free+0xc>
  4023e6:	3b01      	subs	r3, #1
  4023e8:	2b01      	cmp	r3, #1
  4023ea:	d801      	bhi.n	4023f0 <pbuf_free+0x38>
  4023ec:	2007      	movs	r0, #7
  4023ee:	e7f6      	b.n	4023de <pbuf_free+0x26>
  4023f0:	4608      	mov	r0, r1
  4023f2:	47b0      	blx	r6
  4023f4:	e7f4      	b.n	4023e0 <pbuf_free+0x28>
  4023f6:	bdf8      	pop	{r3, r4, r5, r6, r7, pc}
  4023f8:	00401f89 	.word	0x00401f89
  4023fc:	00402215 	.word	0x00402215

00402400 <pbuf_alloc>:
  402400:	e92d 47f0 	stmdb	sp!, {r4, r5, r6, r7, r8, r9, sl, lr}
  402404:	460e      	mov	r6, r1
  402406:	4617      	mov	r7, r2
  402408:	2803      	cmp	r0, #3
  40240a:	d844      	bhi.n	402496 <pbuf_alloc+0x96>
  40240c:	e8df f000 	tbb	[pc, r0]
  402410:	0b09020d 	.word	0x0b09020d
  402414:	2522      	movs	r5, #34	; 0x22
  402416:	2f03      	cmp	r7, #3
  402418:	d83d      	bhi.n	402496 <pbuf_alloc+0x96>
  40241a:	e8df f007 	tbb	[pc, r7]
  40241e:	6d54      	.short	0x6d54
  402420:	086d      	.short	0x086d
  402422:	250e      	movs	r5, #14
  402424:	e7f7      	b.n	402416 <pbuf_alloc+0x16>
  402426:	2500      	movs	r5, #0
  402428:	e7f5      	b.n	402416 <pbuf_alloc+0x16>
  40242a:	2536      	movs	r5, #54	; 0x36
  40242c:	e7f3      	b.n	402416 <pbuf_alloc+0x16>
  40242e:	4f39      	ldr	r7, [pc, #228]	; (402514 <pbuf_alloc+0x114>)
  402430:	2008      	movs	r0, #8
  402432:	47b8      	blx	r7
  402434:	4604      	mov	r4, r0
  402436:	46b8      	mov	r8, r7
  402438:	b928      	cbnz	r0, 402446 <pbuf_alloc+0x46>
  40243a:	2201      	movs	r2, #1
  40243c:	4b36      	ldr	r3, [pc, #216]	; (402518 <pbuf_alloc+0x118>)
  40243e:	701a      	strb	r2, [r3, #0]
  402440:	4620      	mov	r0, r4
  402442:	e8bd 87f0 	ldmia.w	sp!, {r4, r5, r6, r7, r8, r9, sl, pc}
  402446:	2203      	movs	r2, #3
  402448:	1943      	adds	r3, r0, r5
  40244a:	2700      	movs	r7, #0
  40244c:	4681      	mov	r9, r0
  40244e:	4415      	add	r5, r2
  402450:	3313      	adds	r3, #19
  402452:	4692      	mov	sl, r2
  402454:	7302      	strb	r2, [r0, #12]
  402456:	f025 0503 	bic.w	r5, r5, #3
  40245a:	f023 0303 	bic.w	r3, r3, #3
  40245e:	6007      	str	r7, [r0, #0]
  402460:	f5c5 65c0 	rsb	r5, r5, #1536	; 0x600
  402464:	6043      	str	r3, [r0, #4]
  402466:	2301      	movs	r3, #1
  402468:	8106      	strh	r6, [r0, #8]
  40246a:	42b5      	cmp	r5, r6
  40246c:	81c3      	strh	r3, [r0, #14]
  40246e:	bfa8      	it	ge
  402470:	4635      	movge	r5, r6
  402472:	8145      	strh	r5, [r0, #10]
  402474:	1b75      	subs	r5, r6, r5
  402476:	2d00      	cmp	r5, #0
  402478:	dc04      	bgt.n	402484 <pbuf_alloc+0x84>
  40247a:	2301      	movs	r3, #1
  40247c:	81e3      	strh	r3, [r4, #14]
  40247e:	2300      	movs	r3, #0
  402480:	7363      	strb	r3, [r4, #13]
  402482:	e7dd      	b.n	402440 <pbuf_alloc+0x40>
  402484:	2008      	movs	r0, #8
  402486:	47c0      	blx	r8
  402488:	b938      	cbnz	r0, 40249a <pbuf_alloc+0x9a>
  40248a:	4b23      	ldr	r3, [pc, #140]	; (402518 <pbuf_alloc+0x118>)
  40248c:	2201      	movs	r2, #1
  40248e:	4620      	mov	r0, r4
  402490:	701a      	strb	r2, [r3, #0]
  402492:	4b22      	ldr	r3, [pc, #136]	; (40251c <pbuf_alloc+0x11c>)
  402494:	4798      	blx	r3
  402496:	2400      	movs	r4, #0
  402498:	e7d2      	b.n	402440 <pbuf_alloc+0x40>
  40249a:	b2ab      	uxth	r3, r5
  40249c:	f100 0210 	add.w	r2, r0, #16
  4024a0:	f880 a00c 	strb.w	sl, [r0, #12]
  4024a4:	f5b3 6fc0 	cmp.w	r3, #1536	; 0x600
  4024a8:	7347      	strb	r7, [r0, #13]
  4024aa:	6007      	str	r7, [r0, #0]
  4024ac:	f8c9 0000 	str.w	r0, [r9]
  4024b0:	4681      	mov	r9, r0
  4024b2:	8103      	strh	r3, [r0, #8]
  4024b4:	bf28      	it	cs
  4024b6:	f44f 63c0 	movcs.w	r3, #1536	; 0x600
  4024ba:	6042      	str	r2, [r0, #4]
  4024bc:	2201      	movs	r2, #1
  4024be:	8143      	strh	r3, [r0, #10]
  4024c0:	1aed      	subs	r5, r5, r3
  4024c2:	81c2      	strh	r2, [r0, #14]
  4024c4:	e7d7      	b.n	402476 <pbuf_alloc+0x76>
  4024c6:	f105 0013 	add.w	r0, r5, #19
  4024ca:	1cf3      	adds	r3, r6, #3
  4024cc:	f020 0003 	bic.w	r0, r0, #3
  4024d0:	f023 0303 	bic.w	r3, r3, #3
  4024d4:	4418      	add	r0, r3
  4024d6:	4b12      	ldr	r3, [pc, #72]	; (402520 <pbuf_alloc+0x120>)
  4024d8:	b280      	uxth	r0, r0
  4024da:	4798      	blx	r3
  4024dc:	4604      	mov	r4, r0
  4024de:	2800      	cmp	r0, #0
  4024e0:	d0d9      	beq.n	402496 <pbuf_alloc+0x96>
  4024e2:	4405      	add	r5, r0
  4024e4:	2300      	movs	r3, #0
  4024e6:	8106      	strh	r6, [r0, #8]
  4024e8:	3513      	adds	r5, #19
  4024ea:	8146      	strh	r6, [r0, #10]
  4024ec:	6003      	str	r3, [r0, #0]
  4024ee:	f025 0503 	bic.w	r5, r5, #3
  4024f2:	7303      	strb	r3, [r0, #12]
  4024f4:	6045      	str	r5, [r0, #4]
  4024f6:	e7c0      	b.n	40247a <pbuf_alloc+0x7a>
  4024f8:	2007      	movs	r0, #7
  4024fa:	4b06      	ldr	r3, [pc, #24]	; (402514 <pbuf_alloc+0x114>)
  4024fc:	4798      	blx	r3
  4024fe:	4604      	mov	r4, r0
  402500:	2800      	cmp	r0, #0
  402502:	d0c8      	beq.n	402496 <pbuf_alloc+0x96>
  402504:	2300      	movs	r3, #0
  402506:	8106      	strh	r6, [r0, #8]
  402508:	8146      	strh	r6, [r0, #10]
  40250a:	6043      	str	r3, [r0, #4]
  40250c:	6003      	str	r3, [r0, #0]
  40250e:	7307      	strb	r7, [r0, #12]
  402510:	e7b3      	b.n	40247a <pbuf_alloc+0x7a>
  402512:	bf00      	nop
  402514:	004021d9 	.word	0x004021d9
  402518:	204049c4 	.word	0x204049c4
  40251c:	004023b9 	.word	0x004023b9
  402520:	004020c1 	.word	0x004020c1

00402524 <pbuf_realloc>:
  402524:	b538      	push	{r3, r4, r5, lr}
  402526:	8903      	ldrh	r3, [r0, #8]
  402528:	4604      	mov	r4, r0
  40252a:	428b      	cmp	r3, r1
  40252c:	d918      	bls.n	402560 <pbuf_realloc+0x3c>
  40252e:	460d      	mov	r5, r1
  402530:	1acb      	subs	r3, r1, r3
  402532:	8961      	ldrh	r1, [r4, #10]
  402534:	428d      	cmp	r5, r1
  402536:	d814      	bhi.n	402562 <pbuf_realloc+0x3e>
  402538:	7b23      	ldrb	r3, [r4, #12]
  40253a:	b94b      	cbnz	r3, 402550 <pbuf_realloc+0x2c>
  40253c:	428d      	cmp	r5, r1
  40253e:	d007      	beq.n	402550 <pbuf_realloc+0x2c>
  402540:	6861      	ldr	r1, [r4, #4]
  402542:	4620      	mov	r0, r4
  402544:	4b0a      	ldr	r3, [pc, #40]	; (402570 <pbuf_realloc+0x4c>)
  402546:	1b09      	subs	r1, r1, r4
  402548:	4429      	add	r1, r5
  40254a:	b289      	uxth	r1, r1
  40254c:	4798      	blx	r3
  40254e:	4604      	mov	r4, r0
  402550:	6820      	ldr	r0, [r4, #0]
  402552:	8165      	strh	r5, [r4, #10]
  402554:	8125      	strh	r5, [r4, #8]
  402556:	b108      	cbz	r0, 40255c <pbuf_realloc+0x38>
  402558:	4b06      	ldr	r3, [pc, #24]	; (402574 <pbuf_realloc+0x50>)
  40255a:	4798      	blx	r3
  40255c:	2300      	movs	r3, #0
  40255e:	6023      	str	r3, [r4, #0]
  402560:	bd38      	pop	{r3, r4, r5, pc}
  402562:	8922      	ldrh	r2, [r4, #8]
  402564:	1a6d      	subs	r5, r5, r1
  402566:	441a      	add	r2, r3
  402568:	b2ad      	uxth	r5, r5
  40256a:	8122      	strh	r2, [r4, #8]
  40256c:	6824      	ldr	r4, [r4, #0]
  40256e:	e7e0      	b.n	402532 <pbuf_realloc+0xe>
  402570:	00402011 	.word	0x00402011
  402574:	004023b9 	.word	0x004023b9

00402578 <pbuf_clen>:
  402578:	4603      	mov	r3, r0
  40257a:	2200      	movs	r2, #0
  40257c:	b2d0      	uxtb	r0, r2
  40257e:	3201      	adds	r2, #1
  402580:	b903      	cbnz	r3, 402584 <pbuf_clen+0xc>
  402582:	4770      	bx	lr
  402584:	681b      	ldr	r3, [r3, #0]
  402586:	e7f9      	b.n	40257c <pbuf_clen+0x4>

00402588 <pbuf_ref>:
  402588:	b110      	cbz	r0, 402590 <pbuf_ref+0x8>
  40258a:	89c3      	ldrh	r3, [r0, #14]
  40258c:	3301      	adds	r3, #1
  40258e:	81c3      	strh	r3, [r0, #14]
  402590:	4770      	bx	lr
	...

00402594 <pbuf_cat>:
  402594:	b510      	push	{r4, lr}
  402596:	b100      	cbz	r0, 40259a <pbuf_cat+0x6>
  402598:	b941      	cbnz	r1, 4025ac <pbuf_cat+0x18>
  40259a:	4b09      	ldr	r3, [pc, #36]	; (4025c0 <pbuf_cat+0x2c>)
  40259c:	f44f 723c 	mov.w	r2, #752	; 0x2f0
  4025a0:	4908      	ldr	r1, [pc, #32]	; (4025c4 <pbuf_cat+0x30>)
  4025a2:	4809      	ldr	r0, [pc, #36]	; (4025c8 <pbuf_cat+0x34>)
  4025a4:	4c09      	ldr	r4, [pc, #36]	; (4025cc <pbuf_cat+0x38>)
  4025a6:	47a0      	blx	r4
  4025a8:	e7fe      	b.n	4025a8 <pbuf_cat+0x14>
  4025aa:	4620      	mov	r0, r4
  4025ac:	8903      	ldrh	r3, [r0, #8]
  4025ae:	890a      	ldrh	r2, [r1, #8]
  4025b0:	6804      	ldr	r4, [r0, #0]
  4025b2:	4413      	add	r3, r2
  4025b4:	8103      	strh	r3, [r0, #8]
  4025b6:	2c00      	cmp	r4, #0
  4025b8:	d1f7      	bne.n	4025aa <pbuf_cat+0x16>
  4025ba:	6001      	str	r1, [r0, #0]
  4025bc:	bd10      	pop	{r4, pc}
  4025be:	bf00      	nop
  4025c0:	004096cf 	.word	0x004096cf
  4025c4:	004095f0 	.word	0x004095f0
  4025c8:	004095a3 	.word	0x004095a3
  4025cc:	00406415 	.word	0x00406415

004025d0 <pbuf_chain>:
  4025d0:	b510      	push	{r4, lr}
  4025d2:	460c      	mov	r4, r1
  4025d4:	4b03      	ldr	r3, [pc, #12]	; (4025e4 <pbuf_chain+0x14>)
  4025d6:	4798      	blx	r3
  4025d8:	4b03      	ldr	r3, [pc, #12]	; (4025e8 <pbuf_chain+0x18>)
  4025da:	4620      	mov	r0, r4
  4025dc:	e8bd 4010 	ldmia.w	sp!, {r4, lr}
  4025e0:	4718      	bx	r3
  4025e2:	bf00      	nop
  4025e4:	00402595 	.word	0x00402595
  4025e8:	00402589 	.word	0x00402589

004025ec <pbuf_copy>:
  4025ec:	e92d 43f8 	stmdb	sp!, {r3, r4, r5, r6, r7, r8, r9, lr}
  4025f0:	460c      	mov	r4, r1
  4025f2:	4605      	mov	r5, r0
  4025f4:	b120      	cbz	r0, 402600 <pbuf_copy+0x14>
  4025f6:	b119      	cbz	r1, 402600 <pbuf_copy+0x14>
  4025f8:	8902      	ldrh	r2, [r0, #8]
  4025fa:	890b      	ldrh	r3, [r1, #8]
  4025fc:	429a      	cmp	r2, r3
  4025fe:	d207      	bcs.n	402610 <pbuf_copy+0x24>
  402600:	4b2c      	ldr	r3, [pc, #176]	; (4026b4 <pbuf_copy+0xc8>)
  402602:	f240 325f 	movw	r2, #863	; 0x35f
  402606:	492c      	ldr	r1, [pc, #176]	; (4026b8 <pbuf_copy+0xcc>)
  402608:	482c      	ldr	r0, [pc, #176]	; (4026bc <pbuf_copy+0xd0>)
  40260a:	4c2d      	ldr	r4, [pc, #180]	; (4026c0 <pbuf_copy+0xd4>)
  40260c:	47a0      	blx	r4
  40260e:	e7fe      	b.n	40260e <pbuf_copy+0x22>
  402610:	f04f 0800 	mov.w	r8, #0
  402614:	f8df 90b4 	ldr.w	r9, [pc, #180]	; 4026cc <pbuf_copy+0xe0>
  402618:	4647      	mov	r7, r8
  40261a:	8963      	ldrh	r3, [r4, #10]
  40261c:	896e      	ldrh	r6, [r5, #10]
  40261e:	eba3 0308 	sub.w	r3, r3, r8
  402622:	6868      	ldr	r0, [r5, #4]
  402624:	1bf6      	subs	r6, r6, r7
  402626:	6861      	ldr	r1, [r4, #4]
  402628:	4438      	add	r0, r7
  40262a:	429e      	cmp	r6, r3
  40262c:	4441      	add	r1, r8
  40262e:	bfac      	ite	ge
  402630:	b29e      	uxthge	r6, r3
  402632:	b2b6      	uxthlt	r6, r6
  402634:	4632      	mov	r2, r6
  402636:	4437      	add	r7, r6
  402638:	4446      	add	r6, r8
  40263a:	47c8      	blx	r9
  40263c:	8963      	ldrh	r3, [r4, #10]
  40263e:	b2bf      	uxth	r7, r7
  402640:	fa1f f886 	uxth.w	r8, r6
  402644:	4543      	cmp	r3, r8
  402646:	896b      	ldrh	r3, [r5, #10]
  402648:	bf9c      	itt	ls
  40264a:	6824      	ldrls	r4, [r4, #0]
  40264c:	f04f 0800 	movls.w	r8, #0
  402650:	42bb      	cmp	r3, r7
  402652:	d11e      	bne.n	402692 <pbuf_copy+0xa6>
  402654:	682d      	ldr	r5, [r5, #0]
  402656:	b9dd      	cbnz	r5, 402690 <pbuf_copy+0xa4>
  402658:	b1bc      	cbz	r4, 40268a <pbuf_copy+0x9e>
  40265a:	4b16      	ldr	r3, [pc, #88]	; (4026b4 <pbuf_copy+0xc8>)
  40265c:	f240 327a 	movw	r2, #890	; 0x37a
  402660:	4918      	ldr	r1, [pc, #96]	; (4026c4 <pbuf_copy+0xd8>)
  402662:	4816      	ldr	r0, [pc, #88]	; (4026bc <pbuf_copy+0xd0>)
  402664:	4c16      	ldr	r4, [pc, #88]	; (4026c0 <pbuf_copy+0xd4>)
  402666:	47a0      	blx	r4
  402668:	e7fe      	b.n	402668 <pbuf_copy+0x7c>
  40266a:	8962      	ldrh	r2, [r4, #10]
  40266c:	8923      	ldrh	r3, [r4, #8]
  40266e:	429a      	cmp	r2, r3
  402670:	d111      	bne.n	402696 <pbuf_copy+0xaa>
  402672:	6823      	ldr	r3, [r4, #0]
  402674:	b17b      	cbz	r3, 402696 <pbuf_copy+0xaa>
  402676:	4b0f      	ldr	r3, [pc, #60]	; (4026b4 <pbuf_copy+0xc8>)
  402678:	f44f 7260 	mov.w	r2, #896	; 0x380
  40267c:	4912      	ldr	r1, [pc, #72]	; (4026c8 <pbuf_copy+0xdc>)
  40267e:	480f      	ldr	r0, [pc, #60]	; (4026bc <pbuf_copy+0xd0>)
  402680:	4c0f      	ldr	r4, [pc, #60]	; (4026c0 <pbuf_copy+0xd4>)
  402682:	47a0      	blx	r4
  402684:	e7fe      	b.n	402684 <pbuf_copy+0x98>
  402686:	2c00      	cmp	r4, #0
  402688:	d1c7      	bne.n	40261a <pbuf_copy+0x2e>
  40268a:	2000      	movs	r0, #0
  40268c:	e8bd 83f8 	ldmia.w	sp!, {r3, r4, r5, r6, r7, r8, r9, pc}
  402690:	2700      	movs	r7, #0
  402692:	2c00      	cmp	r4, #0
  402694:	d1e9      	bne.n	40266a <pbuf_copy+0x7e>
  402696:	896a      	ldrh	r2, [r5, #10]
  402698:	892b      	ldrh	r3, [r5, #8]
  40269a:	429a      	cmp	r2, r3
  40269c:	d1f3      	bne.n	402686 <pbuf_copy+0x9a>
  40269e:	682b      	ldr	r3, [r5, #0]
  4026a0:	2b00      	cmp	r3, #0
  4026a2:	d0f0      	beq.n	402686 <pbuf_copy+0x9a>
  4026a4:	4b03      	ldr	r3, [pc, #12]	; (4026b4 <pbuf_copy+0xc8>)
  4026a6:	f240 3285 	movw	r2, #901	; 0x385
  4026aa:	4907      	ldr	r1, [pc, #28]	; (4026c8 <pbuf_copy+0xdc>)
  4026ac:	4803      	ldr	r0, [pc, #12]	; (4026bc <pbuf_copy+0xd0>)
  4026ae:	4c04      	ldr	r4, [pc, #16]	; (4026c0 <pbuf_copy+0xd4>)
  4026b0:	47a0      	blx	r4
  4026b2:	e7fe      	b.n	4026b2 <pbuf_copy+0xc6>
  4026b4:	004096cf 	.word	0x004096cf
  4026b8:	00409625 	.word	0x00409625
  4026bc:	004095a3 	.word	0x004095a3
  4026c0:	00406415 	.word	0x00406415
  4026c4:	00409655 	.word	0x00409655
  4026c8:	00409662 	.word	0x00409662
  4026cc:	0040649d 	.word	0x0040649d

004026d0 <pbuf_copy_partial>:
  4026d0:	e92d 43f8 	stmdb	sp!, {r3, r4, r5, r6, r7, r8, r9, lr}
  4026d4:	4688      	mov	r8, r1
  4026d6:	4617      	mov	r7, r2
  4026d8:	4605      	mov	r5, r0
  4026da:	b938      	cbnz	r0, 4026ec <pbuf_copy_partial+0x1c>
  4026dc:	4b19      	ldr	r3, [pc, #100]	; (402744 <pbuf_copy_partial+0x74>)
  4026de:	f240 329f 	movw	r2, #927	; 0x39f
  4026e2:	4919      	ldr	r1, [pc, #100]	; (402748 <pbuf_copy_partial+0x78>)
  4026e4:	4819      	ldr	r0, [pc, #100]	; (40274c <pbuf_copy_partial+0x7c>)
  4026e6:	4c1a      	ldr	r4, [pc, #104]	; (402750 <pbuf_copy_partial+0x80>)
  4026e8:	47a0      	blx	r4
  4026ea:	e7fe      	b.n	4026ea <pbuf_copy_partial+0x1a>
  4026ec:	b139      	cbz	r1, 4026fe <pbuf_copy_partial+0x2e>
  4026ee:	2600      	movs	r6, #0
  4026f0:	f8df 9064 	ldr.w	r9, [pc, #100]	; 402758 <pbuf_copy_partial+0x88>
  4026f4:	b107      	cbz	r7, 4026f8 <pbuf_copy_partial+0x28>
  4026f6:	b955      	cbnz	r5, 40270e <pbuf_copy_partial+0x3e>
  4026f8:	4630      	mov	r0, r6
  4026fa:	e8bd 83f8 	ldmia.w	sp!, {r3, r4, r5, r6, r7, r8, r9, pc}
  4026fe:	4b11      	ldr	r3, [pc, #68]	; (402744 <pbuf_copy_partial+0x74>)
  402700:	f44f 7268 	mov.w	r2, #928	; 0x3a0
  402704:	4913      	ldr	r1, [pc, #76]	; (402754 <pbuf_copy_partial+0x84>)
  402706:	4811      	ldr	r0, [pc, #68]	; (40274c <pbuf_copy_partial+0x7c>)
  402708:	4c11      	ldr	r4, [pc, #68]	; (402750 <pbuf_copy_partial+0x80>)
  40270a:	47a0      	blx	r4
  40270c:	e7fe      	b.n	40270c <pbuf_copy_partial+0x3c>
  40270e:	b133      	cbz	r3, 40271e <pbuf_copy_partial+0x4e>
  402710:	8969      	ldrh	r1, [r5, #10]
  402712:	428b      	cmp	r3, r1
  402714:	d303      	bcc.n	40271e <pbuf_copy_partial+0x4e>
  402716:	1a5b      	subs	r3, r3, r1
  402718:	b29b      	uxth	r3, r3
  40271a:	682d      	ldr	r5, [r5, #0]
  40271c:	e7ea      	b.n	4026f4 <pbuf_copy_partial+0x24>
  40271e:	896c      	ldrh	r4, [r5, #10]
  402720:	eb08 0006 	add.w	r0, r8, r6
  402724:	6869      	ldr	r1, [r5, #4]
  402726:	1ae4      	subs	r4, r4, r3
  402728:	4419      	add	r1, r3
  40272a:	b2a4      	uxth	r4, r4
  40272c:	42bc      	cmp	r4, r7
  40272e:	bf28      	it	cs
  402730:	463c      	movcs	r4, r7
  402732:	4622      	mov	r2, r4
  402734:	4426      	add	r6, r4
  402736:	1b3c      	subs	r4, r7, r4
  402738:	47c8      	blx	r9
  40273a:	b2b6      	uxth	r6, r6
  40273c:	2300      	movs	r3, #0
  40273e:	b2a7      	uxth	r7, r4
  402740:	e7eb      	b.n	40271a <pbuf_copy_partial+0x4a>
  402742:	bf00      	nop
  402744:	004096cf 	.word	0x004096cf
  402748:	0040968d 	.word	0x0040968d
  40274c:	004095a3 	.word	0x004095a3
  402750:	00406415 	.word	0x00406415
  402754:	004096ac 	.word	0x004096ac
  402758:	0040649d 	.word	0x0040649d

0040275c <raw_input>:
  40275c:	e92d 4ff8 	stmdb	sp!, {r3, r4, r5, r6, r7, r8, r9, sl, fp, lr}
  402760:	4d1a      	ldr	r5, [pc, #104]	; (4027cc <raw_input+0x70>)
  402762:	4607      	mov	r7, r0
  402764:	6843      	ldr	r3, [r0, #4]
  402766:	2600      	movs	r6, #0
  402768:	682c      	ldr	r4, [r5, #0]
  40276a:	f893 8009 	ldrb.w	r8, [r3, #9]
  40276e:	f8df 9060 	ldr.w	r9, [pc, #96]	; 4027d0 <raw_input+0x74>
  402772:	f8df a060 	ldr.w	sl, [pc, #96]	; 4027d4 <raw_input+0x78>
  402776:	b914      	cbnz	r4, 40277e <raw_input+0x22>
  402778:	4620      	mov	r0, r4
  40277a:	e8bd 8ff8 	ldmia.w	sp!, {r3, r4, r5, r6, r7, r8, r9, sl, fp, pc}
  40277e:	7c23      	ldrb	r3, [r4, #16]
  402780:	4543      	cmp	r3, r8
  402782:	d11e      	bne.n	4027c2 <raw_input+0x66>
  402784:	6823      	ldr	r3, [r4, #0]
  402786:	b11b      	cbz	r3, 402790 <raw_input+0x34>
  402788:	f8da 2000 	ldr.w	r2, [sl]
  40278c:	4293      	cmp	r3, r2
  40278e:	d118      	bne.n	4027c2 <raw_input+0x66>
  402790:	f8d4 b014 	ldr.w	fp, [r4, #20]
  402794:	f1bb 0f00 	cmp.w	fp, #0
  402798:	d013      	beq.n	4027c2 <raw_input+0x66>
  40279a:	464b      	mov	r3, r9
  40279c:	463a      	mov	r2, r7
  40279e:	4621      	mov	r1, r4
  4027a0:	69a0      	ldr	r0, [r4, #24]
  4027a2:	47d8      	blx	fp
  4027a4:	b138      	cbz	r0, 4027b6 <raw_input+0x5a>
  4027a6:	b176      	cbz	r6, 4027c6 <raw_input+0x6a>
  4027a8:	68e3      	ldr	r3, [r4, #12]
  4027aa:	2001      	movs	r0, #1
  4027ac:	2700      	movs	r7, #0
  4027ae:	60f3      	str	r3, [r6, #12]
  4027b0:	682b      	ldr	r3, [r5, #0]
  4027b2:	602c      	str	r4, [r5, #0]
  4027b4:	60e3      	str	r3, [r4, #12]
  4027b6:	68e3      	ldr	r3, [r4, #12]
  4027b8:	4626      	mov	r6, r4
  4027ba:	2800      	cmp	r0, #0
  4027bc:	d1dd      	bne.n	40277a <raw_input+0x1e>
  4027be:	461c      	mov	r4, r3
  4027c0:	e7d9      	b.n	402776 <raw_input+0x1a>
  4027c2:	2000      	movs	r0, #0
  4027c4:	e7f7      	b.n	4027b6 <raw_input+0x5a>
  4027c6:	2001      	movs	r0, #1
  4027c8:	4637      	mov	r7, r6
  4027ca:	e7f4      	b.n	4027b6 <raw_input+0x5a>
  4027cc:	20402624 	.word	0x20402624
  4027d0:	20403998 	.word	0x20403998
  4027d4:	204039a0 	.word	0x204039a0

004027d8 <tcp_accept_null>:
  4027d8:	f06f 0009 	mvn.w	r0, #9
  4027dc:	4770      	bx	lr
	...

004027e0 <tcp_new_port>:
  4027e0:	4a12      	ldr	r2, [pc, #72]	; (40282c <tcp_new_port+0x4c>)
  4027e2:	f44f 4380 	mov.w	r3, #16384	; 0x4000
  4027e6:	b5f0      	push	{r4, r5, r6, r7, lr}
  4027e8:	f64f 75ff 	movw	r5, #65535	; 0xffff
  4027ec:	8810      	ldrh	r0, [r2, #0]
  4027ee:	4e10      	ldr	r6, [pc, #64]	; (402830 <tcp_new_port+0x50>)
  4027f0:	42a8      	cmp	r0, r5
  4027f2:	f04f 0100 	mov.w	r1, #0
  4027f6:	bf16      	itet	ne
  4027f8:	3001      	addne	r0, #1
  4027fa:	f44f 4040 	moveq.w	r0, #49152	; 0xc000
  4027fe:	b280      	uxthne	r0, r0
  402800:	f856 4021 	ldr.w	r4, [r6, r1, lsl #2]
  402804:	6824      	ldr	r4, [r4, #0]
  402806:	b924      	cbnz	r4, 402812 <tcp_new_port+0x32>
  402808:	3101      	adds	r1, #1
  40280a:	2904      	cmp	r1, #4
  40280c:	d1f8      	bne.n	402800 <tcp_new_port+0x20>
  40280e:	8010      	strh	r0, [r2, #0]
  402810:	bdf0      	pop	{r4, r5, r6, r7, pc}
  402812:	8b67      	ldrh	r7, [r4, #26]
  402814:	4287      	cmp	r7, r0
  402816:	d106      	bne.n	402826 <tcp_new_port+0x46>
  402818:	3b01      	subs	r3, #1
  40281a:	b29b      	uxth	r3, r3
  40281c:	2b00      	cmp	r3, #0
  40281e:	d1e7      	bne.n	4027f0 <tcp_new_port+0x10>
  402820:	8010      	strh	r0, [r2, #0]
  402822:	4618      	mov	r0, r3
  402824:	bdf0      	pop	{r4, r5, r6, r7, pc}
  402826:	68e4      	ldr	r4, [r4, #12]
  402828:	e7ed      	b.n	402806 <tcp_new_port+0x26>
  40282a:	bf00      	nop
  40282c:	2040000c 	.word	0x2040000c
  402830:	00409a90 	.word	0x00409a90

00402834 <tcp_init>:
  402834:	4770      	bx	lr
	...

00402838 <tcp_bind>:
  402838:	b5f8      	push	{r3, r4, r5, r6, r7, lr}
  40283a:	7e03      	ldrb	r3, [r0, #24]
  40283c:	4605      	mov	r5, r0
  40283e:	460e      	mov	r6, r1
  402840:	4614      	mov	r4, r2
  402842:	b13b      	cbz	r3, 402854 <tcp_bind+0x1c>
  402844:	4b1c      	ldr	r3, [pc, #112]	; (4028b8 <tcp_bind+0x80>)
  402846:	f240 12b7 	movw	r2, #439	; 0x1b7
  40284a:	491c      	ldr	r1, [pc, #112]	; (4028bc <tcp_bind+0x84>)
  40284c:	481c      	ldr	r0, [pc, #112]	; (4028c0 <tcp_bind+0x88>)
  40284e:	4c1d      	ldr	r4, [pc, #116]	; (4028c4 <tcp_bind+0x8c>)
  402850:	47a0      	blx	r4
  402852:	e7fe      	b.n	402852 <tcp_bind+0x1a>
  402854:	b91a      	cbnz	r2, 40285e <tcp_bind+0x26>
  402856:	4b1c      	ldr	r3, [pc, #112]	; (4028c8 <tcp_bind+0x90>)
  402858:	4798      	blx	r3
  40285a:	4604      	mov	r4, r0
  40285c:	b328      	cbz	r0, 4028aa <tcp_bind+0x72>
  40285e:	2200      	movs	r2, #0
  402860:	4f1a      	ldr	r7, [pc, #104]	; (4028cc <tcp_bind+0x94>)
  402862:	f857 3022 	ldr.w	r3, [r7, r2, lsl #2]
  402866:	681b      	ldr	r3, [r3, #0]
  402868:	b99b      	cbnz	r3, 402892 <tcp_bind+0x5a>
  40286a:	3201      	adds	r2, #1
  40286c:	2a04      	cmp	r2, #4
  40286e:	d1f8      	bne.n	402862 <tcp_bind+0x2a>
  402870:	b116      	cbz	r6, 402878 <tcp_bind+0x40>
  402872:	6833      	ldr	r3, [r6, #0]
  402874:	b103      	cbz	r3, 402878 <tcp_bind+0x40>
  402876:	602b      	str	r3, [r5, #0]
  402878:	4b15      	ldr	r3, [pc, #84]	; (4028d0 <tcp_bind+0x98>)
  40287a:	836c      	strh	r4, [r5, #26]
  40287c:	681a      	ldr	r2, [r3, #0]
  40287e:	601d      	str	r5, [r3, #0]
  402880:	60ea      	str	r2, [r5, #12]
  402882:	4b14      	ldr	r3, [pc, #80]	; (4028d4 <tcp_bind+0x9c>)
  402884:	4798      	blx	r3
  402886:	4621      	mov	r1, r4
  402888:	4b0e      	ldr	r3, [pc, #56]	; (4028c4 <tcp_bind+0x8c>)
  40288a:	4813      	ldr	r0, [pc, #76]	; (4028d8 <tcp_bind+0xa0>)
  40288c:	4798      	blx	r3
  40288e:	2000      	movs	r0, #0
  402890:	bdf8      	pop	{r3, r4, r5, r6, r7, pc}
  402892:	8b59      	ldrh	r1, [r3, #26]
  402894:	42a1      	cmp	r1, r4
  402896:	d106      	bne.n	4028a6 <tcp_bind+0x6e>
  402898:	6818      	ldr	r0, [r3, #0]
  40289a:	b148      	cbz	r0, 4028b0 <tcp_bind+0x78>
  40289c:	b146      	cbz	r6, 4028b0 <tcp_bind+0x78>
  40289e:	6831      	ldr	r1, [r6, #0]
  4028a0:	b131      	cbz	r1, 4028b0 <tcp_bind+0x78>
  4028a2:	4288      	cmp	r0, r1
  4028a4:	d004      	beq.n	4028b0 <tcp_bind+0x78>
  4028a6:	68db      	ldr	r3, [r3, #12]
  4028a8:	e7de      	b.n	402868 <tcp_bind+0x30>
  4028aa:	f06f 0001 	mvn.w	r0, #1
  4028ae:	bdf8      	pop	{r3, r4, r5, r6, r7, pc}
  4028b0:	f06f 0007 	mvn.w	r0, #7
  4028b4:	bdf8      	pop	{r3, r4, r5, r6, r7, pc}
  4028b6:	bf00      	nop
  4028b8:	00409860 	.word	0x00409860
  4028bc:	00409895 	.word	0x00409895
  4028c0:	004095a3 	.word	0x004095a3
  4028c4:	00406415 	.word	0x00406415
  4028c8:	004027e1 	.word	0x004027e1
  4028cc:	00409a90 	.word	0x00409a90
  4028d0:	204049dc 	.word	0x204049dc
  4028d4:	00401e55 	.word	0x00401e55
  4028d8:	004098bd 	.word	0x004098bd

004028dc <tcp_listen_with_backlog>:
  4028dc:	b5f8      	push	{r3, r4, r5, r6, r7, lr}
  4028de:	7e06      	ldrb	r6, [r0, #24]
  4028e0:	4605      	mov	r5, r0
  4028e2:	460f      	mov	r7, r1
  4028e4:	b13e      	cbz	r6, 4028f6 <tcp_listen_with_backlog+0x1a>
  4028e6:	4b28      	ldr	r3, [pc, #160]	; (402988 <tcp_listen_with_backlog+0xac>)
  4028e8:	f44f 7203 	mov.w	r2, #524	; 0x20c
  4028ec:	4927      	ldr	r1, [pc, #156]	; (40298c <tcp_listen_with_backlog+0xb0>)
  4028ee:	4828      	ldr	r0, [pc, #160]	; (402990 <tcp_listen_with_backlog+0xb4>)
  4028f0:	4c28      	ldr	r4, [pc, #160]	; (402994 <tcp_listen_with_backlog+0xb8>)
  4028f2:	47a0      	blx	r4
  4028f4:	e7fe      	b.n	4028f4 <tcp_listen_with_backlog+0x18>
  4028f6:	2003      	movs	r0, #3
  4028f8:	4b27      	ldr	r3, [pc, #156]	; (402998 <tcp_listen_with_backlog+0xbc>)
  4028fa:	4798      	blx	r3
  4028fc:	4604      	mov	r4, r0
  4028fe:	2800      	cmp	r0, #0
  402900:	d02d      	beq.n	40295e <tcp_listen_with_backlog+0x82>
  402902:	692b      	ldr	r3, [r5, #16]
  402904:	6103      	str	r3, [r0, #16]
  402906:	8b6b      	ldrh	r3, [r5, #26]
  402908:	8343      	strh	r3, [r0, #26]
  40290a:	2301      	movs	r3, #1
  40290c:	7603      	strb	r3, [r0, #24]
  40290e:	7e6b      	ldrb	r3, [r5, #25]
  402910:	7643      	strb	r3, [r0, #25]
  402912:	7a2b      	ldrb	r3, [r5, #8]
  402914:	f043 0302 	orr.w	r3, r3, #2
  402918:	7203      	strb	r3, [r0, #8]
  40291a:	7aab      	ldrb	r3, [r5, #10]
  40291c:	7283      	strb	r3, [r0, #10]
  40291e:	7a6b      	ldrb	r3, [r5, #9]
  402920:	7243      	strb	r3, [r0, #9]
  402922:	682b      	ldr	r3, [r5, #0]
  402924:	6003      	str	r3, [r0, #0]
  402926:	8b6b      	ldrh	r3, [r5, #26]
  402928:	b13b      	cbz	r3, 40293a <tcp_listen_with_backlog+0x5e>
  40292a:	4a1c      	ldr	r2, [pc, #112]	; (40299c <tcp_listen_with_backlog+0xc0>)
  40292c:	6813      	ldr	r3, [r2, #0]
  40292e:	429d      	cmp	r5, r3
  402930:	d117      	bne.n	402962 <tcp_listen_with_backlog+0x86>
  402932:	68eb      	ldr	r3, [r5, #12]
  402934:	6013      	str	r3, [r2, #0]
  402936:	2300      	movs	r3, #0
  402938:	60eb      	str	r3, [r5, #12]
  40293a:	4b19      	ldr	r3, [pc, #100]	; (4029a0 <tcp_listen_with_backlog+0xc4>)
  40293c:	4629      	mov	r1, r5
  40293e:	2002      	movs	r0, #2
  402940:	4798      	blx	r3
  402942:	4b18      	ldr	r3, [pc, #96]	; (4029a4 <tcp_listen_with_backlog+0xc8>)
  402944:	6163      	str	r3, [r4, #20]
  402946:	2300      	movs	r3, #0
  402948:	429f      	cmp	r7, r3
  40294a:	7763      	strb	r3, [r4, #29]
  40294c:	4b16      	ldr	r3, [pc, #88]	; (4029a8 <tcp_listen_with_backlog+0xcc>)
  40294e:	bf08      	it	eq
  402950:	2701      	moveq	r7, #1
  402952:	681a      	ldr	r2, [r3, #0]
  402954:	7727      	strb	r7, [r4, #28]
  402956:	601c      	str	r4, [r3, #0]
  402958:	60e2      	str	r2, [r4, #12]
  40295a:	4b14      	ldr	r3, [pc, #80]	; (4029ac <tcp_listen_with_backlog+0xd0>)
  40295c:	4798      	blx	r3
  40295e:	4620      	mov	r0, r4
  402960:	bdf8      	pop	{r3, r4, r5, r6, r7, pc}
  402962:	4913      	ldr	r1, [pc, #76]	; (4029b0 <tcp_listen_with_backlog+0xd4>)
  402964:	600b      	str	r3, [r1, #0]
  402966:	b91b      	cbnz	r3, 402970 <tcp_listen_with_backlog+0x94>
  402968:	2e00      	cmp	r6, #0
  40296a:	d0e4      	beq.n	402936 <tcp_listen_with_backlog+0x5a>
  40296c:	600b      	str	r3, [r1, #0]
  40296e:	e7e2      	b.n	402936 <tcp_listen_with_backlog+0x5a>
  402970:	68d8      	ldr	r0, [r3, #12]
  402972:	4285      	cmp	r5, r0
  402974:	d104      	bne.n	402980 <tcp_listen_with_backlog+0xa4>
  402976:	b106      	cbz	r6, 40297a <tcp_listen_with_backlog+0x9e>
  402978:	600b      	str	r3, [r1, #0]
  40297a:	68ea      	ldr	r2, [r5, #12]
  40297c:	60da      	str	r2, [r3, #12]
  40297e:	e7da      	b.n	402936 <tcp_listen_with_backlog+0x5a>
  402980:	2601      	movs	r6, #1
  402982:	4603      	mov	r3, r0
  402984:	e7ef      	b.n	402966 <tcp_listen_with_backlog+0x8a>
  402986:	bf00      	nop
  402988:	00409860 	.word	0x00409860
  40298c:	00409a6d 	.word	0x00409a6d
  402990:	004095a3 	.word	0x004095a3
  402994:	00406415 	.word	0x00406415
  402998:	004021d9 	.word	0x004021d9
  40299c:	204049dc 	.word	0x204049dc
  4029a0:	00402215 	.word	0x00402215
  4029a4:	004027d9 	.word	0x004027d9
  4029a8:	204049d4 	.word	0x204049d4
  4029ac:	00401e55 	.word	0x00401e55
  4029b0:	204049d8 	.word	0x204049d8

004029b4 <tcp_update_rcv_ann_wnd>:
  4029b4:	b570      	push	{r4, r5, r6, lr}
  4029b6:	8d85      	ldrh	r5, [r0, #44]	; 0x2c
  4029b8:	4602      	mov	r2, r0
  4029ba:	6b01      	ldr	r1, [r0, #48]	; 0x30
  4029bc:	f240 56b4 	movw	r6, #1460	; 0x5b4
  4029c0:	6a84      	ldr	r4, [r0, #40]	; 0x28
  4029c2:	1a6b      	subs	r3, r5, r1
  4029c4:	1918      	adds	r0, r3, r4
  4029c6:	8ed3      	ldrh	r3, [r2, #54]	; 0x36
  4029c8:	42b3      	cmp	r3, r6
  4029ca:	bf94      	ite	ls
  4029cc:	1ac3      	subls	r3, r0, r3
  4029ce:	1b83      	subhi	r3, r0, r6
  4029d0:	2b00      	cmp	r3, #0
  4029d2:	db01      	blt.n	4029d8 <tcp_update_rcv_ann_wnd+0x24>
  4029d4:	85d5      	strh	r5, [r2, #46]	; 0x2e
  4029d6:	bd70      	pop	{r4, r5, r6, pc}
  4029d8:	1a63      	subs	r3, r4, r1
  4029da:	2000      	movs	r0, #0
  4029dc:	2b00      	cmp	r3, #0
  4029de:	bfd6      	itet	le
  4029e0:	1b09      	suble	r1, r1, r4
  4029e2:	85d0      	strhgt	r0, [r2, #46]	; 0x2e
  4029e4:	85d1      	strhle	r1, [r2, #46]	; 0x2e
  4029e6:	bd70      	pop	{r4, r5, r6, pc}

004029e8 <tcp_recved>:
  4029e8:	b570      	push	{r4, r5, r6, lr}
  4029ea:	8d83      	ldrh	r3, [r0, #44]	; 0x2c
  4029ec:	f640 3268 	movw	r2, #2920	; 0xb68
  4029f0:	4604      	mov	r4, r0
  4029f2:	460d      	mov	r5, r1
  4029f4:	440b      	add	r3, r1
  4029f6:	b29b      	uxth	r3, r3
  4029f8:	4293      	cmp	r3, r2
  4029fa:	bf94      	ite	ls
  4029fc:	8583      	strhls	r3, [r0, #44]	; 0x2c
  4029fe:	8582      	strhhi	r2, [r0, #44]	; 0x2c
  402a00:	4b0b      	ldr	r3, [pc, #44]	; (402a30 <tcp_recved+0x48>)
  402a02:	4798      	blx	r3
  402a04:	f240 23d9 	movw	r3, #729	; 0x2d9
  402a08:	4298      	cmp	r0, r3
  402a0a:	dd06      	ble.n	402a1a <tcp_recved+0x32>
  402a0c:	7fa3      	ldrb	r3, [r4, #30]
  402a0e:	4620      	mov	r0, r4
  402a10:	f043 0302 	orr.w	r3, r3, #2
  402a14:	77a3      	strb	r3, [r4, #30]
  402a16:	4b07      	ldr	r3, [pc, #28]	; (402a34 <tcp_recved+0x4c>)
  402a18:	4798      	blx	r3
  402a1a:	8da2      	ldrh	r2, [r4, #44]	; 0x2c
  402a1c:	4629      	mov	r1, r5
  402a1e:	4c06      	ldr	r4, [pc, #24]	; (402a38 <tcp_recved+0x50>)
  402a20:	f5c2 6336 	rsb	r3, r2, #2912	; 0xb60
  402a24:	4805      	ldr	r0, [pc, #20]	; (402a3c <tcp_recved+0x54>)
  402a26:	46a4      	mov	ip, r4
  402a28:	3308      	adds	r3, #8
  402a2a:	e8bd 4070 	ldmia.w	sp!, {r4, r5, r6, lr}
  402a2e:	4760      	bx	ip
  402a30:	004029b5 	.word	0x004029b5
  402a34:	00404e2d 	.word	0x00404e2d
  402a38:	00406415 	.word	0x00406415
  402a3c:	00409b50 	.word	0x00409b50

00402a40 <tcp_seg_free>:
  402a40:	b510      	push	{r4, lr}
  402a42:	4604      	mov	r4, r0
  402a44:	b158      	cbz	r0, 402a5e <tcp_seg_free+0x1e>
  402a46:	6840      	ldr	r0, [r0, #4]
  402a48:	b118      	cbz	r0, 402a52 <tcp_seg_free+0x12>
  402a4a:	4b05      	ldr	r3, [pc, #20]	; (402a60 <tcp_seg_free+0x20>)
  402a4c:	4798      	blx	r3
  402a4e:	2300      	movs	r3, #0
  402a50:	6063      	str	r3, [r4, #4]
  402a52:	4621      	mov	r1, r4
  402a54:	2004      	movs	r0, #4
  402a56:	4b03      	ldr	r3, [pc, #12]	; (402a64 <tcp_seg_free+0x24>)
  402a58:	e8bd 4010 	ldmia.w	sp!, {r4, lr}
  402a5c:	4718      	bx	r3
  402a5e:	bd10      	pop	{r4, pc}
  402a60:	004023b9 	.word	0x004023b9
  402a64:	00402215 	.word	0x00402215

00402a68 <tcp_segs_free>:
  402a68:	b538      	push	{r3, r4, r5, lr}
  402a6a:	4c03      	ldr	r4, [pc, #12]	; (402a78 <tcp_segs_free+0x10>)
  402a6c:	b900      	cbnz	r0, 402a70 <tcp_segs_free+0x8>
  402a6e:	bd38      	pop	{r3, r4, r5, pc}
  402a70:	6805      	ldr	r5, [r0, #0]
  402a72:	47a0      	blx	r4
  402a74:	4628      	mov	r0, r5
  402a76:	e7f9      	b.n	402a6c <tcp_segs_free+0x4>
  402a78:	00402a41 	.word	0x00402a41

00402a7c <tcp_setprio>:
  402a7c:	7641      	strb	r1, [r0, #25]
  402a7e:	4770      	bx	lr

00402a80 <tcp_seg_copy>:
  402a80:	b538      	push	{r3, r4, r5, lr}
  402a82:	4604      	mov	r4, r0
  402a84:	4b09      	ldr	r3, [pc, #36]	; (402aac <tcp_seg_copy+0x2c>)
  402a86:	2004      	movs	r0, #4
  402a88:	4798      	blx	r3
  402a8a:	4605      	mov	r5, r0
  402a8c:	b160      	cbz	r0, 402aa8 <tcp_seg_copy+0x28>
  402a8e:	4620      	mov	r0, r4
  402a90:	462b      	mov	r3, r5
  402a92:	f104 0214 	add.w	r2, r4, #20
  402a96:	f850 1b04 	ldr.w	r1, [r0], #4
  402a9a:	4290      	cmp	r0, r2
  402a9c:	f843 1b04 	str.w	r1, [r3], #4
  402aa0:	d1f9      	bne.n	402a96 <tcp_seg_copy+0x16>
  402aa2:	6868      	ldr	r0, [r5, #4]
  402aa4:	4b02      	ldr	r3, [pc, #8]	; (402ab0 <tcp_seg_copy+0x30>)
  402aa6:	4798      	blx	r3
  402aa8:	4628      	mov	r0, r5
  402aaa:	bd38      	pop	{r3, r4, r5, pc}
  402aac:	004021d9 	.word	0x004021d9
  402ab0:	00402589 	.word	0x00402589

00402ab4 <tcp_arg>:
  402ab4:	6101      	str	r1, [r0, #16]
  402ab6:	4770      	bx	lr

00402ab8 <tcp_recv>:
  402ab8:	f8c0 1080 	str.w	r1, [r0, #128]	; 0x80
  402abc:	4770      	bx	lr

00402abe <tcp_sent>:
  402abe:	67c1      	str	r1, [r0, #124]	; 0x7c
  402ac0:	4770      	bx	lr

00402ac2 <tcp_err>:
  402ac2:	f8c0 108c 	str.w	r1, [r0, #140]	; 0x8c
  402ac6:	4770      	bx	lr

00402ac8 <tcp_accept>:
  402ac8:	6141      	str	r1, [r0, #20]
  402aca:	4770      	bx	lr

00402acc <tcp_poll>:
  402acc:	f8c0 1088 	str.w	r1, [r0, #136]	; 0x88
  402ad0:	f880 2020 	strb.w	r2, [r0, #32]
  402ad4:	4770      	bx	lr
	...

00402ad8 <tcp_pcb_purge>:
  402ad8:	b570      	push	{r4, r5, r6, lr}
  402ada:	7e03      	ldrb	r3, [r0, #24]
  402adc:	4604      	mov	r4, r0
  402ade:	2b01      	cmp	r3, #1
  402ae0:	d939      	bls.n	402b56 <tcp_pcb_purge+0x7e>
  402ae2:	2b0a      	cmp	r3, #10
  402ae4:	d037      	beq.n	402b56 <tcp_pcb_purge+0x7e>
  402ae6:	481f      	ldr	r0, [pc, #124]	; (402b64 <tcp_pcb_purge+0x8c>)
  402ae8:	4d1f      	ldr	r5, [pc, #124]	; (402b68 <tcp_pcb_purge+0x90>)
  402aea:	47a8      	blx	r5
  402aec:	7e23      	ldrb	r3, [r4, #24]
  402aee:	2b03      	cmp	r3, #3
  402af0:	d10c      	bne.n	402b0c <tcp_pcb_purge+0x34>
  402af2:	4b1e      	ldr	r3, [pc, #120]	; (402b6c <tcp_pcb_purge+0x94>)
  402af4:	681b      	ldr	r3, [r3, #0]
  402af6:	b14b      	cbz	r3, 402b0c <tcp_pcb_purge+0x34>
  402af8:	8b59      	ldrh	r1, [r3, #26]
  402afa:	8b62      	ldrh	r2, [r4, #26]
  402afc:	4291      	cmp	r1, r2
  402afe:	d12e      	bne.n	402b5e <tcp_pcb_purge+0x86>
  402b00:	681a      	ldr	r2, [r3, #0]
  402b02:	2a00      	cmp	r2, #0
  402b04:	d128      	bne.n	402b58 <tcp_pcb_purge+0x80>
  402b06:	7f5a      	ldrb	r2, [r3, #29]
  402b08:	3a01      	subs	r2, #1
  402b0a:	775a      	strb	r2, [r3, #29]
  402b0c:	6fa3      	ldr	r3, [r4, #120]	; 0x78
  402b0e:	b133      	cbz	r3, 402b1e <tcp_pcb_purge+0x46>
  402b10:	4817      	ldr	r0, [pc, #92]	; (402b70 <tcp_pcb_purge+0x98>)
  402b12:	47a8      	blx	r5
  402b14:	4b17      	ldr	r3, [pc, #92]	; (402b74 <tcp_pcb_purge+0x9c>)
  402b16:	6fa0      	ldr	r0, [r4, #120]	; 0x78
  402b18:	4798      	blx	r3
  402b1a:	2300      	movs	r3, #0
  402b1c:	67a3      	str	r3, [r4, #120]	; 0x78
  402b1e:	6ee3      	ldr	r3, [r4, #108]	; 0x6c
  402b20:	b10b      	cbz	r3, 402b26 <tcp_pcb_purge+0x4e>
  402b22:	4815      	ldr	r0, [pc, #84]	; (402b78 <tcp_pcb_purge+0xa0>)
  402b24:	47a8      	blx	r5
  402b26:	6f23      	ldr	r3, [r4, #112]	; 0x70
  402b28:	b10b      	cbz	r3, 402b2e <tcp_pcb_purge+0x56>
  402b2a:	4814      	ldr	r0, [pc, #80]	; (402b7c <tcp_pcb_purge+0xa4>)
  402b2c:	47a8      	blx	r5
  402b2e:	6f63      	ldr	r3, [r4, #116]	; 0x74
  402b30:	b10b      	cbz	r3, 402b36 <tcp_pcb_purge+0x5e>
  402b32:	4813      	ldr	r0, [pc, #76]	; (402b80 <tcp_pcb_purge+0xa8>)
  402b34:	47a8      	blx	r5
  402b36:	4e13      	ldr	r6, [pc, #76]	; (402b84 <tcp_pcb_purge+0xac>)
  402b38:	2500      	movs	r5, #0
  402b3a:	6f60      	ldr	r0, [r4, #116]	; 0x74
  402b3c:	47b0      	blx	r6
  402b3e:	f64f 73ff 	movw	r3, #65535	; 0xffff
  402b42:	6ee0      	ldr	r0, [r4, #108]	; 0x6c
  402b44:	86a3      	strh	r3, [r4, #52]	; 0x34
  402b46:	6765      	str	r5, [r4, #116]	; 0x74
  402b48:	47b0      	blx	r6
  402b4a:	6f20      	ldr	r0, [r4, #112]	; 0x70
  402b4c:	47b0      	blx	r6
  402b4e:	66e5      	str	r5, [r4, #108]	; 0x6c
  402b50:	6725      	str	r5, [r4, #112]	; 0x70
  402b52:	f8a4 506a 	strh.w	r5, [r4, #106]	; 0x6a
  402b56:	bd70      	pop	{r4, r5, r6, pc}
  402b58:	6821      	ldr	r1, [r4, #0]
  402b5a:	428a      	cmp	r2, r1
  402b5c:	d0d3      	beq.n	402b06 <tcp_pcb_purge+0x2e>
  402b5e:	68db      	ldr	r3, [r3, #12]
  402b60:	e7c9      	b.n	402af6 <tcp_pcb_purge+0x1e>
  402b62:	bf00      	nop
  402b64:	00409aa0 	.word	0x00409aa0
  402b68:	00406415 	.word	0x00406415
  402b6c:	204049d4 	.word	0x204049d4
  402b70:	00409aaf 	.word	0x00409aaf
  402b74:	004023b9 	.word	0x004023b9
  402b78:	00409adb 	.word	0x00409adb
  402b7c:	00409afd 	.word	0x00409afd
  402b80:	00409b24 	.word	0x00409b24
  402b84:	00402a69 	.word	0x00402a69

00402b88 <tcp_slowtmr>:
  402b88:	e92d 4ff0 	stmdb	sp!, {r4, r5, r6, r7, r8, r9, sl, fp, lr}
  402b8c:	4eab      	ldr	r6, [pc, #684]	; (402e3c <tcp_slowtmr+0x2b4>)
  402b8e:	b085      	sub	sp, #20
  402b90:	f8df a308 	ldr.w	sl, [pc, #776]	; 402e9c <tcp_slowtmr+0x314>
  402b94:	6833      	ldr	r3, [r6, #0]
  402b96:	3301      	adds	r3, #1
  402b98:	6033      	str	r3, [r6, #0]
  402b9a:	4ba9      	ldr	r3, [pc, #676]	; (402e40 <tcp_slowtmr+0x2b8>)
  402b9c:	781a      	ldrb	r2, [r3, #0]
  402b9e:	469b      	mov	fp, r3
  402ba0:	3201      	adds	r2, #1
  402ba2:	701a      	strb	r2, [r3, #0]
  402ba4:	4ba7      	ldr	r3, [pc, #668]	; (402e44 <tcp_slowtmr+0x2bc>)
  402ba6:	f8df 82f8 	ldr.w	r8, [pc, #760]	; 402ea0 <tcp_slowtmr+0x318>
  402baa:	681c      	ldr	r4, [r3, #0]
  402bac:	9302      	str	r3, [sp, #8]
  402bae:	b974      	cbnz	r4, 402bce <tcp_slowtmr+0x46>
  402bb0:	48a5      	ldr	r0, [pc, #660]	; (402e48 <tcp_slowtmr+0x2c0>)
  402bb2:	47c0      	blx	r8
  402bb4:	4da5      	ldr	r5, [pc, #660]	; (402e4c <tcp_slowtmr+0x2c4>)
  402bb6:	2700      	movs	r7, #0
  402bb8:	f8df 82b0 	ldr.w	r8, [pc, #688]	; 402e6c <tcp_slowtmr+0x2e4>
  402bbc:	682c      	ldr	r4, [r5, #0]
  402bbe:	f8df 92b4 	ldr.w	r9, [pc, #692]	; 402e74 <tcp_slowtmr+0x2ec>
  402bc2:	2c00      	cmp	r4, #0
  402bc4:	f040 816e 	bne.w	402ea4 <tcp_slowtmr+0x31c>
  402bc8:	b005      	add	sp, #20
  402bca:	e8bd 8ff0 	ldmia.w	sp!, {r4, r5, r6, r7, r8, r9, sl, fp, pc}
  402bce:	f04f 0900 	mov.w	r9, #0
  402bd2:	489f      	ldr	r0, [pc, #636]	; (402e50 <tcp_slowtmr+0x2c8>)
  402bd4:	47c0      	blx	r8
  402bd6:	f89b 3000 	ldrb.w	r3, [fp]
  402bda:	f894 2021 	ldrb.w	r2, [r4, #33]	; 0x21
  402bde:	429a      	cmp	r2, r3
  402be0:	d104      	bne.n	402bec <tcp_slowtmr+0x64>
  402be2:	68e7      	ldr	r7, [r4, #12]
  402be4:	2f00      	cmp	r7, #0
  402be6:	d0e5      	beq.n	402bb4 <tcp_slowtmr+0x2c>
  402be8:	463c      	mov	r4, r7
  402bea:	e7f2      	b.n	402bd2 <tcp_slowtmr+0x4a>
  402bec:	7e21      	ldrb	r1, [r4, #24]
  402bee:	f884 3021 	strb.w	r3, [r4, #33]	; 0x21
  402bf2:	2902      	cmp	r1, #2
  402bf4:	f894 2046 	ldrb.w	r2, [r4, #70]	; 0x46
  402bf8:	f040 808e 	bne.w	402d18 <tcp_slowtmr+0x190>
  402bfc:	2a06      	cmp	r2, #6
  402bfe:	f040 808b 	bne.w	402d18 <tcp_slowtmr+0x190>
  402c02:	4894      	ldr	r0, [pc, #592]	; (402e54 <tcp_slowtmr+0x2cc>)
  402c04:	2501      	movs	r5, #1
  402c06:	47c0      	blx	r8
  402c08:	7e23      	ldrb	r3, [r4, #24]
  402c0a:	2b06      	cmp	r3, #6
  402c0c:	d10b      	bne.n	402c26 <tcp_slowtmr+0x9e>
  402c0e:	7fa3      	ldrb	r3, [r4, #30]
  402c10:	06db      	lsls	r3, r3, #27
  402c12:	d508      	bpl.n	402c26 <tcp_slowtmr+0x9e>
  402c14:	6833      	ldr	r3, [r6, #0]
  402c16:	6a62      	ldr	r2, [r4, #36]	; 0x24
  402c18:	1a9b      	subs	r3, r3, r2
  402c1a:	2b28      	cmp	r3, #40	; 0x28
  402c1c:	d903      	bls.n	402c26 <tcp_slowtmr+0x9e>
  402c1e:	3501      	adds	r5, #1
  402c20:	488d      	ldr	r0, [pc, #564]	; (402e58 <tcp_slowtmr+0x2d0>)
  402c22:	b2ed      	uxtb	r5, r5
  402c24:	47c0      	blx	r8
  402c26:	7a27      	ldrb	r7, [r4, #8]
  402c28:	f017 0708 	ands.w	r7, r7, #8
  402c2c:	d01f      	beq.n	402c6e <tcp_slowtmr+0xe6>
  402c2e:	7e23      	ldrb	r3, [r4, #24]
  402c30:	2b04      	cmp	r3, #4
  402c32:	d002      	beq.n	402c3a <tcp_slowtmr+0xb2>
  402c34:	2b07      	cmp	r3, #7
  402c36:	f040 80d7 	bne.w	402de8 <tcp_slowtmr+0x260>
  402c3a:	f8d4 7090 	ldr.w	r7, [r4, #144]	; 0x90
  402c3e:	f44f 70fa 	mov.w	r0, #500	; 0x1f4
  402c42:	6831      	ldr	r1, [r6, #0]
  402c44:	f507 2224 	add.w	r2, r7, #671744	; 0xa4000
  402c48:	6a63      	ldr	r3, [r4, #36]	; 0x24
  402c4a:	f602 42b8 	addw	r2, r2, #3256	; 0xcb8
  402c4e:	1ac9      	subs	r1, r1, r3
  402c50:	fbb2 f2f0 	udiv	r2, r2, r0
  402c54:	4291      	cmp	r1, r2
  402c56:	f240 80b6 	bls.w	402dc6 <tcp_slowtmr+0x23e>
  402c5a:	3501      	adds	r5, #1
  402c5c:	79e0      	ldrb	r0, [r4, #7]
  402c5e:	2701      	movs	r7, #1
  402c60:	79a3      	ldrb	r3, [r4, #6]
  402c62:	b2ed      	uxtb	r5, r5
  402c64:	7962      	ldrb	r2, [r4, #5]
  402c66:	7921      	ldrb	r1, [r4, #4]
  402c68:	9000      	str	r0, [sp, #0]
  402c6a:	487c      	ldr	r0, [pc, #496]	; (402e5c <tcp_slowtmr+0x2d4>)
  402c6c:	47c0      	blx	r8
  402c6e:	6f60      	ldr	r0, [r4, #116]	; 0x74
  402c70:	b168      	cbz	r0, 402c8e <tcp_slowtmr+0x106>
  402c72:	6833      	ldr	r3, [r6, #0]
  402c74:	6a62      	ldr	r2, [r4, #36]	; 0x24
  402c76:	1a9a      	subs	r2, r3, r2
  402c78:	f9b4 3044 	ldrsh.w	r3, [r4, #68]	; 0x44
  402c7c:	eb03 0343 	add.w	r3, r3, r3, lsl #1
  402c80:	ebb2 0f43 	cmp.w	r2, r3, lsl #1
  402c84:	d303      	bcc.n	402c8e <tcp_slowtmr+0x106>
  402c86:	4b76      	ldr	r3, [pc, #472]	; (402e60 <tcp_slowtmr+0x2d8>)
  402c88:	4798      	blx	r3
  402c8a:	2300      	movs	r3, #0
  402c8c:	6763      	str	r3, [r4, #116]	; 0x74
  402c8e:	7e23      	ldrb	r3, [r4, #24]
  402c90:	2b03      	cmp	r3, #3
  402c92:	d108      	bne.n	402ca6 <tcp_slowtmr+0x11e>
  402c94:	6833      	ldr	r3, [r6, #0]
  402c96:	6a62      	ldr	r2, [r4, #36]	; 0x24
  402c98:	1a9b      	subs	r3, r3, r2
  402c9a:	2b28      	cmp	r3, #40	; 0x28
  402c9c:	d903      	bls.n	402ca6 <tcp_slowtmr+0x11e>
  402c9e:	3501      	adds	r5, #1
  402ca0:	4870      	ldr	r0, [pc, #448]	; (402e64 <tcp_slowtmr+0x2dc>)
  402ca2:	b2ed      	uxtb	r5, r5
  402ca4:	47c0      	blx	r8
  402ca6:	7e23      	ldrb	r3, [r4, #24]
  402ca8:	2b09      	cmp	r3, #9
  402caa:	f040 809f 	bne.w	402dec <tcp_slowtmr+0x264>
  402cae:	6833      	ldr	r3, [r6, #0]
  402cb0:	6a62      	ldr	r2, [r4, #36]	; 0x24
  402cb2:	1a9b      	subs	r3, r3, r2
  402cb4:	2bf0      	cmp	r3, #240	; 0xf0
  402cb6:	f240 8099 	bls.w	402dec <tcp_slowtmr+0x264>
  402cba:	486b      	ldr	r0, [pc, #428]	; (402e68 <tcp_slowtmr+0x2e0>)
  402cbc:	47c0      	blx	r8
  402cbe:	4b6b      	ldr	r3, [pc, #428]	; (402e6c <tcp_slowtmr+0x2e4>)
  402cc0:	4620      	mov	r0, r4
  402cc2:	4798      	blx	r3
  402cc4:	68e3      	ldr	r3, [r4, #12]
  402cc6:	f1b9 0f00 	cmp.w	r9, #0
  402cca:	f000 80b1 	beq.w	402e30 <tcp_slowtmr+0x2a8>
  402cce:	f8c9 300c 	str.w	r3, [r9, #12]
  402cd2:	b14f      	cbz	r7, 402ce8 <tcp_slowtmr+0x160>
  402cd4:	8ba3      	ldrh	r3, [r4, #28]
  402cd6:	4622      	mov	r2, r4
  402cd8:	4d65      	ldr	r5, [pc, #404]	; (402e70 <tcp_slowtmr+0x2e8>)
  402cda:	9301      	str	r3, [sp, #4]
  402cdc:	8b63      	ldrh	r3, [r4, #26]
  402cde:	9300      	str	r3, [sp, #0]
  402ce0:	1d23      	adds	r3, r4, #4
  402ce2:	6aa1      	ldr	r1, [r4, #40]	; 0x28
  402ce4:	6d20      	ldr	r0, [r4, #80]	; 0x50
  402ce6:	47a8      	blx	r5
  402ce8:	6923      	ldr	r3, [r4, #16]
  402cea:	4621      	mov	r1, r4
  402cec:	4a61      	ldr	r2, [pc, #388]	; (402e74 <tcp_slowtmr+0x2ec>)
  402cee:	2002      	movs	r0, #2
  402cf0:	f8d4 508c 	ldr.w	r5, [r4, #140]	; 0x8c
  402cf4:	9303      	str	r3, [sp, #12]
  402cf6:	68e7      	ldr	r7, [r4, #12]
  402cf8:	4790      	blx	r2
  402cfa:	2200      	movs	r2, #0
  402cfc:	f88a 2000 	strb.w	r2, [sl]
  402d00:	b125      	cbz	r5, 402d0c <tcp_slowtmr+0x184>
  402d02:	9b03      	ldr	r3, [sp, #12]
  402d04:	f06f 0109 	mvn.w	r1, #9
  402d08:	4618      	mov	r0, r3
  402d0a:	47a8      	blx	r5
  402d0c:	f89a 3000 	ldrb.w	r3, [sl]
  402d10:	2b00      	cmp	r3, #0
  402d12:	f43f af67 	beq.w	402be4 <tcp_slowtmr+0x5c>
  402d16:	e745      	b.n	402ba4 <tcp_slowtmr+0x1c>
  402d18:	2a0c      	cmp	r2, #12
  402d1a:	d101      	bne.n	402d20 <tcp_slowtmr+0x198>
  402d1c:	4856      	ldr	r0, [pc, #344]	; (402e78 <tcp_slowtmr+0x2f0>)
  402d1e:	e771      	b.n	402c04 <tcp_slowtmr+0x7c>
  402d20:	f894 5095 	ldrb.w	r5, [r4, #149]	; 0x95
  402d24:	b1dd      	cbz	r5, 402d5e <tcp_slowtmr+0x1d6>
  402d26:	f894 3094 	ldrb.w	r3, [r4, #148]	; 0x94
  402d2a:	4a54      	ldr	r2, [pc, #336]	; (402e7c <tcp_slowtmr+0x2f4>)
  402d2c:	3301      	adds	r3, #1
  402d2e:	442a      	add	r2, r5
  402d30:	b2db      	uxtb	r3, r3
  402d32:	f812 2c01 	ldrb.w	r2, [r2, #-1]
  402d36:	f884 3094 	strb.w	r3, [r4, #148]	; 0x94
  402d3a:	429a      	cmp	r2, r3
  402d3c:	d901      	bls.n	402d42 <tcp_slowtmr+0x1ba>
  402d3e:	2500      	movs	r5, #0
  402d40:	e762      	b.n	402c08 <tcp_slowtmr+0x80>
  402d42:	2d06      	cmp	r5, #6
  402d44:	f04f 0300 	mov.w	r3, #0
  402d48:	4620      	mov	r0, r4
  402d4a:	bf98      	it	ls
  402d4c:	3501      	addls	r5, #1
  402d4e:	f884 3094 	strb.w	r3, [r4, #148]	; 0x94
  402d52:	4b4b      	ldr	r3, [pc, #300]	; (402e80 <tcp_slowtmr+0x2f8>)
  402d54:	bf98      	it	ls
  402d56:	f884 5095 	strbls.w	r5, [r4, #149]	; 0x95
  402d5a:	4798      	blx	r3
  402d5c:	e7ef      	b.n	402d3e <tcp_slowtmr+0x1b6>
  402d5e:	f9b4 3034 	ldrsh.w	r3, [r4, #52]	; 0x34
  402d62:	2b00      	cmp	r3, #0
  402d64:	bfa4      	itt	ge
  402d66:	3301      	addge	r3, #1
  402d68:	86a3      	strhge	r3, [r4, #52]	; 0x34
  402d6a:	6f23      	ldr	r3, [r4, #112]	; 0x70
  402d6c:	2b00      	cmp	r3, #0
  402d6e:	d0e6      	beq.n	402d3e <tcp_slowtmr+0x1b6>
  402d70:	f9b4 0034 	ldrsh.w	r0, [r4, #52]	; 0x34
  402d74:	f9b4 3044 	ldrsh.w	r3, [r4, #68]	; 0x44
  402d78:	4298      	cmp	r0, r3
  402d7a:	dbe0      	blt.n	402d3e <tcp_slowtmr+0x1b6>
  402d7c:	2902      	cmp	r1, #2
  402d7e:	d00a      	beq.n	402d96 <tcp_slowtmr+0x20e>
  402d80:	f9b4 1040 	ldrsh.w	r1, [r4, #64]	; 0x40
  402d84:	f9b4 3042 	ldrsh.w	r3, [r4, #66]	; 0x42
  402d88:	eb03 03e1 	add.w	r3, r3, r1, asr #3
  402d8c:	493d      	ldr	r1, [pc, #244]	; (402e84 <tcp_slowtmr+0x2fc>)
  402d8e:	5c8a      	ldrb	r2, [r1, r2]
  402d90:	4093      	lsls	r3, r2
  402d92:	f8a4 3044 	strh.w	r3, [r4, #68]	; 0x44
  402d96:	2300      	movs	r3, #0
  402d98:	f8b4 204c 	ldrh.w	r2, [r4, #76]	; 0x4c
  402d9c:	4620      	mov	r0, r4
  402d9e:	86a3      	strh	r3, [r4, #52]	; 0x34
  402da0:	f8b4 3060 	ldrh.w	r3, [r4, #96]	; 0x60
  402da4:	4293      	cmp	r3, r2
  402da6:	bf28      	it	cs
  402da8:	4613      	movcs	r3, r2
  402daa:	8ee2      	ldrh	r2, [r4, #54]	; 0x36
  402dac:	085b      	lsrs	r3, r3, #1
  402dae:	f8a4 204c 	strh.w	r2, [r4, #76]	; 0x4c
  402db2:	0051      	lsls	r1, r2, #1
  402db4:	f8a4 304e 	strh.w	r3, [r4, #78]	; 0x4e
  402db8:	428b      	cmp	r3, r1
  402dba:	4b33      	ldr	r3, [pc, #204]	; (402e88 <tcp_slowtmr+0x300>)
  402dbc:	bfb8      	it	lt
  402dbe:	f8a4 104e 	strhlt.w	r1, [r4, #78]	; 0x4e
  402dc2:	4798      	blx	r3
  402dc4:	e720      	b.n	402c08 <tcp_slowtmr+0x80>
  402dc6:	f894 3096 	ldrb.w	r3, [r4, #150]	; 0x96
  402dca:	4a30      	ldr	r2, [pc, #192]	; (402e8c <tcp_slowtmr+0x304>)
  402dcc:	fb02 7303 	mla	r3, r2, r3, r7
  402dd0:	fbb3 f3f0 	udiv	r3, r3, r0
  402dd4:	4299      	cmp	r1, r3
  402dd6:	d907      	bls.n	402de8 <tcp_slowtmr+0x260>
  402dd8:	4b2d      	ldr	r3, [pc, #180]	; (402e90 <tcp_slowtmr+0x308>)
  402dda:	4620      	mov	r0, r4
  402ddc:	4798      	blx	r3
  402dde:	f894 3096 	ldrb.w	r3, [r4, #150]	; 0x96
  402de2:	3301      	adds	r3, #1
  402de4:	f884 3096 	strb.w	r3, [r4, #150]	; 0x96
  402de8:	2700      	movs	r7, #0
  402dea:	e740      	b.n	402c6e <tcp_slowtmr+0xe6>
  402dec:	2d00      	cmp	r5, #0
  402dee:	f47f af66 	bne.w	402cbe <tcp_slowtmr+0x136>
  402df2:	7fe3      	ldrb	r3, [r4, #31]
  402df4:	f894 2020 	ldrb.w	r2, [r4, #32]
  402df8:	3301      	adds	r3, #1
  402dfa:	68e7      	ldr	r7, [r4, #12]
  402dfc:	b2db      	uxtb	r3, r3
  402dfe:	429a      	cmp	r2, r3
  402e00:	77e3      	strb	r3, [r4, #31]
  402e02:	d813      	bhi.n	402e2c <tcp_slowtmr+0x2a4>
  402e04:	77e5      	strb	r5, [r4, #31]
  402e06:	4823      	ldr	r0, [pc, #140]	; (402e94 <tcp_slowtmr+0x30c>)
  402e08:	47c0      	blx	r8
  402e0a:	f8d4 3088 	ldr.w	r3, [r4, #136]	; 0x88
  402e0e:	f88a 5000 	strb.w	r5, [sl]
  402e12:	b183      	cbz	r3, 402e36 <tcp_slowtmr+0x2ae>
  402e14:	4621      	mov	r1, r4
  402e16:	6920      	ldr	r0, [r4, #16]
  402e18:	4798      	blx	r3
  402e1a:	f89a 3000 	ldrb.w	r3, [sl]
  402e1e:	2b00      	cmp	r3, #0
  402e20:	f47f aec0 	bne.w	402ba4 <tcp_slowtmr+0x1c>
  402e24:	b910      	cbnz	r0, 402e2c <tcp_slowtmr+0x2a4>
  402e26:	4620      	mov	r0, r4
  402e28:	4b1b      	ldr	r3, [pc, #108]	; (402e98 <tcp_slowtmr+0x310>)
  402e2a:	4798      	blx	r3
  402e2c:	46a1      	mov	r9, r4
  402e2e:	e6d9      	b.n	402be4 <tcp_slowtmr+0x5c>
  402e30:	9a02      	ldr	r2, [sp, #8]
  402e32:	6013      	str	r3, [r2, #0]
  402e34:	e74d      	b.n	402cd2 <tcp_slowtmr+0x14a>
  402e36:	4628      	mov	r0, r5
  402e38:	e7ef      	b.n	402e1a <tcp_slowtmr+0x292>
  402e3a:	bf00      	nop
  402e3c:	204049d0 	.word	0x204049d0
  402e40:	20402629 	.word	0x20402629
  402e44:	204049cc 	.word	0x204049cc
  402e48:	00409b81 	.word	0x00409b81
  402e4c:	204049e0 	.word	0x204049e0
  402e50:	00409b9e 	.word	0x00409b9e
  402e54:	00409bc2 	.word	0x00409bc2
  402e58:	00409c0f 	.word	0x00409c0f
  402e5c:	00409c3e 	.word	0x00409c3e
  402e60:	00402a69 	.word	0x00402a69
  402e64:	00409c87 	.word	0x00409c87
  402e68:	00409cb4 	.word	0x00409cb4
  402e6c:	00402ad9 	.word	0x00402ad9
  402e70:	004050cd 	.word	0x004050cd
  402e74:	00402215 	.word	0x00402215
  402e78:	00409be8 	.word	0x00409be8
  402e7c:	00409b49 	.word	0x00409b49
  402e80:	00405315 	.word	0x00405315
  402e84:	00409853 	.word	0x00409853
  402e88:	00405181 	.word	0x00405181
  402e8c:	000124f8 	.word	0x000124f8
  402e90:	0040525d 	.word	0x0040525d
  402e94:	00409ce1 	.word	0x00409ce1
  402e98:	00404e2d 	.word	0x00404e2d
  402e9c:	204049c8 	.word	0x204049c8
  402ea0:	00406415 	.word	0x00406415
  402ea4:	6833      	ldr	r3, [r6, #0]
  402ea6:	6a62      	ldr	r2, [r4, #36]	; 0x24
  402ea8:	1a9b      	subs	r3, r3, r2
  402eaa:	2bf0      	cmp	r3, #240	; 0xf0
  402eac:	d80a      	bhi.n	402ec4 <tcp_slowtmr+0x33c>
  402eae:	4627      	mov	r7, r4
  402eb0:	68e4      	ldr	r4, [r4, #12]
  402eb2:	e686      	b.n	402bc2 <tcp_slowtmr+0x3a>
  402eb4:	60fb      	str	r3, [r7, #12]
  402eb6:	f8d4 a00c 	ldr.w	sl, [r4, #12]
  402eba:	4621      	mov	r1, r4
  402ebc:	2002      	movs	r0, #2
  402ebe:	47c8      	blx	r9
  402ec0:	4654      	mov	r4, sl
  402ec2:	e67e      	b.n	402bc2 <tcp_slowtmr+0x3a>
  402ec4:	4620      	mov	r0, r4
  402ec6:	47c0      	blx	r8
  402ec8:	68e3      	ldr	r3, [r4, #12]
  402eca:	2f00      	cmp	r7, #0
  402ecc:	d1f2      	bne.n	402eb4 <tcp_slowtmr+0x32c>
  402ece:	602b      	str	r3, [r5, #0]
  402ed0:	e7f1      	b.n	402eb6 <tcp_slowtmr+0x32e>
  402ed2:	bf00      	nop

00402ed4 <tcp_pcb_remove>:
  402ed4:	b510      	push	{r4, lr}
  402ed6:	6803      	ldr	r3, [r0, #0]
  402ed8:	460c      	mov	r4, r1
  402eda:	428b      	cmp	r3, r1
  402edc:	d117      	bne.n	402f0e <tcp_pcb_remove+0x3a>
  402ede:	68cb      	ldr	r3, [r1, #12]
  402ee0:	6003      	str	r3, [r0, #0]
  402ee2:	2300      	movs	r3, #0
  402ee4:	4620      	mov	r0, r4
  402ee6:	60e3      	str	r3, [r4, #12]
  402ee8:	4b12      	ldr	r3, [pc, #72]	; (402f34 <tcp_pcb_remove+0x60>)
  402eea:	4798      	blx	r3
  402eec:	7e23      	ldrb	r3, [r4, #24]
  402eee:	2b0a      	cmp	r3, #10
  402ef0:	d00a      	beq.n	402f08 <tcp_pcb_remove+0x34>
  402ef2:	2b01      	cmp	r3, #1
  402ef4:	d008      	beq.n	402f08 <tcp_pcb_remove+0x34>
  402ef6:	7fa3      	ldrb	r3, [r4, #30]
  402ef8:	07da      	lsls	r2, r3, #31
  402efa:	d505      	bpl.n	402f08 <tcp_pcb_remove+0x34>
  402efc:	f043 0302 	orr.w	r3, r3, #2
  402f00:	4620      	mov	r0, r4
  402f02:	77a3      	strb	r3, [r4, #30]
  402f04:	4b0c      	ldr	r3, [pc, #48]	; (402f38 <tcp_pcb_remove+0x64>)
  402f06:	4798      	blx	r3
  402f08:	2300      	movs	r3, #0
  402f0a:	7623      	strb	r3, [r4, #24]
  402f0c:	bd10      	pop	{r4, pc}
  402f0e:	4a0b      	ldr	r2, [pc, #44]	; (402f3c <tcp_pcb_remove+0x68>)
  402f10:	2100      	movs	r1, #0
  402f12:	6013      	str	r3, [r2, #0]
  402f14:	b91b      	cbnz	r3, 402f1e <tcp_pcb_remove+0x4a>
  402f16:	2900      	cmp	r1, #0
  402f18:	d0e3      	beq.n	402ee2 <tcp_pcb_remove+0xe>
  402f1a:	6013      	str	r3, [r2, #0]
  402f1c:	e7e1      	b.n	402ee2 <tcp_pcb_remove+0xe>
  402f1e:	68d8      	ldr	r0, [r3, #12]
  402f20:	4284      	cmp	r4, r0
  402f22:	d104      	bne.n	402f2e <tcp_pcb_remove+0x5a>
  402f24:	b101      	cbz	r1, 402f28 <tcp_pcb_remove+0x54>
  402f26:	6013      	str	r3, [r2, #0]
  402f28:	68e2      	ldr	r2, [r4, #12]
  402f2a:	60da      	str	r2, [r3, #12]
  402f2c:	e7d9      	b.n	402ee2 <tcp_pcb_remove+0xe>
  402f2e:	2101      	movs	r1, #1
  402f30:	4603      	mov	r3, r0
  402f32:	e7ef      	b.n	402f14 <tcp_pcb_remove+0x40>
  402f34:	00402ad9 	.word	0x00402ad9
  402f38:	00404e2d 	.word	0x00404e2d
  402f3c:	204049d8 	.word	0x204049d8

00402f40 <tcp_close_shutdown>:
  402f40:	b537      	push	{r0, r1, r2, r4, r5, lr}
  402f42:	4604      	mov	r4, r0
  402f44:	7e03      	ldrb	r3, [r0, #24]
  402f46:	2900      	cmp	r1, #0
  402f48:	d041      	beq.n	402fce <tcp_close_shutdown+0x8e>
  402f4a:	2b04      	cmp	r3, #4
  402f4c:	d001      	beq.n	402f52 <tcp_close_shutdown+0x12>
  402f4e:	2b07      	cmp	r3, #7
  402f50:	d13d      	bne.n	402fce <tcp_close_shutdown+0x8e>
  402f52:	6fa2      	ldr	r2, [r4, #120]	; 0x78
  402f54:	b922      	cbnz	r2, 402f60 <tcp_close_shutdown+0x20>
  402f56:	8da1      	ldrh	r1, [r4, #44]	; 0x2c
  402f58:	f640 3268 	movw	r2, #2920	; 0xb68
  402f5c:	4291      	cmp	r1, r2
  402f5e:	d036      	beq.n	402fce <tcp_close_shutdown+0x8e>
  402f60:	8ba3      	ldrh	r3, [r4, #28]
  402f62:	4622      	mov	r2, r4
  402f64:	6aa1      	ldr	r1, [r4, #40]	; 0x28
  402f66:	9301      	str	r3, [sp, #4]
  402f68:	8b63      	ldrh	r3, [r4, #26]
  402f6a:	6d20      	ldr	r0, [r4, #80]	; 0x50
  402f6c:	9300      	str	r3, [sp, #0]
  402f6e:	1d23      	adds	r3, r4, #4
  402f70:	4d42      	ldr	r5, [pc, #264]	; (40307c <tcp_close_shutdown+0x13c>)
  402f72:	47a8      	blx	r5
  402f74:	4b42      	ldr	r3, [pc, #264]	; (403080 <tcp_close_shutdown+0x140>)
  402f76:	4620      	mov	r0, r4
  402f78:	4798      	blx	r3
  402f7a:	4a42      	ldr	r2, [pc, #264]	; (403084 <tcp_close_shutdown+0x144>)
  402f7c:	6813      	ldr	r3, [r2, #0]
  402f7e:	429c      	cmp	r4, r3
  402f80:	d102      	bne.n	402f88 <tcp_close_shutdown+0x48>
  402f82:	68e3      	ldr	r3, [r4, #12]
  402f84:	6013      	str	r3, [r2, #0]
  402f86:	e00c      	b.n	402fa2 <tcp_close_shutdown+0x62>
  402f88:	4a3f      	ldr	r2, [pc, #252]	; (403088 <tcp_close_shutdown+0x148>)
  402f8a:	2100      	movs	r1, #0
  402f8c:	6013      	str	r3, [r2, #0]
  402f8e:	b90b      	cbnz	r3, 402f94 <tcp_close_shutdown+0x54>
  402f90:	b139      	cbz	r1, 402fa2 <tcp_close_shutdown+0x62>
  402f92:	e7f7      	b.n	402f84 <tcp_close_shutdown+0x44>
  402f94:	68d8      	ldr	r0, [r3, #12]
  402f96:	4284      	cmp	r4, r0
  402f98:	d116      	bne.n	402fc8 <tcp_close_shutdown+0x88>
  402f9a:	b101      	cbz	r1, 402f9e <tcp_close_shutdown+0x5e>
  402f9c:	6013      	str	r3, [r2, #0]
  402f9e:	68e2      	ldr	r2, [r4, #12]
  402fa0:	60da      	str	r2, [r3, #12]
  402fa2:	4b3a      	ldr	r3, [pc, #232]	; (40308c <tcp_close_shutdown+0x14c>)
  402fa4:	2201      	movs	r2, #1
  402fa6:	2500      	movs	r5, #0
  402fa8:	701a      	strb	r2, [r3, #0]
  402faa:	7e23      	ldrb	r3, [r4, #24]
  402fac:	60e5      	str	r5, [r4, #12]
  402fae:	2b04      	cmp	r3, #4
  402fb0:	d13a      	bne.n	403028 <tcp_close_shutdown+0xe8>
  402fb2:	230a      	movs	r3, #10
  402fb4:	7623      	strb	r3, [r4, #24]
  402fb6:	4b36      	ldr	r3, [pc, #216]	; (403090 <tcp_close_shutdown+0x150>)
  402fb8:	681a      	ldr	r2, [r3, #0]
  402fba:	601c      	str	r4, [r3, #0]
  402fbc:	60e2      	str	r2, [r4, #12]
  402fbe:	4b35      	ldr	r3, [pc, #212]	; (403094 <tcp_close_shutdown+0x154>)
  402fc0:	4798      	blx	r3
  402fc2:	2000      	movs	r0, #0
  402fc4:	b003      	add	sp, #12
  402fc6:	bd30      	pop	{r4, r5, pc}
  402fc8:	2101      	movs	r1, #1
  402fca:	4603      	mov	r3, r0
  402fcc:	e7df      	b.n	402f8e <tcp_close_shutdown+0x4e>
  402fce:	2b07      	cmp	r3, #7
  402fd0:	d8f7      	bhi.n	402fc2 <tcp_close_shutdown+0x82>
  402fd2:	a201      	add	r2, pc, #4	; (adr r2, 402fd8 <tcp_close_shutdown+0x98>)
  402fd4:	f852 f023 	ldr.w	pc, [r2, r3, lsl #2]
  402fd8:	00402ff9 	.word	0x00402ff9
  402fdc:	00403035 	.word	0x00403035
  402fe0:	00403047 	.word	0x00403047
  402fe4:	00403057 	.word	0x00403057
  402fe8:	00403057 	.word	0x00403057
  402fec:	00402fc3 	.word	0x00402fc3
  402ff0:	00402fc3 	.word	0x00402fc3
  402ff4:	0040306d 	.word	0x0040306d
  402ff8:	8b63      	ldrh	r3, [r4, #26]
  402ffa:	b1ab      	cbz	r3, 403028 <tcp_close_shutdown+0xe8>
  402ffc:	4a26      	ldr	r2, [pc, #152]	; (403098 <tcp_close_shutdown+0x158>)
  402ffe:	6813      	ldr	r3, [r2, #0]
  403000:	429c      	cmp	r4, r3
  403002:	d102      	bne.n	40300a <tcp_close_shutdown+0xca>
  403004:	68e3      	ldr	r3, [r4, #12]
  403006:	6013      	str	r3, [r2, #0]
  403008:	e00c      	b.n	403024 <tcp_close_shutdown+0xe4>
  40300a:	4a1f      	ldr	r2, [pc, #124]	; (403088 <tcp_close_shutdown+0x148>)
  40300c:	2100      	movs	r1, #0
  40300e:	6013      	str	r3, [r2, #0]
  403010:	b90b      	cbnz	r3, 403016 <tcp_close_shutdown+0xd6>
  403012:	b139      	cbz	r1, 403024 <tcp_close_shutdown+0xe4>
  403014:	e7f7      	b.n	403006 <tcp_close_shutdown+0xc6>
  403016:	68d8      	ldr	r0, [r3, #12]
  403018:	4284      	cmp	r4, r0
  40301a:	d108      	bne.n	40302e <tcp_close_shutdown+0xee>
  40301c:	b101      	cbz	r1, 403020 <tcp_close_shutdown+0xe0>
  40301e:	6013      	str	r3, [r2, #0]
  403020:	68e2      	ldr	r2, [r4, #12]
  403022:	60da      	str	r2, [r3, #12]
  403024:	2300      	movs	r3, #0
  403026:	60e3      	str	r3, [r4, #12]
  403028:	4621      	mov	r1, r4
  40302a:	2002      	movs	r0, #2
  40302c:	e008      	b.n	403040 <tcp_close_shutdown+0x100>
  40302e:	2101      	movs	r1, #1
  403030:	4603      	mov	r3, r0
  403032:	e7ed      	b.n	403010 <tcp_close_shutdown+0xd0>
  403034:	4621      	mov	r1, r4
  403036:	4819      	ldr	r0, [pc, #100]	; (40309c <tcp_close_shutdown+0x15c>)
  403038:	4b19      	ldr	r3, [pc, #100]	; (4030a0 <tcp_close_shutdown+0x160>)
  40303a:	4798      	blx	r3
  40303c:	4621      	mov	r1, r4
  40303e:	2003      	movs	r0, #3
  403040:	4b18      	ldr	r3, [pc, #96]	; (4030a4 <tcp_close_shutdown+0x164>)
  403042:	4798      	blx	r3
  403044:	e7bd      	b.n	402fc2 <tcp_close_shutdown+0x82>
  403046:	4b16      	ldr	r3, [pc, #88]	; (4030a0 <tcp_close_shutdown+0x160>)
  403048:	4621      	mov	r1, r4
  40304a:	480e      	ldr	r0, [pc, #56]	; (403084 <tcp_close_shutdown+0x144>)
  40304c:	4798      	blx	r3
  40304e:	2201      	movs	r2, #1
  403050:	4b0e      	ldr	r3, [pc, #56]	; (40308c <tcp_close_shutdown+0x14c>)
  403052:	701a      	strb	r2, [r3, #0]
  403054:	e7e8      	b.n	403028 <tcp_close_shutdown+0xe8>
  403056:	4620      	mov	r0, r4
  403058:	4b13      	ldr	r3, [pc, #76]	; (4030a8 <tcp_close_shutdown+0x168>)
  40305a:	4798      	blx	r3
  40305c:	2800      	cmp	r0, #0
  40305e:	d1b1      	bne.n	402fc4 <tcp_close_shutdown+0x84>
  403060:	2305      	movs	r3, #5
  403062:	7623      	strb	r3, [r4, #24]
  403064:	4620      	mov	r0, r4
  403066:	4b11      	ldr	r3, [pc, #68]	; (4030ac <tcp_close_shutdown+0x16c>)
  403068:	4798      	blx	r3
  40306a:	e7aa      	b.n	402fc2 <tcp_close_shutdown+0x82>
  40306c:	4620      	mov	r0, r4
  40306e:	4b0e      	ldr	r3, [pc, #56]	; (4030a8 <tcp_close_shutdown+0x168>)
  403070:	4798      	blx	r3
  403072:	2800      	cmp	r0, #0
  403074:	d1a6      	bne.n	402fc4 <tcp_close_shutdown+0x84>
  403076:	2309      	movs	r3, #9
  403078:	e7f3      	b.n	403062 <tcp_close_shutdown+0x122>
  40307a:	bf00      	nop
  40307c:	004050cd 	.word	0x004050cd
  403080:	00402ad9 	.word	0x00402ad9
  403084:	204049cc 	.word	0x204049cc
  403088:	204049d8 	.word	0x204049d8
  40308c:	204049c8 	.word	0x204049c8
  403090:	204049e0 	.word	0x204049e0
  403094:	00401e55 	.word	0x00401e55
  403098:	204049dc 	.word	0x204049dc
  40309c:	204049d4 	.word	0x204049d4
  4030a0:	00402ed5 	.word	0x00402ed5
  4030a4:	00402215 	.word	0x00402215
  4030a8:	00404d65 	.word	0x00404d65
  4030ac:	00404e2d 	.word	0x00404e2d

004030b0 <tcp_abandon>:
  4030b0:	e92d 47f3 	stmdb	sp!, {r0, r1, r4, r5, r6, r7, r8, r9, sl, lr}
  4030b4:	7e03      	ldrb	r3, [r0, #24]
  4030b6:	4604      	mov	r4, r0
  4030b8:	468a      	mov	sl, r1
  4030ba:	4e22      	ldr	r6, [pc, #136]	; (403144 <tcp_abandon+0x94>)
  4030bc:	2b0a      	cmp	r3, #10
  4030be:	4b22      	ldr	r3, [pc, #136]	; (403148 <tcp_abandon+0x98>)
  4030c0:	d109      	bne.n	4030d6 <tcp_abandon+0x26>
  4030c2:	4601      	mov	r1, r0
  4030c4:	4821      	ldr	r0, [pc, #132]	; (40314c <tcp_abandon+0x9c>)
  4030c6:	4798      	blx	r3
  4030c8:	4621      	mov	r1, r4
  4030ca:	2002      	movs	r0, #2
  4030cc:	4633      	mov	r3, r6
  4030ce:	b002      	add	sp, #8
  4030d0:	e8bd 47f0 	ldmia.w	sp!, {r4, r5, r6, r7, r8, r9, sl, lr}
  4030d4:	4718      	bx	r3
  4030d6:	f8d0 8050 	ldr.w	r8, [r0, #80]	; 0x50
  4030da:	4601      	mov	r1, r0
  4030dc:	f8d0 9028 	ldr.w	r9, [r0, #40]	; 0x28
  4030e0:	f8d0 508c 	ldr.w	r5, [r0, #140]	; 0x8c
  4030e4:	6907      	ldr	r7, [r0, #16]
  4030e6:	481a      	ldr	r0, [pc, #104]	; (403150 <tcp_abandon+0xa0>)
  4030e8:	4798      	blx	r3
  4030ea:	2201      	movs	r2, #1
  4030ec:	4b19      	ldr	r3, [pc, #100]	; (403154 <tcp_abandon+0xa4>)
  4030ee:	6f20      	ldr	r0, [r4, #112]	; 0x70
  4030f0:	701a      	strb	r2, [r3, #0]
  4030f2:	b108      	cbz	r0, 4030f8 <tcp_abandon+0x48>
  4030f4:	4b18      	ldr	r3, [pc, #96]	; (403158 <tcp_abandon+0xa8>)
  4030f6:	4798      	blx	r3
  4030f8:	6ee0      	ldr	r0, [r4, #108]	; 0x6c
  4030fa:	b108      	cbz	r0, 403100 <tcp_abandon+0x50>
  4030fc:	4b16      	ldr	r3, [pc, #88]	; (403158 <tcp_abandon+0xa8>)
  4030fe:	4798      	blx	r3
  403100:	6f60      	ldr	r0, [r4, #116]	; 0x74
  403102:	b108      	cbz	r0, 403108 <tcp_abandon+0x58>
  403104:	4b14      	ldr	r3, [pc, #80]	; (403158 <tcp_abandon+0xa8>)
  403106:	4798      	blx	r3
  403108:	f1ba 0f00 	cmp.w	sl, #0
  40310c:	d00a      	beq.n	403124 <tcp_abandon+0x74>
  40310e:	8ba3      	ldrh	r3, [r4, #28]
  403110:	4640      	mov	r0, r8
  403112:	4622      	mov	r2, r4
  403114:	4649      	mov	r1, r9
  403116:	9301      	str	r3, [sp, #4]
  403118:	8b63      	ldrh	r3, [r4, #26]
  40311a:	f8df 8040 	ldr.w	r8, [pc, #64]	; 40315c <tcp_abandon+0xac>
  40311e:	9300      	str	r3, [sp, #0]
  403120:	1d23      	adds	r3, r4, #4
  403122:	47c0      	blx	r8
  403124:	4621      	mov	r1, r4
  403126:	2002      	movs	r0, #2
  403128:	47b0      	blx	r6
  40312a:	b13d      	cbz	r5, 40313c <tcp_abandon+0x8c>
  40312c:	f06f 0109 	mvn.w	r1, #9
  403130:	4638      	mov	r0, r7
  403132:	462b      	mov	r3, r5
  403134:	b002      	add	sp, #8
  403136:	e8bd 47f0 	ldmia.w	sp!, {r4, r5, r6, r7, r8, r9, sl, lr}
  40313a:	4718      	bx	r3
  40313c:	b002      	add	sp, #8
  40313e:	e8bd 87f0 	ldmia.w	sp!, {r4, r5, r6, r7, r8, r9, sl, pc}
  403142:	bf00      	nop
  403144:	00402215 	.word	0x00402215
  403148:	00402ed5 	.word	0x00402ed5
  40314c:	204049e0 	.word	0x204049e0
  403150:	204049cc 	.word	0x204049cc
  403154:	204049c8 	.word	0x204049c8
  403158:	00402a69 	.word	0x00402a69
  40315c:	004050cd 	.word	0x004050cd

00403160 <tcp_abort>:
  403160:	2101      	movs	r1, #1
  403162:	4b01      	ldr	r3, [pc, #4]	; (403168 <tcp_abort+0x8>)
  403164:	4718      	bx	r3
  403166:	bf00      	nop
  403168:	004030b1 	.word	0x004030b1

0040316c <tcp_next_iss>:
  40316c:	4b03      	ldr	r3, [pc, #12]	; (40317c <tcp_next_iss+0x10>)
  40316e:	4a04      	ldr	r2, [pc, #16]	; (403180 <tcp_next_iss+0x14>)
  403170:	6818      	ldr	r0, [r3, #0]
  403172:	6812      	ldr	r2, [r2, #0]
  403174:	4410      	add	r0, r2
  403176:	6018      	str	r0, [r3, #0]
  403178:	4770      	bx	lr
  40317a:	bf00      	nop
  40317c:	20400008 	.word	0x20400008
  403180:	204049d0 	.word	0x204049d0

00403184 <tcp_alloc>:
  403184:	e92d 41f0 	stmdb	sp!, {r4, r5, r6, r7, r8, lr}
  403188:	4680      	mov	r8, r0
  40318a:	4e42      	ldr	r6, [pc, #264]	; (403294 <tcp_alloc+0x110>)
  40318c:	2002      	movs	r0, #2
  40318e:	4f42      	ldr	r7, [pc, #264]	; (403298 <tcp_alloc+0x114>)
  403190:	47b0      	blx	r6
  403192:	4604      	mov	r4, r0
  403194:	2800      	cmp	r0, #0
  403196:	d12b      	bne.n	4031f0 <tcp_alloc+0x6c>
  403198:	4840      	ldr	r0, [pc, #256]	; (40329c <tcp_alloc+0x118>)
  40319a:	4d41      	ldr	r5, [pc, #260]	; (4032a0 <tcp_alloc+0x11c>)
  40319c:	47a8      	blx	r5
  40319e:	4b41      	ldr	r3, [pc, #260]	; (4032a4 <tcp_alloc+0x120>)
  4031a0:	6838      	ldr	r0, [r7, #0]
  4031a2:	4622      	mov	r2, r4
  4031a4:	681b      	ldr	r3, [r3, #0]
  4031a6:	2b00      	cmp	r3, #0
  4031a8:	d15d      	bne.n	403266 <tcp_alloc+0xe2>
  4031aa:	b12c      	cbz	r4, 4031b8 <tcp_alloc+0x34>
  4031ac:	4621      	mov	r1, r4
  4031ae:	483e      	ldr	r0, [pc, #248]	; (4032a8 <tcp_alloc+0x124>)
  4031b0:	47a8      	blx	r5
  4031b2:	4620      	mov	r0, r4
  4031b4:	4b3d      	ldr	r3, [pc, #244]	; (4032ac <tcp_alloc+0x128>)
  4031b6:	4798      	blx	r3
  4031b8:	2002      	movs	r0, #2
  4031ba:	47b0      	blx	r6
  4031bc:	4604      	mov	r4, r0
  4031be:	b9b8      	cbnz	r0, 4031f0 <tcp_alloc+0x6c>
  4031c0:	4641      	mov	r1, r8
  4031c2:	483b      	ldr	r0, [pc, #236]	; (4032b0 <tcp_alloc+0x12c>)
  4031c4:	47a8      	blx	r5
  4031c6:	4b3b      	ldr	r3, [pc, #236]	; (4032b4 <tcp_alloc+0x130>)
  4031c8:	f8d7 c000 	ldr.w	ip, [r7]
  4031cc:	f04f 0e7f 	mov.w	lr, #127	; 0x7f
  4031d0:	681b      	ldr	r3, [r3, #0]
  4031d2:	4622      	mov	r2, r4
  4031d4:	2b00      	cmp	r3, #0
  4031d6:	d14e      	bne.n	403276 <tcp_alloc+0xf2>
  4031d8:	b12c      	cbz	r4, 4031e6 <tcp_alloc+0x62>
  4031da:	4621      	mov	r1, r4
  4031dc:	4836      	ldr	r0, [pc, #216]	; (4032b8 <tcp_alloc+0x134>)
  4031de:	47a8      	blx	r5
  4031e0:	4620      	mov	r0, r4
  4031e2:	4b32      	ldr	r3, [pc, #200]	; (4032ac <tcp_alloc+0x128>)
  4031e4:	4798      	blx	r3
  4031e6:	2002      	movs	r0, #2
  4031e8:	47b0      	blx	r6
  4031ea:	4604      	mov	r4, r0
  4031ec:	2800      	cmp	r0, #0
  4031ee:	d037      	beq.n	403260 <tcp_alloc+0xdc>
  4031f0:	2298      	movs	r2, #152	; 0x98
  4031f2:	2100      	movs	r1, #0
  4031f4:	4b31      	ldr	r3, [pc, #196]	; (4032bc <tcp_alloc+0x138>)
  4031f6:	4620      	mov	r0, r4
  4031f8:	4798      	blx	r3
  4031fa:	f640 3368 	movw	r3, #2920	; 0xb68
  4031fe:	2100      	movs	r1, #0
  403200:	f884 8019 	strb.w	r8, [r4, #25]
  403204:	f8a4 3066 	strh.w	r3, [r4, #102]	; 0x66
  403208:	85a3      	strh	r3, [r4, #44]	; 0x2c
  40320a:	85e3      	strh	r3, [r4, #46]	; 0x2e
  40320c:	23ff      	movs	r3, #255	; 0xff
  40320e:	f8a4 1068 	strh.w	r1, [r4, #104]	; 0x68
  403212:	72a3      	strb	r3, [r4, #10]
  403214:	f44f 7306 	mov.w	r3, #536	; 0x218
  403218:	7261      	strb	r1, [r4, #9]
  40321a:	86e3      	strh	r3, [r4, #54]	; 0x36
  40321c:	2306      	movs	r3, #6
  40321e:	f8a4 1040 	strh.w	r1, [r4, #64]	; 0x40
  403222:	f8a4 3044 	strh.w	r3, [r4, #68]	; 0x44
  403226:	f8a4 3042 	strh.w	r3, [r4, #66]	; 0x42
  40322a:	f64f 73ff 	movw	r3, #65535	; 0xffff
  40322e:	86a3      	strh	r3, [r4, #52]	; 0x34
  403230:	2301      	movs	r3, #1
  403232:	f8a4 304c 	strh.w	r3, [r4, #76]	; 0x4c
  403236:	4b22      	ldr	r3, [pc, #136]	; (4032c0 <tcp_alloc+0x13c>)
  403238:	4798      	blx	r3
  40323a:	683b      	ldr	r3, [r7, #0]
  40323c:	65a0      	str	r0, [r4, #88]	; 0x58
  40323e:	6263      	str	r3, [r4, #36]	; 0x24
  403240:	4b20      	ldr	r3, [pc, #128]	; (4032c4 <tcp_alloc+0x140>)
  403242:	6520      	str	r0, [r4, #80]	; 0x50
  403244:	781b      	ldrb	r3, [r3, #0]
  403246:	64a0      	str	r0, [r4, #72]	; 0x48
  403248:	f884 3021 	strb.w	r3, [r4, #33]	; 0x21
  40324c:	4b1e      	ldr	r3, [pc, #120]	; (4032c8 <tcp_alloc+0x144>)
  40324e:	65e0      	str	r0, [r4, #92]	; 0x5c
  403250:	f8c4 3080 	str.w	r3, [r4, #128]	; 0x80
  403254:	4b1d      	ldr	r3, [pc, #116]	; (4032cc <tcp_alloc+0x148>)
  403256:	77e1      	strb	r1, [r4, #31]
  403258:	f8c4 3090 	str.w	r3, [r4, #144]	; 0x90
  40325c:	f884 1096 	strb.w	r1, [r4, #150]	; 0x96
  403260:	4620      	mov	r0, r4
  403262:	e8bd 81f0 	ldmia.w	sp!, {r4, r5, r6, r7, r8, pc}
  403266:	6a59      	ldr	r1, [r3, #36]	; 0x24
  403268:	1a41      	subs	r1, r0, r1
  40326a:	4291      	cmp	r1, r2
  40326c:	bf24      	itt	cs
  40326e:	461c      	movcs	r4, r3
  403270:	460a      	movcs	r2, r1
  403272:	68db      	ldr	r3, [r3, #12]
  403274:	e797      	b.n	4031a6 <tcp_alloc+0x22>
  403276:	7e58      	ldrb	r0, [r3, #25]
  403278:	4580      	cmp	r8, r0
  40327a:	d309      	bcc.n	403290 <tcp_alloc+0x10c>
  40327c:	4570      	cmp	r0, lr
  40327e:	d807      	bhi.n	403290 <tcp_alloc+0x10c>
  403280:	6a59      	ldr	r1, [r3, #36]	; 0x24
  403282:	ebac 0101 	sub.w	r1, ip, r1
  403286:	4291      	cmp	r1, r2
  403288:	bf22      	ittt	cs
  40328a:	4686      	movcs	lr, r0
  40328c:	460a      	movcs	r2, r1
  40328e:	461c      	movcs	r4, r3
  403290:	68db      	ldr	r3, [r3, #12]
  403292:	e79f      	b.n	4031d4 <tcp_alloc+0x50>
  403294:	004021d9 	.word	0x004021d9
  403298:	204049d0 	.word	0x204049d0
  40329c:	00409784 	.word	0x00409784
  4032a0:	00406415 	.word	0x00406415
  4032a4:	204049e0 	.word	0x204049e0
  4032a8:	004097b8 	.word	0x004097b8
  4032ac:	00403161 	.word	0x00403161
  4032b0:	004097f1 	.word	0x004097f1
  4032b4:	204049cc 	.word	0x204049cc
  4032b8:	00409828 	.word	0x00409828
  4032bc:	004065d1 	.word	0x004065d1
  4032c0:	0040316d 	.word	0x0040316d
  4032c4:	20402629 	.word	0x20402629
  4032c8:	00403355 	.word	0x00403355
  4032cc:	006ddd00 	.word	0x006ddd00

004032d0 <tcp_new>:
  4032d0:	2040      	movs	r0, #64	; 0x40
  4032d2:	4b01      	ldr	r3, [pc, #4]	; (4032d8 <tcp_new+0x8>)
  4032d4:	4718      	bx	r3
  4032d6:	bf00      	nop
  4032d8:	00403185 	.word	0x00403185

004032dc <tcp_eff_send_mss>:
  4032dc:	b510      	push	{r4, lr}
  4032de:	4b07      	ldr	r3, [pc, #28]	; (4032fc <tcp_eff_send_mss+0x20>)
  4032e0:	4604      	mov	r4, r0
  4032e2:	4608      	mov	r0, r1
  4032e4:	4798      	blx	r3
  4032e6:	b130      	cbz	r0, 4032f6 <tcp_eff_send_mss+0x1a>
  4032e8:	8c83      	ldrh	r3, [r0, #36]	; 0x24
  4032ea:	b123      	cbz	r3, 4032f6 <tcp_eff_send_mss+0x1a>
  4032ec:	3b28      	subs	r3, #40	; 0x28
  4032ee:	b29b      	uxth	r3, r3
  4032f0:	429c      	cmp	r4, r3
  4032f2:	bf28      	it	cs
  4032f4:	461c      	movcs	r4, r3
  4032f6:	4620      	mov	r0, r4
  4032f8:	bd10      	pop	{r4, pc}
  4032fa:	bf00      	nop
  4032fc:	00401479 	.word	0x00401479

00403300 <tcp_debug_print_state>:
  403300:	4b02      	ldr	r3, [pc, #8]	; (40330c <tcp_debug_print_state+0xc>)
  403302:	f853 1020 	ldr.w	r1, [r3, r0, lsl #2]
  403306:	4802      	ldr	r0, [pc, #8]	; (403310 <tcp_debug_print_state+0x10>)
  403308:	4b02      	ldr	r3, [pc, #8]	; (403314 <tcp_debug_print_state+0x14>)
  40330a:	4718      	bx	r3
  40330c:	00409d04 	.word	0x00409d04
  403310:	00409a48 	.word	0x00409a48
  403314:	00406415 	.word	0x00406415

00403318 <tcp_close>:
  403318:	b510      	push	{r4, lr}
  40331a:	4604      	mov	r4, r0
  40331c:	4b09      	ldr	r3, [pc, #36]	; (403344 <tcp_close+0x2c>)
  40331e:	480a      	ldr	r0, [pc, #40]	; (403348 <tcp_close+0x30>)
  403320:	4798      	blx	r3
  403322:	7e20      	ldrb	r0, [r4, #24]
  403324:	4b09      	ldr	r3, [pc, #36]	; (40334c <tcp_close+0x34>)
  403326:	4798      	blx	r3
  403328:	7e23      	ldrb	r3, [r4, #24]
  40332a:	4620      	mov	r0, r4
  40332c:	2101      	movs	r1, #1
  40332e:	2b01      	cmp	r3, #1
  403330:	bf1e      	ittt	ne
  403332:	7fa3      	ldrbne	r3, [r4, #30]
  403334:	f043 0310 	orrne.w	r3, r3, #16
  403338:	77a3      	strbne	r3, [r4, #30]
  40333a:	4b05      	ldr	r3, [pc, #20]	; (403350 <tcp_close+0x38>)
  40333c:	e8bd 4010 	ldmia.w	sp!, {r4, lr}
  403340:	4718      	bx	r3
  403342:	bf00      	nop
  403344:	00406415 	.word	0x00406415
  403348:	004098d9 	.word	0x004098d9
  40334c:	00403301 	.word	0x00403301
  403350:	00402f41 	.word	0x00402f41

00403354 <tcp_recv_null>:
  403354:	b510      	push	{r4, lr}
  403356:	4608      	mov	r0, r1
  403358:	4614      	mov	r4, r2
  40335a:	b13a      	cbz	r2, 40336c <tcp_recv_null+0x18>
  40335c:	4b06      	ldr	r3, [pc, #24]	; (403378 <tcp_recv_null+0x24>)
  40335e:	8911      	ldrh	r1, [r2, #8]
  403360:	4798      	blx	r3
  403362:	4620      	mov	r0, r4
  403364:	4b05      	ldr	r3, [pc, #20]	; (40337c <tcp_recv_null+0x28>)
  403366:	4798      	blx	r3
  403368:	2000      	movs	r0, #0
  40336a:	bd10      	pop	{r4, pc}
  40336c:	2b00      	cmp	r3, #0
  40336e:	d1fb      	bne.n	403368 <tcp_recv_null+0x14>
  403370:	4b03      	ldr	r3, [pc, #12]	; (403380 <tcp_recv_null+0x2c>)
  403372:	e8bd 4010 	ldmia.w	sp!, {r4, lr}
  403376:	4718      	bx	r3
  403378:	004029e9 	.word	0x004029e9
  40337c:	004023b9 	.word	0x004023b9
  403380:	00403319 	.word	0x00403319

00403384 <tcp_process_refused_data>:
  403384:	b5f8      	push	{r3, r4, r5, r6, r7, lr}
  403386:	2300      	movs	r3, #0
  403388:	6f86      	ldr	r6, [r0, #120]	; 0x78
  40338a:	f8d0 5080 	ldr.w	r5, [r0, #128]	; 0x80
  40338e:	4604      	mov	r4, r0
  403390:	7b77      	ldrb	r7, [r6, #13]
  403392:	6783      	str	r3, [r0, #120]	; 0x78
  403394:	b1e5      	cbz	r5, 4033d0 <tcp_process_refused_data+0x4c>
  403396:	4601      	mov	r1, r0
  403398:	4632      	mov	r2, r6
  40339a:	6900      	ldr	r0, [r0, #16]
  40339c:	47a8      	blx	r5
  40339e:	4605      	mov	r5, r0
  4033a0:	b9e8      	cbnz	r0, 4033de <tcp_process_refused_data+0x5a>
  4033a2:	06bb      	lsls	r3, r7, #26
  4033a4:	d512      	bpl.n	4033cc <tcp_process_refused_data+0x48>
  4033a6:	8da3      	ldrh	r3, [r4, #44]	; 0x2c
  4033a8:	f640 3268 	movw	r2, #2920	; 0xb68
  4033ac:	f8d4 6080 	ldr.w	r6, [r4, #128]	; 0x80
  4033b0:	4293      	cmp	r3, r2
  4033b2:	bf1c      	itt	ne
  4033b4:	3301      	addne	r3, #1
  4033b6:	85a3      	strhne	r3, [r4, #44]	; 0x2c
  4033b8:	b146      	cbz	r6, 4033cc <tcp_process_refused_data+0x48>
  4033ba:	2300      	movs	r3, #0
  4033bc:	4621      	mov	r1, r4
  4033be:	6920      	ldr	r0, [r4, #16]
  4033c0:	461a      	mov	r2, r3
  4033c2:	47b0      	blx	r6
  4033c4:	300a      	adds	r0, #10
  4033c6:	d101      	bne.n	4033cc <tcp_process_refused_data+0x48>
  4033c8:	f06f 0509 	mvn.w	r5, #9
  4033cc:	4628      	mov	r0, r5
  4033ce:	bdf8      	pop	{r3, r4, r5, r6, r7, pc}
  4033d0:	462b      	mov	r3, r5
  4033d2:	4601      	mov	r1, r0
  4033d4:	4632      	mov	r2, r6
  4033d6:	4628      	mov	r0, r5
  4033d8:	4d04      	ldr	r5, [pc, #16]	; (4033ec <tcp_process_refused_data+0x68>)
  4033da:	47a8      	blx	r5
  4033dc:	e7df      	b.n	40339e <tcp_process_refused_data+0x1a>
  4033de:	f110 050a 	adds.w	r5, r0, #10
  4033e2:	d0f1      	beq.n	4033c8 <tcp_process_refused_data+0x44>
  4033e4:	67a6      	str	r6, [r4, #120]	; 0x78
  4033e6:	2500      	movs	r5, #0
  4033e8:	e7f0      	b.n	4033cc <tcp_process_refused_data+0x48>
  4033ea:	bf00      	nop
  4033ec:	00403355 	.word	0x00403355

004033f0 <tcp_fasttmr>:
  4033f0:	e92d 4ff8 	stmdb	sp!, {r3, r4, r5, r6, r7, r8, r9, sl, fp, lr}
  4033f4:	4d1b      	ldr	r5, [pc, #108]	; (403464 <tcp_fasttmr+0x74>)
  4033f6:	4e1c      	ldr	r6, [pc, #112]	; (403468 <tcp_fasttmr+0x78>)
  4033f8:	782b      	ldrb	r3, [r5, #0]
  4033fa:	f8df 8078 	ldr.w	r8, [pc, #120]	; 403474 <tcp_fasttmr+0x84>
  4033fe:	3301      	adds	r3, #1
  403400:	702b      	strb	r3, [r5, #0]
  403402:	6834      	ldr	r4, [r6, #0]
  403404:	4f19      	ldr	r7, [pc, #100]	; (40346c <tcp_fasttmr+0x7c>)
  403406:	f8df 9070 	ldr.w	r9, [pc, #112]	; 403478 <tcp_fasttmr+0x88>
  40340a:	782b      	ldrb	r3, [r5, #0]
  40340c:	b90c      	cbnz	r4, 403412 <tcp_fasttmr+0x22>
  40340e:	e8bd 8ff8 	ldmia.w	sp!, {r3, r4, r5, r6, r7, r8, r9, sl, fp, pc}
  403412:	f894 2021 	ldrb.w	r2, [r4, #33]	; 0x21
  403416:	429a      	cmp	r2, r3
  403418:	d0f8      	beq.n	40340c <tcp_fasttmr+0x1c>
  40341a:	f884 3021 	strb.w	r3, [r4, #33]	; 0x21
  40341e:	7fa3      	ldrb	r3, [r4, #30]
  403420:	07db      	lsls	r3, r3, #31
  403422:	d50b      	bpl.n	40343c <tcp_fasttmr+0x4c>
  403424:	4638      	mov	r0, r7
  403426:	47c0      	blx	r8
  403428:	7fa3      	ldrb	r3, [r4, #30]
  40342a:	4620      	mov	r0, r4
  40342c:	f043 0302 	orr.w	r3, r3, #2
  403430:	77a3      	strb	r3, [r4, #30]
  403432:	47c8      	blx	r9
  403434:	7fa3      	ldrb	r3, [r4, #30]
  403436:	f023 0303 	bic.w	r3, r3, #3
  40343a:	77a3      	strb	r3, [r4, #30]
  40343c:	6fa3      	ldr	r3, [r4, #120]	; 0x78
  40343e:	f8d4 b00c 	ldr.w	fp, [r4, #12]
  403442:	b90b      	cbnz	r3, 403448 <tcp_fasttmr+0x58>
  403444:	465c      	mov	r4, fp
  403446:	e7e0      	b.n	40340a <tcp_fasttmr+0x1a>
  403448:	f8df a030 	ldr.w	sl, [pc, #48]	; 40347c <tcp_fasttmr+0x8c>
  40344c:	2300      	movs	r3, #0
  40344e:	4620      	mov	r0, r4
  403450:	f88a 3000 	strb.w	r3, [sl]
  403454:	4b06      	ldr	r3, [pc, #24]	; (403470 <tcp_fasttmr+0x80>)
  403456:	4798      	blx	r3
  403458:	f89a 3000 	ldrb.w	r3, [sl]
  40345c:	2b00      	cmp	r3, #0
  40345e:	d0f1      	beq.n	403444 <tcp_fasttmr+0x54>
  403460:	e7cf      	b.n	403402 <tcp_fasttmr+0x12>
  403462:	bf00      	nop
  403464:	20402629 	.word	0x20402629
  403468:	204049cc 	.word	0x204049cc
  40346c:	00409a53 	.word	0x00409a53
  403470:	00403385 	.word	0x00403385
  403474:	00406415 	.word	0x00406415
  403478:	00404e2d 	.word	0x00404e2d
  40347c:	204049c8 	.word	0x204049c8

00403480 <tcp_tmr>:
  403480:	4b07      	ldr	r3, [pc, #28]	; (4034a0 <tcp_tmr+0x20>)
  403482:	b510      	push	{r4, lr}
  403484:	4798      	blx	r3
  403486:	4a07      	ldr	r2, [pc, #28]	; (4034a4 <tcp_tmr+0x24>)
  403488:	7813      	ldrb	r3, [r2, #0]
  40348a:	3301      	adds	r3, #1
  40348c:	b2db      	uxtb	r3, r3
  40348e:	7013      	strb	r3, [r2, #0]
  403490:	07db      	lsls	r3, r3, #31
  403492:	d503      	bpl.n	40349c <tcp_tmr+0x1c>
  403494:	4b04      	ldr	r3, [pc, #16]	; (4034a8 <tcp_tmr+0x28>)
  403496:	e8bd 4010 	ldmia.w	sp!, {r4, lr}
  40349a:	4718      	bx	r3
  40349c:	bd10      	pop	{r4, pc}
  40349e:	bf00      	nop
  4034a0:	004033f1 	.word	0x004033f1
  4034a4:	20402628 	.word	0x20402628
  4034a8:	00402b89 	.word	0x00402b89

004034ac <tcp_debug_print_flags>:
  4034ac:	f010 0f01 	tst.w	r0, #1
  4034b0:	b570      	push	{r4, r5, r6, lr}
  4034b2:	4605      	mov	r5, r0
  4034b4:	4c12      	ldr	r4, [pc, #72]	; (403500 <tcp_debug_print_flags+0x54>)
  4034b6:	d001      	beq.n	4034bc <tcp_debug_print_flags+0x10>
  4034b8:	4812      	ldr	r0, [pc, #72]	; (403504 <tcp_debug_print_flags+0x58>)
  4034ba:	47a0      	blx	r4
  4034bc:	07aa      	lsls	r2, r5, #30
  4034be:	d501      	bpl.n	4034c4 <tcp_debug_print_flags+0x18>
  4034c0:	4811      	ldr	r0, [pc, #68]	; (403508 <tcp_debug_print_flags+0x5c>)
  4034c2:	47a0      	blx	r4
  4034c4:	076b      	lsls	r3, r5, #29
  4034c6:	d501      	bpl.n	4034cc <tcp_debug_print_flags+0x20>
  4034c8:	4810      	ldr	r0, [pc, #64]	; (40350c <tcp_debug_print_flags+0x60>)
  4034ca:	47a0      	blx	r4
  4034cc:	072e      	lsls	r6, r5, #28
  4034ce:	d501      	bpl.n	4034d4 <tcp_debug_print_flags+0x28>
  4034d0:	480f      	ldr	r0, [pc, #60]	; (403510 <tcp_debug_print_flags+0x64>)
  4034d2:	47a0      	blx	r4
  4034d4:	06e8      	lsls	r0, r5, #27
  4034d6:	d501      	bpl.n	4034dc <tcp_debug_print_flags+0x30>
  4034d8:	480e      	ldr	r0, [pc, #56]	; (403514 <tcp_debug_print_flags+0x68>)
  4034da:	47a0      	blx	r4
  4034dc:	06a9      	lsls	r1, r5, #26
  4034de:	d501      	bpl.n	4034e4 <tcp_debug_print_flags+0x38>
  4034e0:	480d      	ldr	r0, [pc, #52]	; (403518 <tcp_debug_print_flags+0x6c>)
  4034e2:	47a0      	blx	r4
  4034e4:	066a      	lsls	r2, r5, #25
  4034e6:	d501      	bpl.n	4034ec <tcp_debug_print_flags+0x40>
  4034e8:	480c      	ldr	r0, [pc, #48]	; (40351c <tcp_debug_print_flags+0x70>)
  4034ea:	47a0      	blx	r4
  4034ec:	062b      	lsls	r3, r5, #24
  4034ee:	d501      	bpl.n	4034f4 <tcp_debug_print_flags+0x48>
  4034f0:	480b      	ldr	r0, [pc, #44]	; (403520 <tcp_debug_print_flags+0x74>)
  4034f2:	47a0      	blx	r4
  4034f4:	4623      	mov	r3, r4
  4034f6:	480b      	ldr	r0, [pc, #44]	; (403524 <tcp_debug_print_flags+0x78>)
  4034f8:	e8bd 4070 	ldmia.w	sp!, {r4, r5, r6, lr}
  4034fc:	4718      	bx	r3
  4034fe:	bf00      	nop
  403500:	00406415 	.word	0x00406415
  403504:	00409a20 	.word	0x00409a20
  403508:	00409a25 	.word	0x00409a25
  40350c:	00409a2a 	.word	0x00409a2a
  403510:	00409a2f 	.word	0x00409a2f
  403514:	00409a34 	.word	0x00409a34
  403518:	00409a39 	.word	0x00409a39
  40351c:	00409a3e 	.word	0x00409a3e
  403520:	00409a43 	.word	0x00409a43
  403524:	0040a1bc 	.word	0x0040a1bc

00403528 <tcp_debug_print>:
  403528:	e92d 4ff0 	stmdb	sp!, {r4, r5, r6, r7, r8, r9, sl, fp, lr}
  40352c:	4f35      	ldr	r7, [pc, #212]	; (403604 <tcp_debug_print+0xdc>)
  40352e:	b08b      	sub	sp, #44	; 0x2c
  403530:	4604      	mov	r4, r0
  403532:	4d35      	ldr	r5, [pc, #212]	; (403608 <tcp_debug_print+0xe0>)
  403534:	4835      	ldr	r0, [pc, #212]	; (40360c <tcp_debug_print+0xe4>)
  403536:	47a8      	blx	r5
  403538:	4638      	mov	r0, r7
  40353a:	4e35      	ldr	r6, [pc, #212]	; (403610 <tcp_debug_print+0xe8>)
  40353c:	47a8      	blx	r5
  40353e:	8820      	ldrh	r0, [r4, #0]
  403540:	47b0      	blx	r6
  403542:	4680      	mov	r8, r0
  403544:	8860      	ldrh	r0, [r4, #2]
  403546:	47b0      	blx	r6
  403548:	4641      	mov	r1, r8
  40354a:	4602      	mov	r2, r0
  40354c:	4831      	ldr	r0, [pc, #196]	; (403614 <tcp_debug_print+0xec>)
  40354e:	47a8      	blx	r5
  403550:	4638      	mov	r0, r7
  403552:	47a8      	blx	r5
  403554:	f8df 80d8 	ldr.w	r8, [pc, #216]	; 403630 <tcp_debug_print+0x108>
  403558:	6860      	ldr	r0, [r4, #4]
  40355a:	47c0      	blx	r8
  40355c:	4601      	mov	r1, r0
  40355e:	482e      	ldr	r0, [pc, #184]	; (403618 <tcp_debug_print+0xf0>)
  403560:	47a8      	blx	r5
  403562:	4638      	mov	r0, r7
  403564:	47a8      	blx	r5
  403566:	68a0      	ldr	r0, [r4, #8]
  403568:	47c0      	blx	r8
  40356a:	4601      	mov	r1, r0
  40356c:	482b      	ldr	r0, [pc, #172]	; (40361c <tcp_debug_print+0xf4>)
  40356e:	47a8      	blx	r5
  403570:	4638      	mov	r0, r7
  403572:	47a8      	blx	r5
  403574:	89a0      	ldrh	r0, [r4, #12]
  403576:	47b0      	blx	r6
  403578:	4682      	mov	sl, r0
  40357a:	89a0      	ldrh	r0, [r4, #12]
  40357c:	47b0      	blx	r6
  40357e:	4683      	mov	fp, r0
  403580:	89a0      	ldrh	r0, [r4, #12]
  403582:	47b0      	blx	r6
  403584:	9009      	str	r0, [sp, #36]	; 0x24
  403586:	89a0      	ldrh	r0, [r4, #12]
  403588:	47b0      	blx	r6
  40358a:	4680      	mov	r8, r0
  40358c:	89a0      	ldrh	r0, [r4, #12]
  40358e:	47b0      	blx	r6
  403590:	4681      	mov	r9, r0
  403592:	89a0      	ldrh	r0, [r4, #12]
  403594:	47b0      	blx	r6
  403596:	9008      	str	r0, [sp, #32]
  403598:	89a0      	ldrh	r0, [r4, #12]
  40359a:	47b0      	blx	r6
  40359c:	9007      	str	r0, [sp, #28]
  40359e:	89e0      	ldrh	r0, [r4, #14]
  4035a0:	47b0      	blx	r6
  4035a2:	9907      	ldr	r1, [sp, #28]
  4035a4:	9004      	str	r0, [sp, #16]
  4035a6:	f3c9 0080 	ubfx	r0, r9, #2, #1
  4035aa:	9a08      	ldr	r2, [sp, #32]
  4035ac:	f001 0101 	and.w	r1, r1, #1
  4035b0:	9001      	str	r0, [sp, #4]
  4035b2:	f3c8 00c0 	ubfx	r0, r8, #3, #1
  4035b6:	9b09      	ldr	r3, [sp, #36]	; 0x24
  4035b8:	f3c2 0240 	ubfx	r2, r2, #1, #1
  4035bc:	9103      	str	r1, [sp, #12]
  4035be:	f3ca 310f 	ubfx	r1, sl, #12, #16
  4035c2:	9202      	str	r2, [sp, #8]
  4035c4:	f3c3 1300 	ubfx	r3, r3, #4, #1
  4035c8:	f3cb 1240 	ubfx	r2, fp, #5, #1
  4035cc:	9000      	str	r0, [sp, #0]
  4035ce:	4814      	ldr	r0, [pc, #80]	; (403620 <tcp_debug_print+0xf8>)
  4035d0:	47a8      	blx	r5
  4035d2:	89a0      	ldrh	r0, [r4, #12]
  4035d4:	47b0      	blx	r6
  4035d6:	4b13      	ldr	r3, [pc, #76]	; (403624 <tcp_debug_print+0xfc>)
  4035d8:	f000 003f 	and.w	r0, r0, #63	; 0x3f
  4035dc:	4798      	blx	r3
  4035de:	4812      	ldr	r0, [pc, #72]	; (403628 <tcp_debug_print+0x100>)
  4035e0:	47a8      	blx	r5
  4035e2:	4638      	mov	r0, r7
  4035e4:	47a8      	blx	r5
  4035e6:	8a20      	ldrh	r0, [r4, #16]
  4035e8:	47b0      	blx	r6
  4035ea:	4680      	mov	r8, r0
  4035ec:	8a60      	ldrh	r0, [r4, #18]
  4035ee:	47b0      	blx	r6
  4035f0:	4641      	mov	r1, r8
  4035f2:	4602      	mov	r2, r0
  4035f4:	480d      	ldr	r0, [pc, #52]	; (40362c <tcp_debug_print+0x104>)
  4035f6:	47a8      	blx	r5
  4035f8:	4638      	mov	r0, r7
  4035fa:	462b      	mov	r3, r5
  4035fc:	b00b      	add	sp, #44	; 0x2c
  4035fe:	e8bd 4ff0 	ldmia.w	sp!, {r4, r5, r6, r7, r8, r9, sl, fp, lr}
  403602:	4718      	bx	r3
  403604:	004098fd 	.word	0x004098fd
  403608:	00406415 	.word	0x00406415
  40360c:	004098f0 	.word	0x004098f0
  403610:	00401123 	.word	0x00401123
  403614:	00409920 	.word	0x00409920
  403618:	00409957 	.word	0x00409957
  40361c:	0040997e 	.word	0x0040997e
  403620:	004099a5 	.word	0x004099a5
  403624:	004034ad 	.word	0x004034ad
  403628:	004099e5 	.word	0x004099e5
  40362c:	004099ee 	.word	0x004099ee
  403630:	0040112d 	.word	0x0040112d

00403634 <tcp_oos_insert_segment>:
  403634:	e92d 4ff8 	stmdb	sp!, {r3, r4, r5, r6, r7, r8, r9, sl, fp, lr}
  403638:	6903      	ldr	r3, [r0, #16]
  40363a:	4605      	mov	r5, r0
  40363c:	4e1e      	ldr	r6, [pc, #120]	; (4036b8 <tcp_oos_insert_segment+0x84>)
  40363e:	460c      	mov	r4, r1
  403640:	8998      	ldrh	r0, [r3, #12]
  403642:	47b0      	blx	r6
  403644:	07c2      	lsls	r2, r0, #31
  403646:	d41b      	bmi.n	403680 <tcp_oos_insert_segment+0x4c>
  403648:	4f1c      	ldr	r7, [pc, #112]	; (4036bc <tcp_oos_insert_segment+0x88>)
  40364a:	f8df 807c 	ldr.w	r8, [pc, #124]	; 4036c8 <tcp_oos_insert_segment+0x94>
  40364e:	f8df 907c 	ldr.w	r9, [pc, #124]	; 4036cc <tcp_oos_insert_segment+0x98>
  403652:	b1cc      	cbz	r4, 403688 <tcp_oos_insert_segment+0x54>
  403654:	f8d4 e010 	ldr.w	lr, [r4, #16]
  403658:	6838      	ldr	r0, [r7, #0]
  40365a:	892b      	ldrh	r3, [r5, #8]
  40365c:	f8de 1004 	ldr.w	r1, [lr, #4]
  403660:	8922      	ldrh	r2, [r4, #8]
  403662:	4403      	add	r3, r0
  403664:	440a      	add	r2, r1
  403666:	1a9a      	subs	r2, r3, r2
  403668:	2a00      	cmp	r2, #0
  40366a:	da10      	bge.n	40368e <tcp_oos_insert_segment+0x5a>
  40366c:	1a5b      	subs	r3, r3, r1
  40366e:	2b00      	cmp	r3, #0
  403670:	dd0a      	ble.n	403688 <tcp_oos_insert_segment+0x54>
  403672:	1a09      	subs	r1, r1, r0
  403674:	4b12      	ldr	r3, [pc, #72]	; (4036c0 <tcp_oos_insert_segment+0x8c>)
  403676:	6868      	ldr	r0, [r5, #4]
  403678:	b289      	uxth	r1, r1
  40367a:	8129      	strh	r1, [r5, #8]
  40367c:	4798      	blx	r3
  40367e:	e003      	b.n	403688 <tcp_oos_insert_segment+0x54>
  403680:	4620      	mov	r0, r4
  403682:	2400      	movs	r4, #0
  403684:	4b0f      	ldr	r3, [pc, #60]	; (4036c4 <tcp_oos_insert_segment+0x90>)
  403686:	4798      	blx	r3
  403688:	602c      	str	r4, [r5, #0]
  40368a:	e8bd 8ff8 	ldmia.w	sp!, {r3, r4, r5, r6, r7, r8, r9, sl, fp, pc}
  40368e:	f8be 000c 	ldrh.w	r0, [lr, #12]
  403692:	47b0      	blx	r6
  403694:	07c3      	lsls	r3, r0, #31
  403696:	d509      	bpl.n	4036ac <tcp_oos_insert_segment+0x78>
  403698:	f8d5 b010 	ldr.w	fp, [r5, #16]
  40369c:	2001      	movs	r0, #1
  40369e:	f8bb a00c 	ldrh.w	sl, [fp, #12]
  4036a2:	47c0      	blx	r8
  4036a4:	ea4a 0000 	orr.w	r0, sl, r0
  4036a8:	f8ab 000c 	strh.w	r0, [fp, #12]
  4036ac:	f8d4 a000 	ldr.w	sl, [r4]
  4036b0:	4620      	mov	r0, r4
  4036b2:	47c8      	blx	r9
  4036b4:	4654      	mov	r4, sl
  4036b6:	e7cc      	b.n	403652 <tcp_oos_insert_segment+0x1e>
  4036b8:	00401123 	.word	0x00401123
  4036bc:	20402650 	.word	0x20402650
  4036c0:	00402525 	.word	0x00402525
  4036c4:	00402a69 	.word	0x00402a69
  4036c8:	0040111d 	.word	0x0040111d
  4036cc:	00402a41 	.word	0x00402a41

004036d0 <tcp_receive>:
  4036d0:	4ba4      	ldr	r3, [pc, #656]	; (403964 <tcp_receive+0x294>)
  4036d2:	e92d 4ff1 	stmdb	sp!, {r0, r4, r5, r6, r7, r8, r9, sl, fp, lr}
  4036d6:	781b      	ldrb	r3, [r3, #0]
  4036d8:	4604      	mov	r4, r0
  4036da:	4fa3      	ldr	r7, [pc, #652]	; (403968 <tcp_receive+0x298>)
  4036dc:	f013 0f10 	tst.w	r3, #16
  4036e0:	d070      	beq.n	4037c4 <tcp_receive+0xf4>
  4036e2:	6d63      	ldr	r3, [r4, #84]	; 0x54
  4036e4:	683a      	ldr	r2, [r7, #0]
  4036e6:	f8b0 1060 	ldrh.w	r1, [r0, #96]	; 0x60
  4036ea:	1a9d      	subs	r5, r3, r2
  4036ec:	6d80      	ldr	r0, [r0, #88]	; 0x58
  4036ee:	2d00      	cmp	r5, #0
  4036f0:	4d9e      	ldr	r5, [pc, #632]	; (40396c <tcp_receive+0x29c>)
  4036f2:	db0d      	blt.n	403710 <tcp_receive+0x40>
  4036f4:	4293      	cmp	r3, r2
  4036f6:	d103      	bne.n	403700 <tcp_receive+0x30>
  4036f8:	682b      	ldr	r3, [r5, #0]
  4036fa:	1ac3      	subs	r3, r0, r3
  4036fc:	2b00      	cmp	r3, #0
  4036fe:	db07      	blt.n	403710 <tcp_receive+0x40>
  403700:	682b      	ldr	r3, [r5, #0]
  403702:	4298      	cmp	r0, r3
  403704:	d11e      	bne.n	403744 <tcp_receive+0x74>
  403706:	4b9a      	ldr	r3, [pc, #616]	; (403970 <tcp_receive+0x2a0>)
  403708:	681b      	ldr	r3, [r3, #0]
  40370a:	89db      	ldrh	r3, [r3, #14]
  40370c:	428b      	cmp	r3, r1
  40370e:	d919      	bls.n	403744 <tcp_receive+0x74>
  403710:	4b97      	ldr	r3, [pc, #604]	; (403970 <tcp_receive+0x2a0>)
  403712:	f8b4 e062 	ldrh.w	lr, [r4, #98]	; 0x62
  403716:	681e      	ldr	r6, [r3, #0]
  403718:	89f3      	ldrh	r3, [r6, #14]
  40371a:	f8a4 3060 	strh.w	r3, [r4, #96]	; 0x60
  40371e:	89f6      	ldrh	r6, [r6, #14]
  403720:	6562      	str	r2, [r4, #84]	; 0x54
  403722:	45b6      	cmp	lr, r6
  403724:	682a      	ldr	r2, [r5, #0]
  403726:	bf38      	it	cc
  403728:	f8a4 6062 	strhcc.w	r6, [r4, #98]	; 0x62
  40372c:	65a2      	str	r2, [r4, #88]	; 0x58
  40372e:	f894 2095 	ldrb.w	r2, [r4, #149]	; 0x95
  403732:	2b00      	cmp	r3, #0
  403734:	f040 810a 	bne.w	40394c <tcp_receive+0x27c>
  403738:	b922      	cbnz	r2, 403744 <tcp_receive+0x74>
  40373a:	f884 3094 	strb.w	r3, [r4, #148]	; 0x94
  40373e:	2301      	movs	r3, #1
  403740:	f884 3095 	strb.w	r3, [r4, #149]	; 0x95
  403744:	682a      	ldr	r2, [r5, #0]
  403746:	6ca6      	ldr	r6, [r4, #72]	; 0x48
  403748:	1b93      	subs	r3, r2, r6
  40374a:	2b00      	cmp	r3, #0
  40374c:	f300 8122 	bgt.w	403994 <tcp_receive+0x2c4>
  403750:	2300      	movs	r3, #0
  403752:	f8a4 3064 	strh.w	r3, [r4, #100]	; 0x64
  403756:	4b87      	ldr	r3, [pc, #540]	; (403974 <tcp_receive+0x2a4>)
  403758:	881b      	ldrh	r3, [r3, #0]
  40375a:	2b00      	cmp	r3, #0
  40375c:	f040 838e 	bne.w	403e7c <tcp_receive+0x7ac>
  403760:	4401      	add	r1, r0
  403762:	f8b4 3060 	ldrh.w	r3, [r4, #96]	; 0x60
  403766:	6da0      	ldr	r0, [r4, #88]	; 0x58
  403768:	4403      	add	r3, r0
  40376a:	4299      	cmp	r1, r3
  40376c:	f040 8386 	bne.w	403e7c <tcp_receive+0x7ac>
  403770:	f9b4 3034 	ldrsh.w	r3, [r4, #52]	; 0x34
  403774:	2b00      	cmp	r3, #0
  403776:	f2c0 8381 	blt.w	403e7c <tcp_receive+0x7ac>
  40377a:	42b2      	cmp	r2, r6
  40377c:	f040 837e 	bne.w	403e7c <tcp_receive+0x7ac>
  403780:	f894 2047 	ldrb.w	r2, [r4, #71]	; 0x47
  403784:	1c53      	adds	r3, r2, #1
  403786:	b2db      	uxtb	r3, r3
  403788:	429a      	cmp	r2, r3
  40378a:	bf38      	it	cc
  40378c:	f884 3047 	strbcc.w	r3, [r4, #71]	; 0x47
  403790:	f894 3047 	ldrb.w	r3, [r4, #71]	; 0x47
  403794:	2b03      	cmp	r3, #3
  403796:	f240 80de 	bls.w	403956 <tcp_receive+0x286>
  40379a:	f8b4 204c 	ldrh.w	r2, [r4, #76]	; 0x4c
  40379e:	8ee3      	ldrh	r3, [r4, #54]	; 0x36
  4037a0:	4413      	add	r3, r2
  4037a2:	b29b      	uxth	r3, r3
  4037a4:	429a      	cmp	r2, r3
  4037a6:	d201      	bcs.n	4037ac <tcp_receive+0xdc>
  4037a8:	f8a4 304c 	strh.w	r3, [r4, #76]	; 0x4c
  4037ac:	f8df 91e0 	ldr.w	r9, [pc, #480]	; 403990 <tcp_receive+0x2c0>
  4037b0:	f8df 81cc 	ldr.w	r8, [pc, #460]	; 403980 <tcp_receive+0x2b0>
  4037b4:	6ee3      	ldr	r3, [r4, #108]	; 0x6c
  4037b6:	2b00      	cmp	r3, #0
  4037b8:	f040 8170 	bne.w	403a9c <tcp_receive+0x3cc>
  4037bc:	6ba2      	ldr	r2, [r4, #56]	; 0x38
  4037be:	2a00      	cmp	r2, #0
  4037c0:	f040 81a8 	bne.w	403b14 <tcp_receive+0x444>
  4037c4:	4b6b      	ldr	r3, [pc, #428]	; (403974 <tcp_receive+0x2a4>)
  4037c6:	6aa2      	ldr	r2, [r4, #40]	; 0x28
  4037c8:	8818      	ldrh	r0, [r3, #0]
  4037ca:	4698      	mov	r8, r3
  4037cc:	2800      	cmp	r0, #0
  4037ce:	f000 8348 	beq.w	403e62 <tcp_receive+0x792>
  4037d2:	7e23      	ldrb	r3, [r4, #24]
  4037d4:	2b06      	cmp	r3, #6
  4037d6:	f200 8344 	bhi.w	403e62 <tcp_receive+0x792>
  4037da:	683b      	ldr	r3, [r7, #0]
  4037dc:	1ad6      	subs	r6, r2, r3
  4037de:	2e01      	cmp	r6, #1
  4037e0:	f100 81c6 	bmi.w	403b70 <tcp_receive+0x4a0>
  4037e4:	f1c3 0101 	rsb	r1, r3, #1
  4037e8:	1a09      	subs	r1, r1, r0
  4037ea:	4411      	add	r1, r2
  4037ec:	2900      	cmp	r1, #0
  4037ee:	f300 81bf 	bgt.w	403b70 <tcp_receive+0x4a0>
  4037f2:	4d61      	ldr	r5, [pc, #388]	; (403978 <tcp_receive+0x2a8>)
  4037f4:	4631      	mov	r1, r6
  4037f6:	6868      	ldr	r0, [r5, #4]
  4037f8:	8943      	ldrh	r3, [r0, #10]
  4037fa:	429e      	cmp	r6, r3
  4037fc:	f340 81b6 	ble.w	403b6c <tcp_receive+0x49c>
  403800:	8903      	ldrh	r3, [r0, #8]
  403802:	1b9b      	subs	r3, r3, r6
  403804:	2600      	movs	r6, #0
  403806:	b29b      	uxth	r3, r3
  403808:	8942      	ldrh	r2, [r0, #10]
  40380a:	4291      	cmp	r1, r2
  40380c:	f300 81a9 	bgt.w	403b62 <tcp_receive+0x492>
  403810:	4249      	negs	r1, r1
  403812:	b209      	sxth	r1, r1
  403814:	4b59      	ldr	r3, [pc, #356]	; (40397c <tcp_receive+0x2ac>)
  403816:	4798      	blx	r3
  403818:	8929      	ldrh	r1, [r5, #8]
  40381a:	683b      	ldr	r3, [r7, #0]
  40381c:	6aa2      	ldr	r2, [r4, #40]	; 0x28
  40381e:	440b      	add	r3, r1
  403820:	603a      	str	r2, [r7, #0]
  403822:	1a9b      	subs	r3, r3, r2
  403824:	812b      	strh	r3, [r5, #8]
  403826:	692b      	ldr	r3, [r5, #16]
  403828:	605a      	str	r2, [r3, #4]
  40382a:	6839      	ldr	r1, [r7, #0]
  40382c:	6aa2      	ldr	r2, [r4, #40]	; 0x28
  40382e:	1a8b      	subs	r3, r1, r2
  403830:	2b00      	cmp	r3, #0
  403832:	f2c0 8310 	blt.w	403e56 <tcp_receive+0x786>
  403836:	1c4b      	adds	r3, r1, #1
  403838:	8da0      	ldrh	r0, [r4, #44]	; 0x2c
  40383a:	1a9b      	subs	r3, r3, r2
  40383c:	1a1b      	subs	r3, r3, r0
  40383e:	2b00      	cmp	r3, #0
  403840:	f300 8309 	bgt.w	403e56 <tcp_receive+0x786>
  403844:	4291      	cmp	r1, r2
  403846:	f040 8256 	bne.w	403cf6 <tcp_receive+0x626>
  40384a:	4d4b      	ldr	r5, [pc, #300]	; (403978 <tcp_receive+0x2a8>)
  40384c:	4e4c      	ldr	r6, [pc, #304]	; (403980 <tcp_receive+0x2b0>)
  40384e:	692b      	ldr	r3, [r5, #16]
  403850:	f8b5 9008 	ldrh.w	r9, [r5, #8]
  403854:	8998      	ldrh	r0, [r3, #12]
  403856:	47b0      	blx	r6
  403858:	f010 0003 	ands.w	r0, r0, #3
  40385c:	8da3      	ldrh	r3, [r4, #44]	; 0x2c
  40385e:	bf18      	it	ne
  403860:	2001      	movne	r0, #1
  403862:	4448      	add	r0, r9
  403864:	b280      	uxth	r0, r0
  403866:	4283      	cmp	r3, r0
  403868:	f8a8 0000 	strh.w	r0, [r8]
  40386c:	d22f      	bcs.n	4038ce <tcp_receive+0x1fe>
  40386e:	692b      	ldr	r3, [r5, #16]
  403870:	8998      	ldrh	r0, [r3, #12]
  403872:	47b0      	blx	r6
  403874:	07c2      	lsls	r2, r0, #31
  403876:	d50f      	bpl.n	403898 <tcp_receive+0x1c8>
  403878:	f8d5 a010 	ldr.w	sl, [r5, #16]
  40387c:	f8ba 900c 	ldrh.w	r9, [sl, #12]
  403880:	4648      	mov	r0, r9
  403882:	f429 597c 	bic.w	r9, r9, #16128	; 0x3f00
  403886:	47b0      	blx	r6
  403888:	4b3e      	ldr	r3, [pc, #248]	; (403984 <tcp_receive+0x2b4>)
  40388a:	f000 003e 	and.w	r0, r0, #62	; 0x3e
  40388e:	4798      	blx	r3
  403890:	ea49 0900 	orr.w	r9, r9, r0
  403894:	f8aa 900c 	strh.w	r9, [sl, #12]
  403898:	8da3      	ldrh	r3, [r4, #44]	; 0x2c
  40389a:	812b      	strh	r3, [r5, #8]
  40389c:	692b      	ldr	r3, [r5, #16]
  40389e:	8998      	ldrh	r0, [r3, #12]
  4038a0:	47b0      	blx	r6
  4038a2:	0783      	lsls	r3, r0, #30
  4038a4:	6868      	ldr	r0, [r5, #4]
  4038a6:	bf42      	ittt	mi
  4038a8:	892b      	ldrhmi	r3, [r5, #8]
  4038aa:	f103 33ff 	addmi.w	r3, r3, #4294967295
  4038ae:	812b      	strhmi	r3, [r5, #8]
  4038b0:	4b35      	ldr	r3, [pc, #212]	; (403988 <tcp_receive+0x2b8>)
  4038b2:	8929      	ldrh	r1, [r5, #8]
  4038b4:	4798      	blx	r3
  4038b6:	692b      	ldr	r3, [r5, #16]
  4038b8:	f8b5 9008 	ldrh.w	r9, [r5, #8]
  4038bc:	8998      	ldrh	r0, [r3, #12]
  4038be:	47b0      	blx	r6
  4038c0:	f010 0003 	ands.w	r0, r0, #3
  4038c4:	bf18      	it	ne
  4038c6:	2001      	movne	r0, #1
  4038c8:	4481      	add	r9, r0
  4038ca:	f8a8 9000 	strh.w	r9, [r8]
  4038ce:	6f63      	ldr	r3, [r4, #116]	; 0x74
  4038d0:	2b00      	cmp	r3, #0
  4038d2:	f000 815b 	beq.w	403b8c <tcp_receive+0x4bc>
  4038d6:	692b      	ldr	r3, [r5, #16]
  4038d8:	8998      	ldrh	r0, [r3, #12]
  4038da:	47b0      	blx	r6
  4038dc:	07c0      	lsls	r0, r0, #31
  4038de:	f100 8186 	bmi.w	403bee <tcp_receive+0x51e>
  4038e2:	f8d4 9074 	ldr.w	r9, [r4, #116]	; 0x74
  4038e6:	f1b9 0f00 	cmp.w	r9, #0
  4038ea:	d02c      	beq.n	403946 <tcp_receive+0x276>
  4038ec:	f8d9 e010 	ldr.w	lr, [r9, #16]
  4038f0:	6838      	ldr	r0, [r7, #0]
  4038f2:	f8b8 3000 	ldrh.w	r3, [r8]
  4038f6:	f8de 2004 	ldr.w	r2, [lr, #4]
  4038fa:	f8b9 1008 	ldrh.w	r1, [r9, #8]
  4038fe:	4403      	add	r3, r0
  403900:	4411      	add	r1, r2
  403902:	1a59      	subs	r1, r3, r1
  403904:	2900      	cmp	r1, #0
  403906:	f280 8175 	bge.w	403bf4 <tcp_receive+0x524>
  40390a:	1a9b      	subs	r3, r3, r2
  40390c:	2b00      	cmp	r3, #0
  40390e:	dd1a      	ble.n	403946 <tcp_receive+0x276>
  403910:	692b      	ldr	r3, [r5, #16]
  403912:	1a12      	subs	r2, r2, r0
  403914:	812a      	strh	r2, [r5, #8]
  403916:	8998      	ldrh	r0, [r3, #12]
  403918:	47b0      	blx	r6
  40391a:	0783      	lsls	r3, r0, #30
  40391c:	6868      	ldr	r0, [r5, #4]
  40391e:	bf42      	ittt	mi
  403920:	892b      	ldrhmi	r3, [r5, #8]
  403922:	f103 33ff 	addmi.w	r3, r3, #4294967295
  403926:	812b      	strhmi	r3, [r5, #8]
  403928:	4b17      	ldr	r3, [pc, #92]	; (403988 <tcp_receive+0x2b8>)
  40392a:	8929      	ldrh	r1, [r5, #8]
  40392c:	4798      	blx	r3
  40392e:	692b      	ldr	r3, [r5, #16]
  403930:	f8b5 a008 	ldrh.w	sl, [r5, #8]
  403934:	8998      	ldrh	r0, [r3, #12]
  403936:	47b0      	blx	r6
  403938:	f010 0003 	ands.w	r0, r0, #3
  40393c:	bf18      	it	ne
  40393e:	2001      	movne	r0, #1
  403940:	4482      	add	sl, r0
  403942:	f8a8 a000 	strh.w	sl, [r8]
  403946:	f8c4 9074 	str.w	r9, [r4, #116]	; 0x74
  40394a:	e11f      	b.n	403b8c <tcp_receive+0x4bc>
  40394c:	2a00      	cmp	r2, #0
  40394e:	f43f aef9 	beq.w	403744 <tcp_receive+0x74>
  403952:	2300      	movs	r3, #0
  403954:	e6f4      	b.n	403740 <tcp_receive+0x70>
  403956:	f47f af29 	bne.w	4037ac <tcp_receive+0xdc>
  40395a:	4620      	mov	r0, r4
  40395c:	4b0b      	ldr	r3, [pc, #44]	; (40398c <tcp_receive+0x2bc>)
  40395e:	4798      	blx	r3
  403960:	e724      	b.n	4037ac <tcp_receive+0xdc>
  403962:	bf00      	nop
  403964:	20402630 	.word	0x20402630
  403968:	20402650 	.word	0x20402650
  40396c:	2040262c 	.word	0x2040262c
  403970:	20402654 	.word	0x20402654
  403974:	20402658 	.word	0x20402658
  403978:	20402634 	.word	0x20402634
  40397c:	00402341 	.word	0x00402341
  403980:	00401123 	.word	0x00401123
  403984:	0040111d 	.word	0x0040111d
  403988:	00402525 	.word	0x00402525
  40398c:	00405205 	.word	0x00405205
  403990:	0040112d 	.word	0x0040112d
  403994:	6d21      	ldr	r1, [r4, #80]	; 0x50
  403996:	1a51      	subs	r1, r2, r1
  403998:	2900      	cmp	r1, #0
  40399a:	dc7b      	bgt.n	403a94 <tcp_receive+0x3c4>
  40399c:	7fa1      	ldrb	r1, [r4, #30]
  40399e:	b29b      	uxth	r3, r3
  4039a0:	2000      	movs	r0, #0
  4039a2:	64a2      	str	r2, [r4, #72]	; 0x48
  4039a4:	074e      	lsls	r6, r1, #29
  4039a6:	f9b4 6040 	ldrsh.w	r6, [r4, #64]	; 0x40
  4039aa:	f8a4 3064 	strh.w	r3, [r4, #100]	; 0x64
  4039ae:	bf48      	it	mi
  4039b0:	f021 0104 	bicmi.w	r1, r1, #4
  4039b4:	f884 0046 	strb.w	r0, [r4, #70]	; 0x46
  4039b8:	f884 0047 	strb.w	r0, [r4, #71]	; 0x47
  4039bc:	bf42      	ittt	mi
  4039be:	77a1      	strbmi	r1, [r4, #30]
  4039c0:	f8b4 104e 	ldrhmi.w	r1, [r4, #78]	; 0x4e
  4039c4:	f8a4 104c 	strhmi.w	r1, [r4, #76]	; 0x4c
  4039c8:	f8b4 1042 	ldrh.w	r1, [r4, #66]	; 0x42
  4039cc:	eb01 01e6 	add.w	r1, r1, r6, asr #3
  4039d0:	f8a4 1044 	strh.w	r1, [r4, #68]	; 0x44
  4039d4:	f8b4 1066 	ldrh.w	r1, [r4, #102]	; 0x66
  4039d8:	440b      	add	r3, r1
  4039da:	f8a4 3066 	strh.w	r3, [r4, #102]	; 0x66
  4039de:	7e23      	ldrb	r3, [r4, #24]
  4039e0:	2b03      	cmp	r3, #3
  4039e2:	d90c      	bls.n	4039fe <tcp_receive+0x32e>
  4039e4:	f8b4 304e 	ldrh.w	r3, [r4, #78]	; 0x4e
  4039e8:	f8b4 204c 	ldrh.w	r2, [r4, #76]	; 0x4c
  4039ec:	4293      	cmp	r3, r2
  4039ee:	8ee3      	ldrh	r3, [r4, #54]	; 0x36
  4039f0:	d915      	bls.n	403a1e <tcp_receive+0x34e>
  4039f2:	4413      	add	r3, r2
  4039f4:	b29b      	uxth	r3, r3
  4039f6:	429a      	cmp	r2, r3
  4039f8:	bf38      	it	cc
  4039fa:	f8a4 304c 	strhcc.w	r3, [r4, #76]	; 0x4c
  4039fe:	f8df 8264 	ldr.w	r8, [pc, #612]	; 403c64 <tcp_receive+0x594>
  403a02:	4e91      	ldr	r6, [pc, #580]	; (403c48 <tcp_receive+0x578>)
  403a04:	f8df 9248 	ldr.w	r9, [pc, #584]	; 403c50 <tcp_receive+0x580>
  403a08:	6f23      	ldr	r3, [r4, #112]	; 0x70
  403a0a:	b963      	cbnz	r3, 403a26 <tcp_receive+0x356>
  403a0c:	6f22      	ldr	r2, [r4, #112]	; 0x70
  403a0e:	2300      	movs	r3, #0
  403a10:	2a00      	cmp	r2, #0
  403a12:	d13d      	bne.n	403a90 <tcp_receive+0x3c0>
  403a14:	f64f 72ff 	movw	r2, #65535	; 0xffff
  403a18:	86a2      	strh	r2, [r4, #52]	; 0x34
  403a1a:	77e3      	strb	r3, [r4, #31]
  403a1c:	e6c6      	b.n	4037ac <tcp_receive+0xdc>
  403a1e:	435b      	muls	r3, r3
  403a20:	fb93 f3f2 	sdiv	r3, r3, r2
  403a24:	e7e5      	b.n	4039f2 <tcp_receive+0x322>
  403a26:	691b      	ldr	r3, [r3, #16]
  403a28:	6858      	ldr	r0, [r3, #4]
  403a2a:	47c0      	blx	r8
  403a2c:	6f23      	ldr	r3, [r4, #112]	; 0x70
  403a2e:	4682      	mov	sl, r0
  403a30:	f8b3 b008 	ldrh.w	fp, [r3, #8]
  403a34:	691b      	ldr	r3, [r3, #16]
  403a36:	8998      	ldrh	r0, [r3, #12]
  403a38:	47b0      	blx	r6
  403a3a:	f010 0003 	ands.w	r0, r0, #3
  403a3e:	682b      	ldr	r3, [r5, #0]
  403a40:	bf18      	it	ne
  403a42:	2001      	movne	r0, #1
  403a44:	ebaa 0303 	sub.w	r3, sl, r3
  403a48:	4458      	add	r0, fp
  403a4a:	4418      	add	r0, r3
  403a4c:	2800      	cmp	r0, #0
  403a4e:	dcdd      	bgt.n	403a0c <tcp_receive+0x33c>
  403a50:	f8d4 a070 	ldr.w	sl, [r4, #112]	; 0x70
  403a54:	f8da 3000 	ldr.w	r3, [sl]
  403a58:	6723      	str	r3, [r4, #112]	; 0x70
  403a5a:	f8b4 3064 	ldrh.w	r3, [r4, #100]	; 0x64
  403a5e:	b15b      	cbz	r3, 403a78 <tcp_receive+0x3a8>
  403a60:	f8da 3010 	ldr.w	r3, [sl, #16]
  403a64:	8998      	ldrh	r0, [r3, #12]
  403a66:	47b0      	blx	r6
  403a68:	07c0      	lsls	r0, r0, #31
  403a6a:	bf42      	ittt	mi
  403a6c:	f8b4 3064 	ldrhmi.w	r3, [r4, #100]	; 0x64
  403a70:	f103 33ff 	addmi.w	r3, r3, #4294967295
  403a74:	f8a4 3064 	strhmi.w	r3, [r4, #100]	; 0x64
  403a78:	f8da 0004 	ldr.w	r0, [sl, #4]
  403a7c:	47c8      	blx	r9
  403a7e:	f8b4 3068 	ldrh.w	r3, [r4, #104]	; 0x68
  403a82:	1a18      	subs	r0, r3, r0
  403a84:	4b71      	ldr	r3, [pc, #452]	; (403c4c <tcp_receive+0x57c>)
  403a86:	f8a4 0068 	strh.w	r0, [r4, #104]	; 0x68
  403a8a:	4650      	mov	r0, sl
  403a8c:	4798      	blx	r3
  403a8e:	e7bb      	b.n	403a08 <tcp_receive+0x338>
  403a90:	86a3      	strh	r3, [r4, #52]	; 0x34
  403a92:	e7c2      	b.n	403a1a <tcp_receive+0x34a>
  403a94:	2300      	movs	r3, #0
  403a96:	f8a4 3064 	strh.w	r3, [r4, #100]	; 0x64
  403a9a:	e687      	b.n	4037ac <tcp_receive+0xdc>
  403a9c:	691b      	ldr	r3, [r3, #16]
  403a9e:	682e      	ldr	r6, [r5, #0]
  403aa0:	6858      	ldr	r0, [r3, #4]
  403aa2:	47c8      	blx	r9
  403aa4:	6ee3      	ldr	r3, [r4, #108]	; 0x6c
  403aa6:	4683      	mov	fp, r0
  403aa8:	f8b3 a008 	ldrh.w	sl, [r3, #8]
  403aac:	691b      	ldr	r3, [r3, #16]
  403aae:	eba6 060b 	sub.w	r6, r6, fp
  403ab2:	8998      	ldrh	r0, [r3, #12]
  403ab4:	47c0      	blx	r8
  403ab6:	f010 0003 	ands.w	r0, r0, #3
  403aba:	bf18      	it	ne
  403abc:	2001      	movne	r0, #1
  403abe:	4450      	add	r0, sl
  403ac0:	1a36      	subs	r6, r6, r0
  403ac2:	2e00      	cmp	r6, #0
  403ac4:	f6ff ae7a 	blt.w	4037bc <tcp_receive+0xec>
  403ac8:	682b      	ldr	r3, [r5, #0]
  403aca:	6d22      	ldr	r2, [r4, #80]	; 0x50
  403acc:	1a9b      	subs	r3, r3, r2
  403ace:	2b00      	cmp	r3, #0
  403ad0:	f73f ae74 	bgt.w	4037bc <tcp_receive+0xec>
  403ad4:	6ee6      	ldr	r6, [r4, #108]	; 0x6c
  403ad6:	6833      	ldr	r3, [r6, #0]
  403ad8:	66e3      	str	r3, [r4, #108]	; 0x6c
  403ada:	b90b      	cbnz	r3, 403ae0 <tcp_receive+0x410>
  403adc:	f8a4 306a 	strh.w	r3, [r4, #106]	; 0x6a
  403ae0:	f8b4 3064 	ldrh.w	r3, [r4, #100]	; 0x64
  403ae4:	b153      	cbz	r3, 403afc <tcp_receive+0x42c>
  403ae6:	6933      	ldr	r3, [r6, #16]
  403ae8:	8998      	ldrh	r0, [r3, #12]
  403aea:	47c0      	blx	r8
  403aec:	07c1      	lsls	r1, r0, #31
  403aee:	bf42      	ittt	mi
  403af0:	f8b4 3064 	ldrhmi.w	r3, [r4, #100]	; 0x64
  403af4:	f103 33ff 	addmi.w	r3, r3, #4294967295
  403af8:	f8a4 3064 	strhmi.w	r3, [r4, #100]	; 0x64
  403afc:	6870      	ldr	r0, [r6, #4]
  403afe:	4b54      	ldr	r3, [pc, #336]	; (403c50 <tcp_receive+0x580>)
  403b00:	4798      	blx	r3
  403b02:	f8b4 3068 	ldrh.w	r3, [r4, #104]	; 0x68
  403b06:	1a18      	subs	r0, r3, r0
  403b08:	4b50      	ldr	r3, [pc, #320]	; (403c4c <tcp_receive+0x57c>)
  403b0a:	f8a4 0068 	strh.w	r0, [r4, #104]	; 0x68
  403b0e:	4630      	mov	r0, r6
  403b10:	4798      	blx	r3
  403b12:	e64f      	b.n	4037b4 <tcp_receive+0xe4>
  403b14:	6be3      	ldr	r3, [r4, #60]	; 0x3c
  403b16:	6829      	ldr	r1, [r5, #0]
  403b18:	1a5b      	subs	r3, r3, r1
  403b1a:	2b00      	cmp	r3, #0
  403b1c:	f6bf ae52 	bge.w	4037c4 <tcp_receive+0xf4>
  403b20:	4b4c      	ldr	r3, [pc, #304]	; (403c54 <tcp_receive+0x584>)
  403b22:	f9b4 0040 	ldrsh.w	r0, [r4, #64]	; 0x40
  403b26:	6819      	ldr	r1, [r3, #0]
  403b28:	1a89      	subs	r1, r1, r2
  403b2a:	f9b4 2042 	ldrsh.w	r2, [r4, #66]	; 0x42
  403b2e:	eba1 01e0 	sub.w	r1, r1, r0, asr #3
  403b32:	eba2 02a2 	sub.w	r2, r2, r2, asr #2
  403b36:	b289      	uxth	r1, r1
  403b38:	b20b      	sxth	r3, r1
  403b3a:	4408      	add	r0, r1
  403b3c:	2b00      	cmp	r3, #0
  403b3e:	b200      	sxth	r0, r0
  403b40:	bfb8      	it	lt
  403b42:	4249      	neglt	r1, r1
  403b44:	f8a4 0040 	strh.w	r0, [r4, #64]	; 0x40
  403b48:	bfb8      	it	lt
  403b4a:	b20b      	sxthlt	r3, r1
  403b4c:	4413      	add	r3, r2
  403b4e:	b29b      	uxth	r3, r3
  403b50:	f8a4 3042 	strh.w	r3, [r4, #66]	; 0x42
  403b54:	eb03 03e0 	add.w	r3, r3, r0, asr #3
  403b58:	f8a4 3044 	strh.w	r3, [r4, #68]	; 0x44
  403b5c:	2300      	movs	r3, #0
  403b5e:	63a3      	str	r3, [r4, #56]	; 0x38
  403b60:	e630      	b.n	4037c4 <tcp_receive+0xf4>
  403b62:	8103      	strh	r3, [r0, #8]
  403b64:	1a89      	subs	r1, r1, r2
  403b66:	8146      	strh	r6, [r0, #10]
  403b68:	6800      	ldr	r0, [r0, #0]
  403b6a:	e64d      	b.n	403808 <tcp_receive+0x138>
  403b6c:	4271      	negs	r1, r6
  403b6e:	e650      	b.n	403812 <tcp_receive+0x142>
  403b70:	1a9b      	subs	r3, r3, r2
  403b72:	2b00      	cmp	r3, #0
  403b74:	bfbe      	ittt	lt
  403b76:	7fa3      	ldrblt	r3, [r4, #30]
  403b78:	f043 0302 	orrlt.w	r3, r3, #2
  403b7c:	77a3      	strblt	r3, [r4, #30]
  403b7e:	e654      	b.n	40382a <tcp_receive+0x15a>
  403b80:	6803      	ldr	r3, [r0, #0]
  403b82:	6763      	str	r3, [r4, #116]	; 0x74
  403b84:	47c8      	blx	r9
  403b86:	6f60      	ldr	r0, [r4, #116]	; 0x74
  403b88:	2800      	cmp	r0, #0
  403b8a:	d1f9      	bne.n	403b80 <tcp_receive+0x4b0>
  403b8c:	f8b8 1000 	ldrh.w	r1, [r8]
  403b90:	4620      	mov	r0, r4
  403b92:	8da3      	ldrh	r3, [r4, #44]	; 0x2c
  403b94:	683a      	ldr	r2, [r7, #0]
  403b96:	1a5b      	subs	r3, r3, r1
  403b98:	f8df 80cc 	ldr.w	r8, [pc, #204]	; 403c68 <tcp_receive+0x598>
  403b9c:	440a      	add	r2, r1
  403b9e:	85a3      	strh	r3, [r4, #44]	; 0x2c
  403ba0:	62a2      	str	r2, [r4, #40]	; 0x28
  403ba2:	47c0      	blx	r8
  403ba4:	686b      	ldr	r3, [r5, #4]
  403ba6:	891a      	ldrh	r2, [r3, #8]
  403ba8:	b11a      	cbz	r2, 403bb2 <tcp_receive+0x4e2>
  403baa:	4a2b      	ldr	r2, [pc, #172]	; (403c58 <tcp_receive+0x588>)
  403bac:	6013      	str	r3, [r2, #0]
  403bae:	2300      	movs	r3, #0
  403bb0:	606b      	str	r3, [r5, #4]
  403bb2:	692b      	ldr	r3, [r5, #16]
  403bb4:	f8df 90a0 	ldr.w	r9, [pc, #160]	; 403c58 <tcp_receive+0x588>
  403bb8:	8998      	ldrh	r0, [r3, #12]
  403bba:	47b0      	blx	r6
  403bbc:	07c5      	lsls	r5, r0, #31
  403bbe:	f8df a09c 	ldr.w	sl, [pc, #156]	; 403c5c <tcp_receive+0x58c>
  403bc2:	bf41      	itttt	mi
  403bc4:	4a25      	ldrmi	r2, [pc, #148]	; (403c5c <tcp_receive+0x58c>)
  403bc6:	7813      	ldrbmi	r3, [r2, #0]
  403bc8:	f043 0320 	orrmi.w	r3, r3, #32
  403bcc:	7013      	strbmi	r3, [r2, #0]
  403bce:	6f65      	ldr	r5, [r4, #116]	; 0x74
  403bd0:	b125      	cbz	r5, 403bdc <tcp_receive+0x50c>
  403bd2:	6929      	ldr	r1, [r5, #16]
  403bd4:	6aa2      	ldr	r2, [r4, #40]	; 0x28
  403bd6:	684b      	ldr	r3, [r1, #4]
  403bd8:	4293      	cmp	r3, r2
  403bda:	d047      	beq.n	403c6c <tcp_receive+0x59c>
  403bdc:	7fa3      	ldrb	r3, [r4, #30]
  403bde:	07d9      	lsls	r1, r3, #31
  403be0:	f140 8083 	bpl.w	403cea <tcp_receive+0x61a>
  403be4:	f023 0301 	bic.w	r3, r3, #1
  403be8:	f043 0302 	orr.w	r3, r3, #2
  403bec:	e07f      	b.n	403cee <tcp_receive+0x61e>
  403bee:	f8df 905c 	ldr.w	r9, [pc, #92]	; 403c4c <tcp_receive+0x57c>
  403bf2:	e7c8      	b.n	403b86 <tcp_receive+0x4b6>
  403bf4:	f8be 000c 	ldrh.w	r0, [lr, #12]
  403bf8:	47b0      	blx	r6
  403bfa:	07c1      	lsls	r1, r0, #31
  403bfc:	d51c      	bpl.n	403c38 <tcp_receive+0x568>
  403bfe:	692b      	ldr	r3, [r5, #16]
  403c00:	8998      	ldrh	r0, [r3, #12]
  403c02:	47b0      	blx	r6
  403c04:	0782      	lsls	r2, r0, #30
  403c06:	d417      	bmi.n	403c38 <tcp_receive+0x568>
  403c08:	f8d5 a010 	ldr.w	sl, [r5, #16]
  403c0c:	2001      	movs	r0, #1
  403c0e:	4b14      	ldr	r3, [pc, #80]	; (403c60 <tcp_receive+0x590>)
  403c10:	f8ba b00c 	ldrh.w	fp, [sl, #12]
  403c14:	4798      	blx	r3
  403c16:	ea4b 0000 	orr.w	r0, fp, r0
  403c1a:	f8aa 000c 	strh.w	r0, [sl, #12]
  403c1e:	692a      	ldr	r2, [r5, #16]
  403c20:	f8b5 a008 	ldrh.w	sl, [r5, #8]
  403c24:	8990      	ldrh	r0, [r2, #12]
  403c26:	47b0      	blx	r6
  403c28:	f010 0003 	ands.w	r0, r0, #3
  403c2c:	bf18      	it	ne
  403c2e:	2001      	movne	r0, #1
  403c30:	eb0a 0300 	add.w	r3, sl, r0
  403c34:	f8a8 3000 	strh.w	r3, [r8]
  403c38:	f8d9 a000 	ldr.w	sl, [r9]
  403c3c:	4648      	mov	r0, r9
  403c3e:	4b03      	ldr	r3, [pc, #12]	; (403c4c <tcp_receive+0x57c>)
  403c40:	4798      	blx	r3
  403c42:	46d1      	mov	r9, sl
  403c44:	e64f      	b.n	4038e6 <tcp_receive+0x216>
  403c46:	bf00      	nop
  403c48:	00401123 	.word	0x00401123
  403c4c:	00402a41 	.word	0x00402a41
  403c50:	00402579 	.word	0x00402579
  403c54:	204049d0 	.word	0x204049d0
  403c58:	20402648 	.word	0x20402648
  403c5c:	2040264c 	.word	0x2040264c
  403c60:	0040111d 	.word	0x0040111d
  403c64:	0040112d 	.word	0x0040112d
  403c68:	004029b5 	.word	0x004029b5
  403c6c:	603b      	str	r3, [r7, #0]
  403c6e:	8988      	ldrh	r0, [r1, #12]
  403c70:	f8b5 b008 	ldrh.w	fp, [r5, #8]
  403c74:	47b0      	blx	r6
  403c76:	f010 0003 	ands.w	r0, r0, #3
  403c7a:	6aa3      	ldr	r3, [r4, #40]	; 0x28
  403c7c:	bf18      	it	ne
  403c7e:	2001      	movne	r0, #1
  403c80:	4458      	add	r0, fp
  403c82:	4418      	add	r0, r3
  403c84:	62a0      	str	r0, [r4, #40]	; 0x28
  403c86:	692a      	ldr	r2, [r5, #16]
  403c88:	f8b5 b008 	ldrh.w	fp, [r5, #8]
  403c8c:	8990      	ldrh	r0, [r2, #12]
  403c8e:	47b0      	blx	r6
  403c90:	f010 0003 	ands.w	r0, r0, #3
  403c94:	8da3      	ldrh	r3, [r4, #44]	; 0x2c
  403c96:	bf18      	it	ne
  403c98:	2001      	movne	r0, #1
  403c9a:	4458      	add	r0, fp
  403c9c:	1a18      	subs	r0, r3, r0
  403c9e:	85a0      	strh	r0, [r4, #44]	; 0x2c
  403ca0:	4620      	mov	r0, r4
  403ca2:	47c0      	blx	r8
  403ca4:	6869      	ldr	r1, [r5, #4]
  403ca6:	890b      	ldrh	r3, [r1, #8]
  403ca8:	b133      	cbz	r3, 403cb8 <tcp_receive+0x5e8>
  403caa:	f8d9 0000 	ldr.w	r0, [r9]
  403cae:	b1c8      	cbz	r0, 403ce4 <tcp_receive+0x614>
  403cb0:	4b74      	ldr	r3, [pc, #464]	; (403e84 <tcp_receive+0x7b4>)
  403cb2:	4798      	blx	r3
  403cb4:	2300      	movs	r3, #0
  403cb6:	606b      	str	r3, [r5, #4]
  403cb8:	692b      	ldr	r3, [r5, #16]
  403cba:	8998      	ldrh	r0, [r3, #12]
  403cbc:	47b0      	blx	r6
  403cbe:	07c0      	lsls	r0, r0, #31
  403cc0:	d50a      	bpl.n	403cd8 <tcp_receive+0x608>
  403cc2:	f89a 3000 	ldrb.w	r3, [sl]
  403cc6:	f043 0320 	orr.w	r3, r3, #32
  403cca:	f88a 3000 	strb.w	r3, [sl]
  403cce:	7e23      	ldrb	r3, [r4, #24]
  403cd0:	2b04      	cmp	r3, #4
  403cd2:	bf04      	itt	eq
  403cd4:	2307      	moveq	r3, #7
  403cd6:	7623      	strbeq	r3, [r4, #24]
  403cd8:	682b      	ldr	r3, [r5, #0]
  403cda:	4628      	mov	r0, r5
  403cdc:	6763      	str	r3, [r4, #116]	; 0x74
  403cde:	4b6a      	ldr	r3, [pc, #424]	; (403e88 <tcp_receive+0x7b8>)
  403ce0:	4798      	blx	r3
  403ce2:	e774      	b.n	403bce <tcp_receive+0x4fe>
  403ce4:	f8c9 1000 	str.w	r1, [r9]
  403ce8:	e7e4      	b.n	403cb4 <tcp_receive+0x5e4>
  403cea:	f043 0301 	orr.w	r3, r3, #1
  403cee:	77a3      	strb	r3, [r4, #30]
  403cf0:	b001      	add	sp, #4
  403cf2:	e8bd 8ff0 	ldmia.w	sp!, {r4, r5, r6, r7, r8, r9, sl, fp, pc}
  403cf6:	4620      	mov	r0, r4
  403cf8:	4b64      	ldr	r3, [pc, #400]	; (403e8c <tcp_receive+0x7bc>)
  403cfa:	4798      	blx	r3
  403cfc:	6f65      	ldr	r5, [r4, #116]	; 0x74
  403cfe:	b925      	cbnz	r5, 403d0a <tcp_receive+0x63a>
  403d00:	4863      	ldr	r0, [pc, #396]	; (403e90 <tcp_receive+0x7c0>)
  403d02:	4b64      	ldr	r3, [pc, #400]	; (403e94 <tcp_receive+0x7c4>)
  403d04:	4798      	blx	r3
  403d06:	6760      	str	r0, [r4, #116]	; 0x74
  403d08:	e7f2      	b.n	403cf0 <tcp_receive+0x620>
  403d0a:	683b      	ldr	r3, [r7, #0]
  403d0c:	2600      	movs	r6, #0
  403d0e:	f103 3eff 	add.w	lr, r3, #4294967295
  403d12:	f103 0c01 	add.w	ip, r3, #1
  403d16:	6928      	ldr	r0, [r5, #16]
  403d18:	6842      	ldr	r2, [r0, #4]
  403d1a:	429a      	cmp	r2, r3
  403d1c:	d114      	bne.n	403d48 <tcp_receive+0x678>
  403d1e:	485c      	ldr	r0, [pc, #368]	; (403e90 <tcp_receive+0x7c0>)
  403d20:	892b      	ldrh	r3, [r5, #8]
  403d22:	8902      	ldrh	r2, [r0, #8]
  403d24:	429a      	cmp	r2, r3
  403d26:	d9e3      	bls.n	403cf0 <tcp_receive+0x620>
  403d28:	4b5a      	ldr	r3, [pc, #360]	; (403e94 <tcp_receive+0x7c4>)
  403d2a:	4798      	blx	r3
  403d2c:	2800      	cmp	r0, #0
  403d2e:	d0df      	beq.n	403cf0 <tcp_receive+0x620>
  403d30:	b146      	cbz	r6, 403d44 <tcp_receive+0x674>
  403d32:	6030      	str	r0, [r6, #0]
  403d34:	4629      	mov	r1, r5
  403d36:	4b58      	ldr	r3, [pc, #352]	; (403e98 <tcp_receive+0x7c8>)
  403d38:	b001      	add	sp, #4
  403d3a:	e8bd 4ff0 	ldmia.w	sp!, {r4, r5, r6, r7, r8, r9, sl, fp, lr}
  403d3e:	4718      	bx	r3
  403d40:	460d      	mov	r5, r1
  403d42:	e7e8      	b.n	403d16 <tcp_receive+0x646>
  403d44:	6760      	str	r0, [r4, #116]	; 0x74
  403d46:	e7f5      	b.n	403d34 <tcp_receive+0x664>
  403d48:	b94e      	cbnz	r6, 403d5e <tcp_receive+0x68e>
  403d4a:	1a99      	subs	r1, r3, r2
  403d4c:	2900      	cmp	r1, #0
  403d4e:	da28      	bge.n	403da2 <tcp_receive+0x6d2>
  403d50:	484f      	ldr	r0, [pc, #316]	; (403e90 <tcp_receive+0x7c0>)
  403d52:	4b50      	ldr	r3, [pc, #320]	; (403e94 <tcp_receive+0x7c4>)
  403d54:	4798      	blx	r3
  403d56:	2800      	cmp	r0, #0
  403d58:	d0ca      	beq.n	403cf0 <tcp_receive+0x620>
  403d5a:	6760      	str	r0, [r4, #116]	; 0x74
  403d5c:	e7ea      	b.n	403d34 <tcp_receive+0x664>
  403d5e:	6931      	ldr	r1, [r6, #16]
  403d60:	6849      	ldr	r1, [r1, #4]
  403d62:	ebae 0101 	sub.w	r1, lr, r1
  403d66:	2900      	cmp	r1, #0
  403d68:	db1b      	blt.n	403da2 <tcp_receive+0x6d2>
  403d6a:	ebac 0102 	sub.w	r1, ip, r2
  403d6e:	2900      	cmp	r1, #0
  403d70:	dc17      	bgt.n	403da2 <tcp_receive+0x6d2>
  403d72:	4847      	ldr	r0, [pc, #284]	; (403e90 <tcp_receive+0x7c0>)
  403d74:	4b47      	ldr	r3, [pc, #284]	; (403e94 <tcp_receive+0x7c4>)
  403d76:	4798      	blx	r3
  403d78:	4604      	mov	r4, r0
  403d7a:	2800      	cmp	r0, #0
  403d7c:	d0b8      	beq.n	403cf0 <tcp_receive+0x620>
  403d7e:	6933      	ldr	r3, [r6, #16]
  403d80:	6839      	ldr	r1, [r7, #0]
  403d82:	685a      	ldr	r2, [r3, #4]
  403d84:	8933      	ldrh	r3, [r6, #8]
  403d86:	4413      	add	r3, r2
  403d88:	1a5b      	subs	r3, r3, r1
  403d8a:	2b00      	cmp	r3, #0
  403d8c:	dd05      	ble.n	403d9a <tcp_receive+0x6ca>
  403d8e:	1a89      	subs	r1, r1, r2
  403d90:	6870      	ldr	r0, [r6, #4]
  403d92:	4b42      	ldr	r3, [pc, #264]	; (403e9c <tcp_receive+0x7cc>)
  403d94:	b289      	uxth	r1, r1
  403d96:	8131      	strh	r1, [r6, #8]
  403d98:	4798      	blx	r3
  403d9a:	6034      	str	r4, [r6, #0]
  403d9c:	4629      	mov	r1, r5
  403d9e:	4620      	mov	r0, r4
  403da0:	e7c9      	b.n	403d36 <tcp_receive+0x666>
  403da2:	6829      	ldr	r1, [r5, #0]
  403da4:	462e      	mov	r6, r5
  403da6:	2900      	cmp	r1, #0
  403da8:	d1ca      	bne.n	403d40 <tcp_receive+0x670>
  403daa:	1a9b      	subs	r3, r3, r2
  403dac:	2b00      	cmp	r3, #0
  403dae:	dd9f      	ble.n	403cf0 <tcp_receive+0x620>
  403db0:	8980      	ldrh	r0, [r0, #12]
  403db2:	4e3b      	ldr	r6, [pc, #236]	; (403ea0 <tcp_receive+0x7d0>)
  403db4:	47b0      	blx	r6
  403db6:	07c2      	lsls	r2, r0, #31
  403db8:	d49a      	bmi.n	403cf0 <tcp_receive+0x620>
  403dba:	4835      	ldr	r0, [pc, #212]	; (403e90 <tcp_receive+0x7c0>)
  403dbc:	4b35      	ldr	r3, [pc, #212]	; (403e94 <tcp_receive+0x7c4>)
  403dbe:	4798      	blx	r3
  403dc0:	6028      	str	r0, [r5, #0]
  403dc2:	2800      	cmp	r0, #0
  403dc4:	d094      	beq.n	403cf0 <tcp_receive+0x620>
  403dc6:	692b      	ldr	r3, [r5, #16]
  403dc8:	6839      	ldr	r1, [r7, #0]
  403dca:	685a      	ldr	r2, [r3, #4]
  403dcc:	892b      	ldrh	r3, [r5, #8]
  403dce:	4413      	add	r3, r2
  403dd0:	1a5b      	subs	r3, r3, r1
  403dd2:	2b00      	cmp	r3, #0
  403dd4:	dd05      	ble.n	403de2 <tcp_receive+0x712>
  403dd6:	1a89      	subs	r1, r1, r2
  403dd8:	6868      	ldr	r0, [r5, #4]
  403dda:	4b30      	ldr	r3, [pc, #192]	; (403e9c <tcp_receive+0x7cc>)
  403ddc:	b289      	uxth	r1, r1
  403dde:	8129      	strh	r1, [r5, #8]
  403de0:	4798      	blx	r3
  403de2:	683b      	ldr	r3, [r7, #0]
  403de4:	f8b8 2000 	ldrh.w	r2, [r8]
  403de8:	6aa1      	ldr	r1, [r4, #40]	; 0x28
  403dea:	441a      	add	r2, r3
  403dec:	8da3      	ldrh	r3, [r4, #44]	; 0x2c
  403dee:	440b      	add	r3, r1
  403df0:	429a      	cmp	r2, r3
  403df2:	f67f af7d 	bls.w	403cf0 <tcp_receive+0x620>
  403df6:	682b      	ldr	r3, [r5, #0]
  403df8:	691b      	ldr	r3, [r3, #16]
  403dfa:	8998      	ldrh	r0, [r3, #12]
  403dfc:	47b0      	blx	r6
  403dfe:	07c3      	lsls	r3, r0, #31
  403e00:	d510      	bpl.n	403e24 <tcp_receive+0x754>
  403e02:	682b      	ldr	r3, [r5, #0]
  403e04:	f8d3 a010 	ldr.w	sl, [r3, #16]
  403e08:	f8ba 900c 	ldrh.w	r9, [sl, #12]
  403e0c:	4648      	mov	r0, r9
  403e0e:	f429 597c 	bic.w	r9, r9, #16128	; 0x3f00
  403e12:	47b0      	blx	r6
  403e14:	4b23      	ldr	r3, [pc, #140]	; (403ea4 <tcp_receive+0x7d4>)
  403e16:	f000 003e 	and.w	r0, r0, #62	; 0x3e
  403e1a:	4798      	blx	r3
  403e1c:	ea49 0900 	orr.w	r9, r9, r0
  403e20:	f8aa 900c 	strh.w	r9, [sl, #12]
  403e24:	8da3      	ldrh	r3, [r4, #44]	; 0x2c
  403e26:	6839      	ldr	r1, [r7, #0]
  403e28:	682a      	ldr	r2, [r5, #0]
  403e2a:	1a5b      	subs	r3, r3, r1
  403e2c:	6aa1      	ldr	r1, [r4, #40]	; 0x28
  403e2e:	440b      	add	r3, r1
  403e30:	8113      	strh	r3, [r2, #8]
  403e32:	682b      	ldr	r3, [r5, #0]
  403e34:	8919      	ldrh	r1, [r3, #8]
  403e36:	6858      	ldr	r0, [r3, #4]
  403e38:	4b18      	ldr	r3, [pc, #96]	; (403e9c <tcp_receive+0x7cc>)
  403e3a:	4798      	blx	r3
  403e3c:	682b      	ldr	r3, [r5, #0]
  403e3e:	891c      	ldrh	r4, [r3, #8]
  403e40:	691b      	ldr	r3, [r3, #16]
  403e42:	8998      	ldrh	r0, [r3, #12]
  403e44:	47b0      	blx	r6
  403e46:	f010 0003 	ands.w	r0, r0, #3
  403e4a:	bf18      	it	ne
  403e4c:	2001      	movne	r0, #1
  403e4e:	4404      	add	r4, r0
  403e50:	f8a8 4000 	strh.w	r4, [r8]
  403e54:	e74c      	b.n	403cf0 <tcp_receive+0x620>
  403e56:	4620      	mov	r0, r4
  403e58:	4b0c      	ldr	r3, [pc, #48]	; (403e8c <tcp_receive+0x7bc>)
  403e5a:	b001      	add	sp, #4
  403e5c:	e8bd 4ff0 	ldmia.w	sp!, {r4, r5, r6, r7, r8, r9, sl, fp, lr}
  403e60:	4718      	bx	r3
  403e62:	683b      	ldr	r3, [r7, #0]
  403e64:	1a99      	subs	r1, r3, r2
  403e66:	2900      	cmp	r1, #0
  403e68:	db06      	blt.n	403e78 <tcp_receive+0x7a8>
  403e6a:	3301      	adds	r3, #1
  403e6c:	1a9b      	subs	r3, r3, r2
  403e6e:	8da2      	ldrh	r2, [r4, #44]	; 0x2c
  403e70:	1a9b      	subs	r3, r3, r2
  403e72:	2b00      	cmp	r3, #0
  403e74:	f77f af3c 	ble.w	403cf0 <tcp_receive+0x620>
  403e78:	7fa3      	ldrb	r3, [r4, #30]
  403e7a:	e6b5      	b.n	403be8 <tcp_receive+0x518>
  403e7c:	2300      	movs	r3, #0
  403e7e:	f884 3047 	strb.w	r3, [r4, #71]	; 0x47
  403e82:	e493      	b.n	4037ac <tcp_receive+0xdc>
  403e84:	00402595 	.word	0x00402595
  403e88:	00402a41 	.word	0x00402a41
  403e8c:	00404db9 	.word	0x00404db9
  403e90:	20402634 	.word	0x20402634
  403e94:	00402a81 	.word	0x00402a81
  403e98:	00403635 	.word	0x00403635
  403e9c:	00402525 	.word	0x00402525
  403ea0:	00401123 	.word	0x00401123
  403ea4:	0040111d 	.word	0x0040111d

00403ea8 <tcp_parseopt.isra.0>:
  403ea8:	b5f8      	push	{r3, r4, r5, r6, r7, lr}
  403eaa:	4f1e      	ldr	r7, [pc, #120]	; (403f24 <tcp_parseopt.isra.0+0x7c>)
  403eac:	4604      	mov	r4, r0
  403eae:	4e1e      	ldr	r6, [pc, #120]	; (403f28 <tcp_parseopt.isra.0+0x80>)
  403eb0:	683d      	ldr	r5, [r7, #0]
  403eb2:	89a8      	ldrh	r0, [r5, #12]
  403eb4:	47b0      	blx	r6
  403eb6:	f3c0 300f 	ubfx	r0, r0, #12, #16
  403eba:	2805      	cmp	r0, #5
  403ebc:	d90e      	bls.n	403edc <tcp_parseopt.isra.0+0x34>
  403ebe:	683b      	ldr	r3, [r7, #0]
  403ec0:	3514      	adds	r5, #20
  403ec2:	f240 57b4 	movw	r7, #1460	; 0x5b4
  403ec6:	8998      	ldrh	r0, [r3, #12]
  403ec8:	47b0      	blx	r6
  403eca:	2300      	movs	r3, #0
  403ecc:	0b00      	lsrs	r0, r0, #12
  403ece:	f240 56b3 	movw	r6, #1459	; 0x5b3
  403ed2:	3805      	subs	r0, #5
  403ed4:	0080      	lsls	r0, r0, #2
  403ed6:	b280      	uxth	r0, r0
  403ed8:	4298      	cmp	r0, r3
  403eda:	d800      	bhi.n	403ede <tcp_parseopt.isra.0+0x36>
  403edc:	bdf8      	pop	{r3, r4, r5, r6, r7, pc}
  403ede:	5cea      	ldrb	r2, [r5, r3]
  403ee0:	2a01      	cmp	r2, #1
  403ee2:	d009      	beq.n	403ef8 <tcp_parseopt.isra.0+0x50>
  403ee4:	d3fa      	bcc.n	403edc <tcp_parseopt.isra.0+0x34>
  403ee6:	2a02      	cmp	r2, #2
  403ee8:	eb05 0103 	add.w	r1, r5, r3
  403eec:	d007      	beq.n	403efe <tcp_parseopt.isra.0+0x56>
  403eee:	784a      	ldrb	r2, [r1, #1]
  403ef0:	2a00      	cmp	r2, #0
  403ef2:	d0f3      	beq.n	403edc <tcp_parseopt.isra.0+0x34>
  403ef4:	4413      	add	r3, r2
  403ef6:	e000      	b.n	403efa <tcp_parseopt.isra.0+0x52>
  403ef8:	3301      	adds	r3, #1
  403efa:	b29b      	uxth	r3, r3
  403efc:	e7ec      	b.n	403ed8 <tcp_parseopt.isra.0+0x30>
  403efe:	784a      	ldrb	r2, [r1, #1]
  403f00:	2a04      	cmp	r2, #4
  403f02:	d1eb      	bne.n	403edc <tcp_parseopt.isra.0+0x34>
  403f04:	1cda      	adds	r2, r3, #3
  403f06:	4282      	cmp	r2, r0
  403f08:	dae8      	bge.n	403edc <tcp_parseopt.isra.0+0x34>
  403f0a:	f891 e002 	ldrb.w	lr, [r1, #2]
  403f0e:	3304      	adds	r3, #4
  403f10:	78ca      	ldrb	r2, [r1, #3]
  403f12:	ea42 220e 	orr.w	r2, r2, lr, lsl #8
  403f16:	1e51      	subs	r1, r2, #1
  403f18:	b289      	uxth	r1, r1
  403f1a:	42b1      	cmp	r1, r6
  403f1c:	bf88      	it	hi
  403f1e:	463a      	movhi	r2, r7
  403f20:	8022      	strh	r2, [r4, #0]
  403f22:	e7ea      	b.n	403efa <tcp_parseopt.isra.0+0x52>
  403f24:	20402654 	.word	0x20402654
  403f28:	00401123 	.word	0x00401123

00403f2c <tcp_input>:
  403f2c:	e92d 4ff0 	stmdb	sp!, {r4, r5, r6, r7, r8, r9, sl, fp, lr}
  403f30:	6843      	ldr	r3, [r0, #4]
  403f32:	4689      	mov	r9, r1
  403f34:	4ea7      	ldr	r6, [pc, #668]	; (4041d4 <tcp_input+0x2a8>)
  403f36:	b087      	sub	sp, #28
  403f38:	7819      	ldrb	r1, [r3, #0]
  403f3a:	4680      	mov	r8, r0
  403f3c:	4ca6      	ldr	r4, [pc, #664]	; (4041d8 <tcp_input+0x2ac>)
  403f3e:	4635      	mov	r5, r6
  403f40:	f001 010f 	and.w	r1, r1, #15
  403f44:	eb03 0381 	add.w	r3, r3, r1, lsl #2
  403f48:	0089      	lsls	r1, r1, #2
  403f4a:	6033      	str	r3, [r6, #0]
  403f4c:	4249      	negs	r1, r1
  403f4e:	47a0      	blx	r4
  403f50:	b9f8      	cbnz	r0, 403f92 <tcp_input+0x66>
  403f52:	f8b8 3008 	ldrh.w	r3, [r8, #8]
  403f56:	2b13      	cmp	r3, #19
  403f58:	d91b      	bls.n	403f92 <tcp_input+0x66>
  403f5a:	4fa0      	ldr	r7, [pc, #640]	; (4041dc <tcp_input+0x2b0>)
  403f5c:	4649      	mov	r1, r9
  403f5e:	4ba0      	ldr	r3, [pc, #640]	; (4041e0 <tcp_input+0x2b4>)
  403f60:	6838      	ldr	r0, [r7, #0]
  403f62:	4798      	blx	r3
  403f64:	b9a8      	cbnz	r0, 403f92 <tcp_input+0x66>
  403f66:	683b      	ldr	r3, [r7, #0]
  403f68:	f003 03f0 	and.w	r3, r3, #240	; 0xf0
  403f6c:	2be0      	cmp	r3, #224	; 0xe0
  403f6e:	d010      	beq.n	403f92 <tcp_input+0x66>
  403f70:	f8b8 3008 	ldrh.w	r3, [r8, #8]
  403f74:	463a      	mov	r2, r7
  403f76:	f8df 92a0 	ldr.w	r9, [pc, #672]	; 404218 <tcp_input+0x2ec>
  403f7a:	4640      	mov	r0, r8
  403f7c:	9300      	str	r3, [sp, #0]
  403f7e:	2306      	movs	r3, #6
  403f80:	4649      	mov	r1, r9
  403f82:	4f98      	ldr	r7, [pc, #608]	; (4041e4 <tcp_input+0x2b8>)
  403f84:	47b8      	blx	r7
  403f86:	f8cd 9014 	str.w	r9, [sp, #20]
  403f8a:	b140      	cbz	r0, 403f9e <tcp_input+0x72>
  403f8c:	6830      	ldr	r0, [r6, #0]
  403f8e:	4b96      	ldr	r3, [pc, #600]	; (4041e8 <tcp_input+0x2bc>)
  403f90:	4798      	blx	r3
  403f92:	4640      	mov	r0, r8
  403f94:	4b95      	ldr	r3, [pc, #596]	; (4041ec <tcp_input+0x2c0>)
  403f96:	b007      	add	sp, #28
  403f98:	e8bd 4ff0 	ldmia.w	sp!, {r4, r5, r6, r7, r8, r9, sl, fp, lr}
  403f9c:	4718      	bx	r3
  403f9e:	6833      	ldr	r3, [r6, #0]
  403fa0:	4e93      	ldr	r6, [pc, #588]	; (4041f0 <tcp_input+0x2c4>)
  403fa2:	8998      	ldrh	r0, [r3, #12]
  403fa4:	47b0      	blx	r6
  403fa6:	0b00      	lsrs	r0, r0, #12
  403fa8:	ebc0 3080 	rsb	r0, r0, r0, lsl #14
  403fac:	0081      	lsls	r1, r0, #2
  403fae:	4640      	mov	r0, r8
  403fb0:	b209      	sxth	r1, r1
  403fb2:	47a0      	blx	r4
  403fb4:	4683      	mov	fp, r0
  403fb6:	2800      	cmp	r0, #0
  403fb8:	d1eb      	bne.n	403f92 <tcp_input+0x66>
  403fba:	682c      	ldr	r4, [r5, #0]
  403fbc:	4f8d      	ldr	r7, [pc, #564]	; (4041f4 <tcp_input+0x2c8>)
  403fbe:	8820      	ldrh	r0, [r4, #0]
  403fc0:	47b0      	blx	r6
  403fc2:	8020      	strh	r0, [r4, #0]
  403fc4:	682c      	ldr	r4, [r5, #0]
  403fc6:	f8df 924c 	ldr.w	r9, [pc, #588]	; 404214 <tcp_input+0x2e8>
  403fca:	8860      	ldrh	r0, [r4, #2]
  403fcc:	47b0      	blx	r6
  403fce:	8060      	strh	r0, [r4, #2]
  403fd0:	682c      	ldr	r4, [r5, #0]
  403fd2:	f8df a248 	ldr.w	sl, [pc, #584]	; 40421c <tcp_input+0x2f0>
  403fd6:	6860      	ldr	r0, [r4, #4]
  403fd8:	47b8      	blx	r7
  403fda:	6060      	str	r0, [r4, #4]
  403fdc:	682c      	ldr	r4, [r5, #0]
  403fde:	f8c9 0000 	str.w	r0, [r9]
  403fe2:	68a0      	ldr	r0, [r4, #8]
  403fe4:	47b8      	blx	r7
  403fe6:	60a0      	str	r0, [r4, #8]
  403fe8:	682c      	ldr	r4, [r5, #0]
  403fea:	f8ca 0000 	str.w	r0, [sl]
  403fee:	89e0      	ldrh	r0, [r4, #14]
  403ff0:	47b0      	blx	r6
  403ff2:	682b      	ldr	r3, [r5, #0]
  403ff4:	81e0      	strh	r0, [r4, #14]
  403ff6:	8998      	ldrh	r0, [r3, #12]
  403ff8:	47b0      	blx	r6
  403ffa:	4a7f      	ldr	r2, [pc, #508]	; (4041f8 <tcp_input+0x2cc>)
  403ffc:	b2c3      	uxtb	r3, r0
  403ffe:	487f      	ldr	r0, [pc, #508]	; (4041fc <tcp_input+0x2d0>)
  404000:	682f      	ldr	r7, [r5, #0]
  404002:	f003 013f 	and.w	r1, r3, #63	; 0x3f
  404006:	f8d0 e000 	ldr.w	lr, [r0]
  40400a:	9805      	ldr	r0, [sp, #20]
  40400c:	7011      	strb	r1, [r2, #0]
  40400e:	f013 0103 	ands.w	r1, r3, #3
  404012:	f8b8 2008 	ldrh.w	r2, [r8, #8]
  404016:	4674      	mov	r4, lr
  404018:	bf18      	it	ne
  40401a:	2101      	movne	r1, #1
  40401c:	6800      	ldr	r0, [r0, #0]
  40401e:	4411      	add	r1, r2
  404020:	9004      	str	r0, [sp, #16]
  404022:	486e      	ldr	r0, [pc, #440]	; (4041dc <tcp_input+0x2b0>)
  404024:	b28a      	uxth	r2, r1
  404026:	f8d0 c000 	ldr.w	ip, [r0]
  40402a:	4658      	mov	r0, fp
  40402c:	9202      	str	r2, [sp, #8]
  40402e:	46d3      	mov	fp, sl
  404030:	4a73      	ldr	r2, [pc, #460]	; (404200 <tcp_input+0x2d4>)
  404032:	f8bd 1008 	ldrh.w	r1, [sp, #8]
  404036:	9203      	str	r2, [sp, #12]
  404038:	8011      	strh	r1, [r2, #0]
  40403a:	b914      	cbnz	r4, 404042 <tcp_input+0x116>
  40403c:	4a71      	ldr	r2, [pc, #452]	; (404204 <tcp_input+0x2d8>)
  40403e:	6810      	ldr	r0, [r2, #0]
  404040:	e08a      	b.n	404158 <tcp_input+0x22c>
  404042:	f8b4 a01c 	ldrh.w	sl, [r4, #28]
  404046:	883a      	ldrh	r2, [r7, #0]
  404048:	4592      	cmp	sl, r2
  40404a:	d147      	bne.n	4040dc <tcp_input+0x1b0>
  40404c:	f8b4 a01a 	ldrh.w	sl, [r4, #26]
  404050:	887a      	ldrh	r2, [r7, #2]
  404052:	4592      	cmp	sl, r2
  404054:	d142      	bne.n	4040dc <tcp_input+0x1b0>
  404056:	6862      	ldr	r2, [r4, #4]
  404058:	4611      	mov	r1, r2
  40405a:	9a04      	ldr	r2, [sp, #16]
  40405c:	4291      	cmp	r1, r2
  40405e:	d13d      	bne.n	4040dc <tcp_input+0x1b0>
  404060:	6822      	ldr	r2, [r4, #0]
  404062:	4562      	cmp	r2, ip
  404064:	d13a      	bne.n	4040dc <tcp_input+0x1b0>
  404066:	b128      	cbz	r0, 404074 <tcp_input+0x148>
  404068:	68e2      	ldr	r2, [r4, #12]
  40406a:	60c2      	str	r2, [r0, #12]
  40406c:	4a63      	ldr	r2, [pc, #396]	; (4041fc <tcp_input+0x2d0>)
  40406e:	f8c4 e00c 	str.w	lr, [r4, #12]
  404072:	6014      	str	r4, [r2, #0]
  404074:	4e64      	ldr	r6, [pc, #400]	; (404208 <tcp_input+0x2dc>)
  404076:	2200      	movs	r2, #0
  404078:	f8b8 1008 	ldrh.w	r1, [r8, #8]
  40407c:	f013 0f08 	tst.w	r3, #8
  404080:	6137      	str	r7, [r6, #16]
  404082:	8131      	strh	r1, [r6, #8]
  404084:	4f61      	ldr	r7, [pc, #388]	; (40420c <tcp_input+0x2e0>)
  404086:	4962      	ldr	r1, [pc, #392]	; (404210 <tcp_input+0x2e4>)
  404088:	6032      	str	r2, [r6, #0]
  40408a:	f8c6 8004 	str.w	r8, [r6, #4]
  40408e:	468a      	mov	sl, r1
  404090:	600a      	str	r2, [r1, #0]
  404092:	703a      	strb	r2, [r7, #0]
  404094:	d005      	beq.n	4040a2 <tcp_input+0x176>
  404096:	f898 300d 	ldrb.w	r3, [r8, #13]
  40409a:	f043 0301 	orr.w	r3, r3, #1
  40409e:	f888 300d 	strb.w	r3, [r8, #13]
  4040a2:	6fa3      	ldr	r3, [r4, #120]	; 0x78
  4040a4:	f8df b190 	ldr.w	fp, [pc, #400]	; 404238 <tcp_input+0x30c>
  4040a8:	2b00      	cmp	r3, #0
  4040aa:	f040 8116 	bne.w	4042da <tcp_input+0x3ae>
  4040ae:	4a52      	ldr	r2, [pc, #328]	; (4041f8 <tcp_input+0x2cc>)
  4040b0:	f8cb 4000 	str.w	r4, [fp]
  4040b4:	7813      	ldrb	r3, [r2, #0]
  4040b6:	4690      	mov	r8, r2
  4040b8:	f013 0f04 	tst.w	r3, #4
  4040bc:	f040 8128 	bne.w	404310 <tcp_input+0x3e4>
  4040c0:	f013 0f02 	tst.w	r3, #2
  4040c4:	7fa3      	ldrb	r3, [r4, #30]
  4040c6:	f000 8143 	beq.w	404350 <tcp_input+0x424>
  4040ca:	7e22      	ldrb	r2, [r4, #24]
  4040cc:	3a02      	subs	r2, #2
  4040ce:	2a01      	cmp	r2, #1
  4040d0:	f240 813e 	bls.w	404350 <tcp_input+0x424>
  4040d4:	f043 0302 	orr.w	r3, r3, #2
  4040d8:	77a3      	strb	r3, [r4, #30]
  4040da:	e1c1      	b.n	404460 <tcp_input+0x534>
  4040dc:	4620      	mov	r0, r4
  4040de:	68e4      	ldr	r4, [r4, #12]
  4040e0:	e7ab      	b.n	40403a <tcp_input+0x10e>
  4040e2:	8b82      	ldrh	r2, [r0, #28]
  4040e4:	f8b7 e000 	ldrh.w	lr, [r7]
  4040e8:	4596      	cmp	lr, r2
  4040ea:	d134      	bne.n	404156 <tcp_input+0x22a>
  4040ec:	8b42      	ldrh	r2, [r0, #26]
  4040ee:	887c      	ldrh	r4, [r7, #2]
  4040f0:	4294      	cmp	r4, r2
  4040f2:	d130      	bne.n	404156 <tcp_input+0x22a>
  4040f4:	6842      	ldr	r2, [r0, #4]
  4040f6:	4611      	mov	r1, r2
  4040f8:	9a04      	ldr	r2, [sp, #16]
  4040fa:	428a      	cmp	r2, r1
  4040fc:	d12b      	bne.n	404156 <tcp_input+0x22a>
  4040fe:	6802      	ldr	r2, [r0, #0]
  404100:	4594      	cmp	ip, r2
  404102:	d128      	bne.n	404156 <tcp_input+0x22a>
  404104:	075e      	lsls	r6, r3, #29
  404106:	f53f af44 	bmi.w	403f92 <tcp_input+0x66>
  40410a:	079d      	lsls	r5, r3, #30
  40410c:	d513      	bpl.n	404136 <tcp_input+0x20a>
  40410e:	4b41      	ldr	r3, [pc, #260]	; (404214 <tcp_input+0x2e8>)
  404110:	681d      	ldr	r5, [r3, #0]
  404112:	6a83      	ldr	r3, [r0, #40]	; 0x28
  404114:	1aeb      	subs	r3, r5, r3
  404116:	d413      	bmi.n	404140 <tcp_input+0x214>
  404118:	8d82      	ldrh	r2, [r0, #44]	; 0x2c
  40411a:	1a9b      	subs	r3, r3, r2
  40411c:	2b00      	cmp	r3, #0
  40411e:	dc0f      	bgt.n	404140 <tcp_input+0x214>
  404120:	9902      	ldr	r1, [sp, #8]
  404122:	4b3d      	ldr	r3, [pc, #244]	; (404218 <tcp_input+0x2ec>)
  404124:	4a2d      	ldr	r2, [pc, #180]	; (4041dc <tcp_input+0x2b0>)
  404126:	4429      	add	r1, r5
  404128:	e88d 4010 	stmia.w	sp, {r4, lr}
  40412c:	483b      	ldr	r0, [pc, #236]	; (40421c <tcp_input+0x2f0>)
  40412e:	6800      	ldr	r0, [r0, #0]
  404130:	4c3b      	ldr	r4, [pc, #236]	; (404220 <tcp_input+0x2f4>)
  404132:	47a0      	blx	r4
  404134:	e72d      	b.n	403f92 <tcp_input+0x66>
  404136:	07dc      	lsls	r4, r3, #31
  404138:	bf42      	ittt	mi
  40413a:	4b3a      	ldrmi	r3, [pc, #232]	; (404224 <tcp_input+0x2f8>)
  40413c:	681b      	ldrmi	r3, [r3, #0]
  40413e:	6243      	strmi	r3, [r0, #36]	; 0x24
  404140:	9b02      	ldr	r3, [sp, #8]
  404142:	2b00      	cmp	r3, #0
  404144:	f43f af25 	beq.w	403f92 <tcp_input+0x66>
  404148:	7f83      	ldrb	r3, [r0, #30]
  40414a:	f043 0302 	orr.w	r3, r3, #2
  40414e:	7783      	strb	r3, [r0, #30]
  404150:	4b35      	ldr	r3, [pc, #212]	; (404228 <tcp_input+0x2fc>)
  404152:	4798      	blx	r3
  404154:	e71d      	b.n	403f92 <tcp_input+0x66>
  404156:	68c0      	ldr	r0, [r0, #12]
  404158:	2800      	cmp	r0, #0
  40415a:	d1c2      	bne.n	4040e2 <tcp_input+0x1b6>
  40415c:	4a33      	ldr	r2, [pc, #204]	; (40422c <tcp_input+0x300>)
  40415e:	6812      	ldr	r2, [r2, #0]
  404160:	4614      	mov	r4, r2
  404162:	b99c      	cbnz	r4, 40418c <tcp_input+0x260>
  404164:	89b8      	ldrh	r0, [r7, #12]
  404166:	47b0      	blx	r6
  404168:	0741      	lsls	r1, r0, #29
  40416a:	f53f af12 	bmi.w	403f92 <tcp_input+0x66>
  40416e:	682b      	ldr	r3, [r5, #0]
  404170:	9a03      	ldr	r2, [sp, #12]
  404172:	f8d9 1000 	ldr.w	r1, [r9]
  404176:	8810      	ldrh	r0, [r2, #0]
  404178:	881a      	ldrh	r2, [r3, #0]
  40417a:	4401      	add	r1, r0
  40417c:	9201      	str	r2, [sp, #4]
  40417e:	885b      	ldrh	r3, [r3, #2]
  404180:	4a16      	ldr	r2, [pc, #88]	; (4041dc <tcp_input+0x2b0>)
  404182:	9300      	str	r3, [sp, #0]
  404184:	4b24      	ldr	r3, [pc, #144]	; (404218 <tcp_input+0x2ec>)
  404186:	f8db 0000 	ldr.w	r0, [fp]
  40418a:	e7d1      	b.n	404130 <tcp_input+0x204>
  40418c:	f8b4 a01a 	ldrh.w	sl, [r4, #26]
  404190:	f8b7 e002 	ldrh.w	lr, [r7, #2]
  404194:	45f2      	cmp	sl, lr
  404196:	d108      	bne.n	4041aa <tcp_input+0x27e>
  404198:	f8d4 e000 	ldr.w	lr, [r4]
  40419c:	45f4      	cmp	ip, lr
  40419e:	f000 8340 	beq.w	404822 <tcp_input+0x8f6>
  4041a2:	f1be 0f00 	cmp.w	lr, #0
  4041a6:	f000 833c 	beq.w	404822 <tcp_input+0x8f6>
  4041aa:	4620      	mov	r0, r4
  4041ac:	68e4      	ldr	r4, [r4, #12]
  4041ae:	e7d8      	b.n	404162 <tcp_input+0x236>
  4041b0:	0799      	lsls	r1, r3, #30
  4041b2:	f57f aeee 	bpl.w	403f92 <tcp_input+0x66>
  4041b6:	887a      	ldrh	r2, [r7, #2]
  4041b8:	8839      	ldrh	r1, [r7, #0]
  4041ba:	481d      	ldr	r0, [pc, #116]	; (404230 <tcp_input+0x304>)
  4041bc:	f8df a07c 	ldr.w	sl, [pc, #124]	; 40423c <tcp_input+0x310>
  4041c0:	47d0      	blx	sl
  4041c2:	7f62      	ldrb	r2, [r4, #29]
  4041c4:	7f23      	ldrb	r3, [r4, #28]
  4041c6:	429a      	cmp	r2, r3
  4041c8:	d33a      	bcc.n	404240 <tcp_input+0x314>
  4041ca:	682b      	ldr	r3, [r5, #0]
  4041cc:	4819      	ldr	r0, [pc, #100]	; (404234 <tcp_input+0x308>)
  4041ce:	8859      	ldrh	r1, [r3, #2]
  4041d0:	47d0      	blx	sl
  4041d2:	e6de      	b.n	403f92 <tcp_input+0x66>
  4041d4:	20402654 	.word	0x20402654
  4041d8:	00402341 	.word	0x00402341
  4041dc:	204039a0 	.word	0x204039a0
  4041e0:	00401789 	.word	0x00401789
  4041e4:	0040138d 	.word	0x0040138d
  4041e8:	00403529 	.word	0x00403529
  4041ec:	004023b9 	.word	0x004023b9
  4041f0:	00401123 	.word	0x00401123
  4041f4:	0040112d 	.word	0x0040112d
  4041f8:	20402630 	.word	0x20402630
  4041fc:	204049cc 	.word	0x204049cc
  404200:	20402658 	.word	0x20402658
  404204:	204049e0 	.word	0x204049e0
  404208:	20402634 	.word	0x20402634
  40420c:	2040264c 	.word	0x2040264c
  404210:	20402648 	.word	0x20402648
  404214:	20402650 	.word	0x20402650
  404218:	20403998 	.word	0x20403998
  40421c:	2040262c 	.word	0x2040262c
  404220:	004050cd 	.word	0x004050cd
  404224:	204049d0 	.word	0x204049d0
  404228:	00404e2d 	.word	0x00404e2d
  40422c:	204049d4 	.word	0x204049d4
  404230:	00409d30 	.word	0x00409d30
  404234:	00409d54 	.word	0x00409d54
  404238:	204049e4 	.word	0x204049e4
  40423c:	00406415 	.word	0x00406415
  404240:	7e60      	ldrb	r0, [r4, #25]
  404242:	4b91      	ldr	r3, [pc, #580]	; (404488 <tcp_input+0x55c>)
  404244:	4798      	blx	r3
  404246:	4607      	mov	r7, r0
  404248:	b910      	cbnz	r0, 404250 <tcp_input+0x324>
  40424a:	4890      	ldr	r0, [pc, #576]	; (40448c <tcp_input+0x560>)
  40424c:	47d0      	blx	sl
  40424e:	e6a0      	b.n	403f92 <tcp_input+0x66>
  404250:	7f63      	ldrb	r3, [r4, #29]
  404252:	682a      	ldr	r2, [r5, #0]
  404254:	3301      	adds	r3, #1
  404256:	7763      	strb	r3, [r4, #29]
  404258:	4b8d      	ldr	r3, [pc, #564]	; (404490 <tcp_input+0x564>)
  40425a:	681b      	ldr	r3, [r3, #0]
  40425c:	6003      	str	r3, [r0, #0]
  40425e:	8b63      	ldrh	r3, [r4, #26]
  404260:	8343      	strh	r3, [r0, #26]
  404262:	9b05      	ldr	r3, [sp, #20]
  404264:	681b      	ldr	r3, [r3, #0]
  404266:	6043      	str	r3, [r0, #4]
  404268:	8813      	ldrh	r3, [r2, #0]
  40426a:	8383      	strh	r3, [r0, #28]
  40426c:	2303      	movs	r3, #3
  40426e:	7603      	strb	r3, [r0, #24]
  404270:	f8d9 3000 	ldr.w	r3, [r9]
  404274:	1c59      	adds	r1, r3, #1
  404276:	3b01      	subs	r3, #1
  404278:	6281      	str	r1, [r0, #40]	; 0x28
  40427a:	6301      	str	r1, [r0, #48]	; 0x30
  40427c:	89d1      	ldrh	r1, [r2, #14]
  40427e:	f8a0 1060 	strh.w	r1, [r0, #96]	; 0x60
  404282:	89d2      	ldrh	r2, [r2, #14]
  404284:	f8a0 104e 	strh.w	r1, [r0, #78]	; 0x4e
  404288:	f8a0 2062 	strh.w	r2, [r0, #98]	; 0x62
  40428c:	6543      	str	r3, [r0, #84]	; 0x54
  40428e:	6923      	ldr	r3, [r4, #16]
  404290:	6103      	str	r3, [r0, #16]
  404292:	6963      	ldr	r3, [r4, #20]
  404294:	6143      	str	r3, [r0, #20]
  404296:	7a23      	ldrb	r3, [r4, #8]
  404298:	f023 0373 	bic.w	r3, r3, #115	; 0x73
  40429c:	7203      	strb	r3, [r0, #8]
  40429e:	4b7d      	ldr	r3, [pc, #500]	; (404494 <tcp_input+0x568>)
  4042a0:	681a      	ldr	r2, [r3, #0]
  4042a2:	6018      	str	r0, [r3, #0]
  4042a4:	60c2      	str	r2, [r0, #12]
  4042a6:	4b7c      	ldr	r3, [pc, #496]	; (404498 <tcp_input+0x56c>)
  4042a8:	4798      	blx	r3
  4042aa:	2201      	movs	r2, #1
  4042ac:	4b7b      	ldr	r3, [pc, #492]	; (40449c <tcp_input+0x570>)
  4042ae:	f107 0036 	add.w	r0, r7, #54	; 0x36
  4042b2:	701a      	strb	r2, [r3, #0]
  4042b4:	4b7a      	ldr	r3, [pc, #488]	; (4044a0 <tcp_input+0x574>)
  4042b6:	4798      	blx	r3
  4042b8:	1d39      	adds	r1, r7, #4
  4042ba:	4b7a      	ldr	r3, [pc, #488]	; (4044a4 <tcp_input+0x578>)
  4042bc:	8ef8      	ldrh	r0, [r7, #54]	; 0x36
  4042be:	4798      	blx	r3
  4042c0:	2112      	movs	r1, #18
  4042c2:	86f8      	strh	r0, [r7, #54]	; 0x36
  4042c4:	4638      	mov	r0, r7
  4042c6:	4b78      	ldr	r3, [pc, #480]	; (4044a8 <tcp_input+0x57c>)
  4042c8:	4798      	blx	r3
  4042ca:	b120      	cbz	r0, 4042d6 <tcp_input+0x3aa>
  4042cc:	4631      	mov	r1, r6
  4042ce:	4638      	mov	r0, r7
  4042d0:	4b76      	ldr	r3, [pc, #472]	; (4044ac <tcp_input+0x580>)
  4042d2:	4798      	blx	r3
  4042d4:	e65d      	b.n	403f92 <tcp_input+0x66>
  4042d6:	4638      	mov	r0, r7
  4042d8:	e73a      	b.n	404150 <tcp_input+0x224>
  4042da:	4620      	mov	r0, r4
  4042dc:	4b74      	ldr	r3, [pc, #464]	; (4044b0 <tcp_input+0x584>)
  4042de:	4798      	blx	r3
  4042e0:	300a      	adds	r0, #10
  4042e2:	d008      	beq.n	4042f6 <tcp_input+0x3ca>
  4042e4:	6fa3      	ldr	r3, [r4, #120]	; 0x78
  4042e6:	2b00      	cmp	r3, #0
  4042e8:	f43f aee1 	beq.w	4040ae <tcp_input+0x182>
  4042ec:	4b71      	ldr	r3, [pc, #452]	; (4044b4 <tcp_input+0x588>)
  4042ee:	881b      	ldrh	r3, [r3, #0]
  4042f0:	2b00      	cmp	r3, #0
  4042f2:	f43f aedc 	beq.w	4040ae <tcp_input+0x182>
  4042f6:	2400      	movs	r4, #0
  4042f8:	6870      	ldr	r0, [r6, #4]
  4042fa:	f8cb 4000 	str.w	r4, [fp]
  4042fe:	f8ca 4000 	str.w	r4, [sl]
  404302:	b110      	cbz	r0, 40430a <tcp_input+0x3de>
  404304:	4b6c      	ldr	r3, [pc, #432]	; (4044b8 <tcp_input+0x58c>)
  404306:	4798      	blx	r3
  404308:	6074      	str	r4, [r6, #4]
  40430a:	b007      	add	sp, #28
  40430c:	e8bd 8ff0 	ldmia.w	sp!, {r4, r5, r6, r7, r8, r9, sl, fp, pc}
  404310:	7e23      	ldrb	r3, [r4, #24]
  404312:	2b02      	cmp	r3, #2
  404314:	d10c      	bne.n	404330 <tcp_input+0x404>
  404316:	4b69      	ldr	r3, [pc, #420]	; (4044bc <tcp_input+0x590>)
  404318:	6d22      	ldr	r2, [r4, #80]	; 0x50
  40431a:	681b      	ldr	r3, [r3, #0]
  40431c:	429a      	cmp	r2, r3
  40431e:	d110      	bne.n	404342 <tcp_input+0x416>
  404320:	783b      	ldrb	r3, [r7, #0]
  404322:	f043 0308 	orr.w	r3, r3, #8
  404326:	703b      	strb	r3, [r7, #0]
  404328:	7fa3      	ldrb	r3, [r4, #30]
  40432a:	f023 0301 	bic.w	r3, r3, #1
  40432e:	e6d3      	b.n	4040d8 <tcp_input+0x1ac>
  404330:	4b63      	ldr	r3, [pc, #396]	; (4044c0 <tcp_input+0x594>)
  404332:	6aa2      	ldr	r2, [r4, #40]	; 0x28
  404334:	681b      	ldr	r3, [r3, #0]
  404336:	1a9b      	subs	r3, r3, r2
  404338:	d403      	bmi.n	404342 <tcp_input+0x416>
  40433a:	8da2      	ldrh	r2, [r4, #44]	; 0x2c
  40433c:	1a9b      	subs	r3, r3, r2
  40433e:	2b00      	cmp	r3, #0
  404340:	ddee      	ble.n	404320 <tcp_input+0x3f4>
  404342:	4b5f      	ldr	r3, [pc, #380]	; (4044c0 <tcp_input+0x594>)
  404344:	6aa2      	ldr	r2, [r4, #40]	; 0x28
  404346:	6819      	ldr	r1, [r3, #0]
  404348:	485e      	ldr	r0, [pc, #376]	; (4044c4 <tcp_input+0x598>)
  40434a:	4b5f      	ldr	r3, [pc, #380]	; (4044c8 <tcp_input+0x59c>)
  40434c:	4798      	blx	r3
  40434e:	e087      	b.n	404460 <tcp_input+0x534>
  404350:	06da      	lsls	r2, r3, #27
  404352:	f104 0036 	add.w	r0, r4, #54	; 0x36
  404356:	bf5e      	ittt	pl
  404358:	4b5c      	ldrpl	r3, [pc, #368]	; (4044cc <tcp_input+0x5a0>)
  40435a:	681b      	ldrpl	r3, [r3, #0]
  40435c:	6263      	strpl	r3, [r4, #36]	; 0x24
  40435e:	2300      	movs	r3, #0
  404360:	f884 3096 	strb.w	r3, [r4, #150]	; 0x96
  404364:	4b4e      	ldr	r3, [pc, #312]	; (4044a0 <tcp_input+0x574>)
  404366:	4798      	blx	r3
  404368:	7e23      	ldrb	r3, [r4, #24]
  40436a:	3b02      	subs	r3, #2
  40436c:	2b07      	cmp	r3, #7
  40436e:	d877      	bhi.n	404460 <tcp_input+0x534>
  404370:	e8df f013 	tbh	[pc, r3, lsl #1]
  404374:	00b60008 	.word	0x00b60008
  404378:	01150111 	.word	0x01150111
  40437c:	01110166 	.word	0x01110166
  404380:	01af0189 	.word	0x01af0189
  404384:	f898 3000 	ldrb.w	r3, [r8]
  404388:	f003 0312 	and.w	r3, r3, #18
  40438c:	2b12      	cmp	r3, #18
  40438e:	d153      	bne.n	404438 <tcp_input+0x50c>
  404390:	6f23      	ldr	r3, [r4, #112]	; 0x70
  404392:	691b      	ldr	r3, [r3, #16]
  404394:	6858      	ldr	r0, [r3, #4]
  404396:	4b4e      	ldr	r3, [pc, #312]	; (4044d0 <tcp_input+0x5a4>)
  404398:	4798      	blx	r3
  40439a:	4b48      	ldr	r3, [pc, #288]	; (4044bc <tcp_input+0x590>)
  40439c:	3001      	adds	r0, #1
  40439e:	681b      	ldr	r3, [r3, #0]
  4043a0:	4298      	cmp	r0, r3
  4043a2:	d149      	bne.n	404438 <tcp_input+0x50c>
  4043a4:	f8b4 3066 	ldrh.w	r3, [r4, #102]	; 0x66
  4043a8:	64a0      	str	r0, [r4, #72]	; 0x48
  4043aa:	3301      	adds	r3, #1
  4043ac:	8ee0      	ldrh	r0, [r4, #54]	; 0x36
  4043ae:	f8a4 3066 	strh.w	r3, [r4, #102]	; 0x66
  4043b2:	f8d9 3000 	ldr.w	r3, [r9]
  4043b6:	1c5a      	adds	r2, r3, #1
  4043b8:	3b01      	subs	r3, #1
  4043ba:	62a2      	str	r2, [r4, #40]	; 0x28
  4043bc:	6322      	str	r2, [r4, #48]	; 0x30
  4043be:	682a      	ldr	r2, [r5, #0]
  4043c0:	89d1      	ldrh	r1, [r2, #14]
  4043c2:	f8a4 1060 	strh.w	r1, [r4, #96]	; 0x60
  4043c6:	89d2      	ldrh	r2, [r2, #14]
  4043c8:	6563      	str	r3, [r4, #84]	; 0x54
  4043ca:	2304      	movs	r3, #4
  4043cc:	f8a4 2062 	strh.w	r2, [r4, #98]	; 0x62
  4043d0:	18e1      	adds	r1, r4, r3
  4043d2:	7623      	strb	r3, [r4, #24]
  4043d4:	4b33      	ldr	r3, [pc, #204]	; (4044a4 <tcp_input+0x578>)
  4043d6:	4798      	blx	r3
  4043d8:	86e0      	strh	r0, [r4, #54]	; 0x36
  4043da:	eb00 0380 	add.w	r3, r0, r0, lsl #2
  4043de:	005b      	lsls	r3, r3, #1
  4043e0:	f8a4 304e 	strh.w	r3, [r4, #78]	; 0x4e
  4043e4:	f8b4 304c 	ldrh.w	r3, [r4, #76]	; 0x4c
  4043e8:	2b01      	cmp	r3, #1
  4043ea:	f8b4 3068 	ldrh.w	r3, [r4, #104]	; 0x68
  4043ee:	bf08      	it	eq
  4043f0:	0040      	lsleq	r0, r0, #1
  4043f2:	f103 33ff 	add.w	r3, r3, #4294967295
  4043f6:	bf08      	it	eq
  4043f8:	b280      	uxtheq	r0, r0
  4043fa:	f8a4 3068 	strh.w	r3, [r4, #104]	; 0x68
  4043fe:	f8a4 004c 	strh.w	r0, [r4, #76]	; 0x4c
  404402:	6f20      	ldr	r0, [r4, #112]	; 0x70
  404404:	6803      	ldr	r3, [r0, #0]
  404406:	6723      	str	r3, [r4, #112]	; 0x70
  404408:	4b32      	ldr	r3, [pc, #200]	; (4044d4 <tcp_input+0x5a8>)
  40440a:	4798      	blx	r3
  40440c:	6f23      	ldr	r3, [r4, #112]	; 0x70
  40440e:	b93b      	cbnz	r3, 404420 <tcp_input+0x4f4>
  404410:	f64f 73ff 	movw	r3, #65535	; 0xffff
  404414:	86a3      	strh	r3, [r4, #52]	; 0x34
  404416:	f8d4 3084 	ldr.w	r3, [r4, #132]	; 0x84
  40441a:	b933      	cbnz	r3, 40442a <tcp_input+0x4fe>
  40441c:	7fa3      	ldrb	r3, [r4, #30]
  40441e:	e659      	b.n	4040d4 <tcp_input+0x1a8>
  404420:	2300      	movs	r3, #0
  404422:	86a3      	strh	r3, [r4, #52]	; 0x34
  404424:	f884 3046 	strb.w	r3, [r4, #70]	; 0x46
  404428:	e7f5      	b.n	404416 <tcp_input+0x4ea>
  40442a:	2200      	movs	r2, #0
  40442c:	4621      	mov	r1, r4
  40442e:	6920      	ldr	r0, [r4, #16]
  404430:	4798      	blx	r3
  404432:	300a      	adds	r0, #10
  404434:	d1f2      	bne.n	40441c <tcp_input+0x4f0>
  404436:	e75e      	b.n	4042f6 <tcp_input+0x3ca>
  404438:	f898 3000 	ldrb.w	r3, [r8]
  40443c:	06db      	lsls	r3, r3, #27
  40443e:	d50f      	bpl.n	404460 <tcp_input+0x534>
  404440:	682b      	ldr	r3, [r5, #0]
  404442:	9a03      	ldr	r2, [sp, #12]
  404444:	f8d9 1000 	ldr.w	r1, [r9]
  404448:	8810      	ldrh	r0, [r2, #0]
  40444a:	881a      	ldrh	r2, [r3, #0]
  40444c:	4401      	add	r1, r0
  40444e:	481b      	ldr	r0, [pc, #108]	; (4044bc <tcp_input+0x590>)
  404450:	9201      	str	r2, [sp, #4]
  404452:	885b      	ldrh	r3, [r3, #2]
  404454:	4a0e      	ldr	r2, [pc, #56]	; (404490 <tcp_input+0x564>)
  404456:	9300      	str	r3, [sp, #0]
  404458:	4b1f      	ldr	r3, [pc, #124]	; (4044d8 <tcp_input+0x5ac>)
  40445a:	6800      	ldr	r0, [r0, #0]
  40445c:	4d1f      	ldr	r5, [pc, #124]	; (4044dc <tcp_input+0x5b0>)
  40445e:	47a8      	blx	r5
  404460:	783b      	ldrb	r3, [r7, #0]
  404462:	071a      	lsls	r2, r3, #28
  404464:	f100 814e 	bmi.w	404704 <tcp_input+0x7d8>
  404468:	06db      	lsls	r3, r3, #27
  40446a:	f140 815b 	bpl.w	404724 <tcp_input+0x7f8>
  40446e:	7fa3      	ldrb	r3, [r4, #30]
  404470:	06dd      	lsls	r5, r3, #27
  404472:	f100 814e 	bmi.w	404712 <tcp_input+0x7e6>
  404476:	f8d4 308c 	ldr.w	r3, [r4, #140]	; 0x8c
  40447a:	2b00      	cmp	r3, #0
  40447c:	f000 8149 	beq.w	404712 <tcp_input+0x7e6>
  404480:	f06f 010b 	mvn.w	r1, #11
  404484:	e143      	b.n	40470e <tcp_input+0x7e2>
  404486:	bf00      	nop
  404488:	00403185 	.word	0x00403185
  40448c:	00409d8c 	.word	0x00409d8c
  404490:	204039a0 	.word	0x204039a0
  404494:	204049cc 	.word	0x204049cc
  404498:	00401e55 	.word	0x00401e55
  40449c:	204049c8 	.word	0x204049c8
  4044a0:	00403ea9 	.word	0x00403ea9
  4044a4:	004032dd 	.word	0x004032dd
  4044a8:	00404cb9 	.word	0x00404cb9
  4044ac:	004030b1 	.word	0x004030b1
  4044b0:	00403385 	.word	0x00403385
  4044b4:	20402658 	.word	0x20402658
  4044b8:	004023b9 	.word	0x004023b9
  4044bc:	2040262c 	.word	0x2040262c
  4044c0:	20402650 	.word	0x20402650
  4044c4:	00409e95 	.word	0x00409e95
  4044c8:	00406415 	.word	0x00406415
  4044cc:	204049d0 	.word	0x204049d0
  4044d0:	0040112d 	.word	0x0040112d
  4044d4:	00402a41 	.word	0x00402a41
  4044d8:	20403998 	.word	0x20403998
  4044dc:	004050cd 	.word	0x004050cd
  4044e0:	f898 3000 	ldrb.w	r3, [r8]
  4044e4:	06d8      	lsls	r0, r3, #27
  4044e6:	d548      	bpl.n	40457a <tcp_input+0x64e>
  4044e8:	4b9b      	ldr	r3, [pc, #620]	; (404758 <tcp_input+0x82c>)
  4044ea:	6818      	ldr	r0, [r3, #0]
  4044ec:	6ca3      	ldr	r3, [r4, #72]	; 0x48
  4044ee:	43db      	mvns	r3, r3
  4044f0:	42c3      	cmn	r3, r0
  4044f2:	d435      	bmi.n	404560 <tcp_input+0x634>
  4044f4:	6d23      	ldr	r3, [r4, #80]	; 0x50
  4044f6:	1ac3      	subs	r3, r0, r3
  4044f8:	2b00      	cmp	r3, #0
  4044fa:	dc31      	bgt.n	404560 <tcp_input+0x634>
  4044fc:	2304      	movs	r3, #4
  4044fe:	4897      	ldr	r0, [pc, #604]	; (40475c <tcp_input+0x830>)
  404500:	7623      	strb	r3, [r4, #24]
  404502:	6933      	ldr	r3, [r6, #16]
  404504:	885a      	ldrh	r2, [r3, #2]
  404506:	8819      	ldrh	r1, [r3, #0]
  404508:	4b95      	ldr	r3, [pc, #596]	; (404760 <tcp_input+0x834>)
  40450a:	4798      	blx	r3
  40450c:	6963      	ldr	r3, [r4, #20]
  40450e:	b91b      	cbnz	r3, 404518 <tcp_input+0x5ec>
  404510:	4620      	mov	r0, r4
  404512:	4b94      	ldr	r3, [pc, #592]	; (404764 <tcp_input+0x838>)
  404514:	4798      	blx	r3
  404516:	e6ee      	b.n	4042f6 <tcp_input+0x3ca>
  404518:	2200      	movs	r2, #0
  40451a:	4621      	mov	r1, r4
  40451c:	6920      	ldr	r0, [r4, #16]
  40451e:	4798      	blx	r3
  404520:	b110      	cbz	r0, 404528 <tcp_input+0x5fc>
  404522:	300a      	adds	r0, #10
  404524:	d1f4      	bne.n	404510 <tcp_input+0x5e4>
  404526:	e6e6      	b.n	4042f6 <tcp_input+0x3ca>
  404528:	4b8f      	ldr	r3, [pc, #572]	; (404768 <tcp_input+0x83c>)
  40452a:	4620      	mov	r0, r4
  40452c:	f8b4 504c 	ldrh.w	r5, [r4, #76]	; 0x4c
  404530:	4798      	blx	r3
  404532:	f8b4 3064 	ldrh.w	r3, [r4, #100]	; 0x64
  404536:	b113      	cbz	r3, 40453e <tcp_input+0x612>
  404538:	3b01      	subs	r3, #1
  40453a:	f8a4 3064 	strh.w	r3, [r4, #100]	; 0x64
  40453e:	8ee3      	ldrh	r3, [r4, #54]	; 0x36
  404540:	2d01      	cmp	r5, #1
  404542:	bf04      	itt	eq
  404544:	005b      	lsleq	r3, r3, #1
  404546:	b29b      	uxtheq	r3, r3
  404548:	f8a4 304c 	strh.w	r3, [r4, #76]	; 0x4c
  40454c:	783b      	ldrb	r3, [r7, #0]
  40454e:	069a      	lsls	r2, r3, #26
  404550:	d586      	bpl.n	404460 <tcp_input+0x534>
  404552:	7fa3      	ldrb	r3, [r4, #30]
  404554:	f043 0302 	orr.w	r3, r3, #2
  404558:	77a3      	strb	r3, [r4, #30]
  40455a:	2307      	movs	r3, #7
  40455c:	7623      	strb	r3, [r4, #24]
  40455e:	e77f      	b.n	404460 <tcp_input+0x534>
  404560:	682b      	ldr	r3, [r5, #0]
  404562:	9a03      	ldr	r2, [sp, #12]
  404564:	f8d9 1000 	ldr.w	r1, [r9]
  404568:	8815      	ldrh	r5, [r2, #0]
  40456a:	881a      	ldrh	r2, [r3, #0]
  40456c:	4429      	add	r1, r5
  40456e:	9201      	str	r2, [sp, #4]
  404570:	885b      	ldrh	r3, [r3, #2]
  404572:	4a7e      	ldr	r2, [pc, #504]	; (40476c <tcp_input+0x840>)
  404574:	9300      	str	r3, [sp, #0]
  404576:	4b7e      	ldr	r3, [pc, #504]	; (404770 <tcp_input+0x844>)
  404578:	e770      	b.n	40445c <tcp_input+0x530>
  40457a:	0799      	lsls	r1, r3, #30
  40457c:	f57f af70 	bpl.w	404460 <tcp_input+0x534>
  404580:	6aa3      	ldr	r3, [r4, #40]	; 0x28
  404582:	4a7c      	ldr	r2, [pc, #496]	; (404774 <tcp_input+0x848>)
  404584:	3b01      	subs	r3, #1
  404586:	6812      	ldr	r2, [r2, #0]
  404588:	4293      	cmp	r3, r2
  40458a:	f47f af69 	bne.w	404460 <tcp_input+0x534>
  40458e:	4620      	mov	r0, r4
  404590:	4b79      	ldr	r3, [pc, #484]	; (404778 <tcp_input+0x84c>)
  404592:	4798      	blx	r3
  404594:	e764      	b.n	404460 <tcp_input+0x534>
  404596:	4620      	mov	r0, r4
  404598:	4b73      	ldr	r3, [pc, #460]	; (404768 <tcp_input+0x83c>)
  40459a:	4798      	blx	r3
  40459c:	e7d6      	b.n	40454c <tcp_input+0x620>
  40459e:	4b72      	ldr	r3, [pc, #456]	; (404768 <tcp_input+0x83c>)
  4045a0:	4620      	mov	r0, r4
  4045a2:	4798      	blx	r3
  4045a4:	783b      	ldrb	r3, [r7, #0]
  4045a6:	f013 0f20 	tst.w	r3, #32
  4045aa:	f898 3000 	ldrb.w	r3, [r8]
  4045ae:	d03c      	beq.n	40462a <tcp_input+0x6fe>
  4045b0:	06db      	lsls	r3, r3, #27
  4045b2:	d534      	bpl.n	40461e <tcp_input+0x6f2>
  4045b4:	4b68      	ldr	r3, [pc, #416]	; (404758 <tcp_input+0x82c>)
  4045b6:	6d22      	ldr	r2, [r4, #80]	; 0x50
  4045b8:	681b      	ldr	r3, [r3, #0]
  4045ba:	429a      	cmp	r2, r3
  4045bc:	d12f      	bne.n	40461e <tcp_input+0x6f2>
  4045be:	6933      	ldr	r3, [r6, #16]
  4045c0:	486e      	ldr	r0, [pc, #440]	; (40477c <tcp_input+0x850>)
  4045c2:	885a      	ldrh	r2, [r3, #2]
  4045c4:	8819      	ldrh	r1, [r3, #0]
  4045c6:	4b66      	ldr	r3, [pc, #408]	; (404760 <tcp_input+0x834>)
  4045c8:	4798      	blx	r3
  4045ca:	7fa3      	ldrb	r3, [r4, #30]
  4045cc:	4620      	mov	r0, r4
  4045ce:	f043 0302 	orr.w	r3, r3, #2
  4045d2:	77a3      	strb	r3, [r4, #30]
  4045d4:	4b6a      	ldr	r3, [pc, #424]	; (404780 <tcp_input+0x854>)
  4045d6:	4798      	blx	r3
  4045d8:	4a6a      	ldr	r2, [pc, #424]	; (404784 <tcp_input+0x858>)
  4045da:	6813      	ldr	r3, [r2, #0]
  4045dc:	429c      	cmp	r4, r3
  4045de:	d102      	bne.n	4045e6 <tcp_input+0x6ba>
  4045e0:	68e3      	ldr	r3, [r4, #12]
  4045e2:	6013      	str	r3, [r2, #0]
  4045e4:	e00c      	b.n	404600 <tcp_input+0x6d4>
  4045e6:	4a68      	ldr	r2, [pc, #416]	; (404788 <tcp_input+0x85c>)
  4045e8:	2100      	movs	r1, #0
  4045ea:	6013      	str	r3, [r2, #0]
  4045ec:	b90b      	cbnz	r3, 4045f2 <tcp_input+0x6c6>
  4045ee:	b139      	cbz	r1, 404600 <tcp_input+0x6d4>
  4045f0:	e7f7      	b.n	4045e2 <tcp_input+0x6b6>
  4045f2:	68d8      	ldr	r0, [r3, #12]
  4045f4:	4284      	cmp	r4, r0
  4045f6:	d10f      	bne.n	404618 <tcp_input+0x6ec>
  4045f8:	b101      	cbz	r1, 4045fc <tcp_input+0x6d0>
  4045fa:	6013      	str	r3, [r2, #0]
  4045fc:	68e2      	ldr	r2, [r4, #12]
  4045fe:	60da      	str	r2, [r3, #12]
  404600:	2201      	movs	r2, #1
  404602:	4b62      	ldr	r3, [pc, #392]	; (40478c <tcp_input+0x860>)
  404604:	701a      	strb	r2, [r3, #0]
  404606:	230a      	movs	r3, #10
  404608:	7623      	strb	r3, [r4, #24]
  40460a:	4b61      	ldr	r3, [pc, #388]	; (404790 <tcp_input+0x864>)
  40460c:	681a      	ldr	r2, [r3, #0]
  40460e:	601c      	str	r4, [r3, #0]
  404610:	60e2      	str	r2, [r4, #12]
  404612:	4b60      	ldr	r3, [pc, #384]	; (404794 <tcp_input+0x868>)
  404614:	4798      	blx	r3
  404616:	e723      	b.n	404460 <tcp_input+0x534>
  404618:	2101      	movs	r1, #1
  40461a:	4603      	mov	r3, r0
  40461c:	e7e6      	b.n	4045ec <tcp_input+0x6c0>
  40461e:	7fa3      	ldrb	r3, [r4, #30]
  404620:	f043 0302 	orr.w	r3, r3, #2
  404624:	77a3      	strb	r3, [r4, #30]
  404626:	2308      	movs	r3, #8
  404628:	e798      	b.n	40455c <tcp_input+0x630>
  40462a:	06dd      	lsls	r5, r3, #27
  40462c:	f57f af18 	bpl.w	404460 <tcp_input+0x534>
  404630:	4b49      	ldr	r3, [pc, #292]	; (404758 <tcp_input+0x82c>)
  404632:	6d22      	ldr	r2, [r4, #80]	; 0x50
  404634:	681b      	ldr	r3, [r3, #0]
  404636:	429a      	cmp	r2, r3
  404638:	f47f af12 	bne.w	404460 <tcp_input+0x534>
  40463c:	2306      	movs	r3, #6
  40463e:	e78d      	b.n	40455c <tcp_input+0x630>
  404640:	4620      	mov	r0, r4
  404642:	4b49      	ldr	r3, [pc, #292]	; (404768 <tcp_input+0x83c>)
  404644:	4798      	blx	r3
  404646:	783b      	ldrb	r3, [r7, #0]
  404648:	0698      	lsls	r0, r3, #26
  40464a:	f57f af09 	bpl.w	404460 <tcp_input+0x534>
  40464e:	6933      	ldr	r3, [r6, #16]
  404650:	4851      	ldr	r0, [pc, #324]	; (404798 <tcp_input+0x86c>)
  404652:	885a      	ldrh	r2, [r3, #2]
  404654:	8819      	ldrh	r1, [r3, #0]
  404656:	4b42      	ldr	r3, [pc, #264]	; (404760 <tcp_input+0x834>)
  404658:	4798      	blx	r3
  40465a:	7fa3      	ldrb	r3, [r4, #30]
  40465c:	4620      	mov	r0, r4
  40465e:	f043 0302 	orr.w	r3, r3, #2
  404662:	77a3      	strb	r3, [r4, #30]
  404664:	4b46      	ldr	r3, [pc, #280]	; (404780 <tcp_input+0x854>)
  404666:	4798      	blx	r3
  404668:	4a46      	ldr	r2, [pc, #280]	; (404784 <tcp_input+0x858>)
  40466a:	6813      	ldr	r3, [r2, #0]
  40466c:	429c      	cmp	r4, r3
  40466e:	d0b7      	beq.n	4045e0 <tcp_input+0x6b4>
  404670:	4a45      	ldr	r2, [pc, #276]	; (404788 <tcp_input+0x85c>)
  404672:	2100      	movs	r1, #0
  404674:	6013      	str	r3, [r2, #0]
  404676:	2b00      	cmp	r3, #0
  404678:	d0b9      	beq.n	4045ee <tcp_input+0x6c2>
  40467a:	68d8      	ldr	r0, [r3, #12]
  40467c:	4284      	cmp	r4, r0
  40467e:	d0bb      	beq.n	4045f8 <tcp_input+0x6cc>
  404680:	2101      	movs	r1, #1
  404682:	4603      	mov	r3, r0
  404684:	e7f7      	b.n	404676 <tcp_input+0x74a>
  404686:	4b38      	ldr	r3, [pc, #224]	; (404768 <tcp_input+0x83c>)
  404688:	4620      	mov	r0, r4
  40468a:	4798      	blx	r3
  40468c:	f898 3000 	ldrb.w	r3, [r8]
  404690:	06d9      	lsls	r1, r3, #27
  404692:	f57f aee5 	bpl.w	404460 <tcp_input+0x534>
  404696:	4b30      	ldr	r3, [pc, #192]	; (404758 <tcp_input+0x82c>)
  404698:	6d22      	ldr	r2, [r4, #80]	; 0x50
  40469a:	681b      	ldr	r3, [r3, #0]
  40469c:	429a      	cmp	r2, r3
  40469e:	f47f aedf 	bne.w	404460 <tcp_input+0x534>
  4046a2:	6933      	ldr	r3, [r6, #16]
  4046a4:	483d      	ldr	r0, [pc, #244]	; (40479c <tcp_input+0x870>)
  4046a6:	885a      	ldrh	r2, [r3, #2]
  4046a8:	8819      	ldrh	r1, [r3, #0]
  4046aa:	4b2d      	ldr	r3, [pc, #180]	; (404760 <tcp_input+0x834>)
  4046ac:	4798      	blx	r3
  4046ae:	4b34      	ldr	r3, [pc, #208]	; (404780 <tcp_input+0x854>)
  4046b0:	4620      	mov	r0, r4
  4046b2:	4798      	blx	r3
  4046b4:	4a33      	ldr	r2, [pc, #204]	; (404784 <tcp_input+0x858>)
  4046b6:	6813      	ldr	r3, [r2, #0]
  4046b8:	429c      	cmp	r4, r3
  4046ba:	d091      	beq.n	4045e0 <tcp_input+0x6b4>
  4046bc:	4a32      	ldr	r2, [pc, #200]	; (404788 <tcp_input+0x85c>)
  4046be:	2100      	movs	r1, #0
  4046c0:	6013      	str	r3, [r2, #0]
  4046c2:	2b00      	cmp	r3, #0
  4046c4:	d093      	beq.n	4045ee <tcp_input+0x6c2>
  4046c6:	68d8      	ldr	r0, [r3, #12]
  4046c8:	4284      	cmp	r4, r0
  4046ca:	d095      	beq.n	4045f8 <tcp_input+0x6cc>
  4046cc:	2101      	movs	r1, #1
  4046ce:	4603      	mov	r3, r0
  4046d0:	e7f7      	b.n	4046c2 <tcp_input+0x796>
  4046d2:	4b25      	ldr	r3, [pc, #148]	; (404768 <tcp_input+0x83c>)
  4046d4:	4620      	mov	r0, r4
  4046d6:	4798      	blx	r3
  4046d8:	f898 3000 	ldrb.w	r3, [r8]
  4046dc:	06da      	lsls	r2, r3, #27
  4046de:	f57f aebf 	bpl.w	404460 <tcp_input+0x534>
  4046e2:	4b1d      	ldr	r3, [pc, #116]	; (404758 <tcp_input+0x82c>)
  4046e4:	6d22      	ldr	r2, [r4, #80]	; 0x50
  4046e6:	681b      	ldr	r3, [r3, #0]
  4046e8:	429a      	cmp	r2, r3
  4046ea:	f47f aeb9 	bne.w	404460 <tcp_input+0x534>
  4046ee:	6933      	ldr	r3, [r6, #16]
  4046f0:	482b      	ldr	r0, [pc, #172]	; (4047a0 <tcp_input+0x874>)
  4046f2:	885a      	ldrh	r2, [r3, #2]
  4046f4:	8819      	ldrh	r1, [r3, #0]
  4046f6:	4b1a      	ldr	r3, [pc, #104]	; (404760 <tcp_input+0x834>)
  4046f8:	4798      	blx	r3
  4046fa:	783b      	ldrb	r3, [r7, #0]
  4046fc:	f043 0310 	orr.w	r3, r3, #16
  404700:	703b      	strb	r3, [r7, #0]
  404702:	e6ad      	b.n	404460 <tcp_input+0x534>
  404704:	f8d4 308c 	ldr.w	r3, [r4, #140]	; 0x8c
  404708:	b11b      	cbz	r3, 404712 <tcp_input+0x7e6>
  40470a:	f06f 010a 	mvn.w	r1, #10
  40470e:	6920      	ldr	r0, [r4, #16]
  404710:	4798      	blx	r3
  404712:	4621      	mov	r1, r4
  404714:	481b      	ldr	r0, [pc, #108]	; (404784 <tcp_input+0x858>)
  404716:	4b23      	ldr	r3, [pc, #140]	; (4047a4 <tcp_input+0x878>)
  404718:	4798      	blx	r3
  40471a:	4621      	mov	r1, r4
  40471c:	2002      	movs	r0, #2
  40471e:	4b22      	ldr	r3, [pc, #136]	; (4047a8 <tcp_input+0x87c>)
  404720:	4798      	blx	r3
  404722:	e5e8      	b.n	4042f6 <tcp_input+0x3ca>
  404724:	f8b4 2064 	ldrh.w	r2, [r4, #100]	; 0x64
  404728:	2a00      	cmp	r2, #0
  40472a:	d141      	bne.n	4047b0 <tcp_input+0x884>
  40472c:	f8da 2000 	ldr.w	r2, [sl]
  404730:	2a00      	cmp	r2, #0
  404732:	d146      	bne.n	4047c2 <tcp_input+0x896>
  404734:	783b      	ldrb	r3, [r7, #0]
  404736:	0698      	lsls	r0, r3, #26
  404738:	d506      	bpl.n	404748 <tcp_input+0x81c>
  40473a:	6fa3      	ldr	r3, [r4, #120]	; 0x78
  40473c:	2b00      	cmp	r3, #0
  40473e:	d05d      	beq.n	4047fc <tcp_input+0x8d0>
  404740:	7b5a      	ldrb	r2, [r3, #13]
  404742:	f042 0220 	orr.w	r2, r2, #32
  404746:	735a      	strb	r2, [r3, #13]
  404748:	2300      	movs	r3, #0
  40474a:	4620      	mov	r0, r4
  40474c:	f8cb 3000 	str.w	r3, [fp]
  404750:	4b16      	ldr	r3, [pc, #88]	; (4047ac <tcp_input+0x880>)
  404752:	4798      	blx	r3
  404754:	e5cf      	b.n	4042f6 <tcp_input+0x3ca>
  404756:	bf00      	nop
  404758:	2040262c 	.word	0x2040262c
  40475c:	00409db6 	.word	0x00409db6
  404760:	00406415 	.word	0x00406415
  404764:	00403161 	.word	0x00403161
  404768:	004036d1 	.word	0x004036d1
  40476c:	204039a0 	.word	0x204039a0
  404770:	20403998 	.word	0x20403998
  404774:	20402650 	.word	0x20402650
  404778:	004051ad 	.word	0x004051ad
  40477c:	00409dde 	.word	0x00409dde
  404780:	00402ad9 	.word	0x00402ad9
  404784:	204049cc 	.word	0x204049cc
  404788:	204049d8 	.word	0x204049d8
  40478c:	204049c8 	.word	0x204049c8
  404790:	204049e0 	.word	0x204049e0
  404794:	00401e55 	.word	0x00401e55
  404798:	00409e0d 	.word	0x00409e0d
  40479c:	00409e3c 	.word	0x00409e3c
  4047a0:	00409e68 	.word	0x00409e68
  4047a4:	00402ed5 	.word	0x00402ed5
  4047a8:	00402215 	.word	0x00402215
  4047ac:	00404e2d 	.word	0x00404e2d
  4047b0:	6fe3      	ldr	r3, [r4, #124]	; 0x7c
  4047b2:	2b00      	cmp	r3, #0
  4047b4:	d0ba      	beq.n	40472c <tcp_input+0x800>
  4047b6:	4621      	mov	r1, r4
  4047b8:	6920      	ldr	r0, [r4, #16]
  4047ba:	4798      	blx	r3
  4047bc:	300a      	adds	r0, #10
  4047be:	d1b5      	bne.n	40472c <tcp_input+0x800>
  4047c0:	e599      	b.n	4042f6 <tcp_input+0x3ca>
  4047c2:	7fa3      	ldrb	r3, [r4, #30]
  4047c4:	f013 0310 	ands.w	r3, r3, #16
  4047c8:	d003      	beq.n	4047d2 <tcp_input+0x8a6>
  4047ca:	4610      	mov	r0, r2
  4047cc:	4b21      	ldr	r3, [pc, #132]	; (404854 <tcp_input+0x928>)
  4047ce:	4798      	blx	r3
  4047d0:	e69e      	b.n	404510 <tcp_input+0x5e4>
  4047d2:	f8d4 5080 	ldr.w	r5, [r4, #128]	; 0x80
  4047d6:	b165      	cbz	r5, 4047f2 <tcp_input+0x8c6>
  4047d8:	4621      	mov	r1, r4
  4047da:	6920      	ldr	r0, [r4, #16]
  4047dc:	47a8      	blx	r5
  4047de:	f110 0f0a 	cmn.w	r0, #10
  4047e2:	f43f ad88 	beq.w	4042f6 <tcp_input+0x3ca>
  4047e6:	2800      	cmp	r0, #0
  4047e8:	d0a4      	beq.n	404734 <tcp_input+0x808>
  4047ea:	f8da 3000 	ldr.w	r3, [sl]
  4047ee:	67a3      	str	r3, [r4, #120]	; 0x78
  4047f0:	e7a0      	b.n	404734 <tcp_input+0x808>
  4047f2:	462b      	mov	r3, r5
  4047f4:	4628      	mov	r0, r5
  4047f6:	4621      	mov	r1, r4
  4047f8:	4d17      	ldr	r5, [pc, #92]	; (404858 <tcp_input+0x92c>)
  4047fa:	e7ef      	b.n	4047dc <tcp_input+0x8b0>
  4047fc:	8da3      	ldrh	r3, [r4, #44]	; 0x2c
  4047fe:	f640 3268 	movw	r2, #2920	; 0xb68
  404802:	f8d4 5080 	ldr.w	r5, [r4, #128]	; 0x80
  404806:	4293      	cmp	r3, r2
  404808:	bf1c      	itt	ne
  40480a:	3301      	addne	r3, #1
  40480c:	85a3      	strhne	r3, [r4, #44]	; 0x2c
  40480e:	2d00      	cmp	r5, #0
  404810:	d09a      	beq.n	404748 <tcp_input+0x81c>
  404812:	2300      	movs	r3, #0
  404814:	4621      	mov	r1, r4
  404816:	6920      	ldr	r0, [r4, #16]
  404818:	461a      	mov	r2, r3
  40481a:	47a8      	blx	r5
  40481c:	300a      	adds	r0, #10
  40481e:	d193      	bne.n	404748 <tcp_input+0x81c>
  404820:	e569      	b.n	4042f6 <tcp_input+0x3ca>
  404822:	b120      	cbz	r0, 40482e <tcp_input+0x902>
  404824:	68e6      	ldr	r6, [r4, #12]
  404826:	60c6      	str	r6, [r0, #12]
  404828:	60e2      	str	r2, [r4, #12]
  40482a:	4a0c      	ldr	r2, [pc, #48]	; (40485c <tcp_input+0x930>)
  40482c:	6014      	str	r4, [r2, #0]
  40482e:	0758      	lsls	r0, r3, #29
  404830:	f53f abaf 	bmi.w	403f92 <tcp_input+0x66>
  404834:	f013 0610 	ands.w	r6, r3, #16
  404838:	f43f acba 	beq.w	4041b0 <tcp_input+0x284>
  40483c:	883b      	ldrh	r3, [r7, #0]
  40483e:	f8d9 0000 	ldr.w	r0, [r9]
  404842:	9902      	ldr	r1, [sp, #8]
  404844:	9301      	str	r3, [sp, #4]
  404846:	887b      	ldrh	r3, [r7, #2]
  404848:	4401      	add	r1, r0
  40484a:	4a05      	ldr	r2, [pc, #20]	; (404860 <tcp_input+0x934>)
  40484c:	9300      	str	r3, [sp, #0]
  40484e:	4b05      	ldr	r3, [pc, #20]	; (404864 <tcp_input+0x938>)
  404850:	e46c      	b.n	40412c <tcp_input+0x200>
  404852:	bf00      	nop
  404854:	004023b9 	.word	0x004023b9
  404858:	00403355 	.word	0x00403355
  40485c:	204049d4 	.word	0x204049d4
  404860:	204039a0 	.word	0x204039a0
  404864:	20403998 	.word	0x20403998

00404868 <tcp_create_segment>:
  404868:	e92d 4ff8 	stmdb	sp!, {r3, r4, r5, r6, r7, r8, r9, sl, fp, lr}
  40486c:	f89d 8028 	ldrb.w	r8, [sp, #40]	; 0x28
  404870:	469a      	mov	sl, r3
  404872:	4681      	mov	r9, r0
  404874:	2004      	movs	r0, #4
  404876:	f018 0f01 	tst.w	r8, #1
  40487a:	460f      	mov	r7, r1
  40487c:	4616      	mov	r6, r2
  40487e:	bf14      	ite	ne
  404880:	2504      	movne	r5, #4
  404882:	2500      	moveq	r5, #0
  404884:	f018 0f02 	tst.w	r8, #2
  404888:	bf14      	ite	ne
  40488a:	230c      	movne	r3, #12
  40488c:	2300      	moveq	r3, #0
  40488e:	441d      	add	r5, r3
  404890:	4b24      	ldr	r3, [pc, #144]	; (404924 <tcp_create_segment+0xbc>)
  404892:	4798      	blx	r3
  404894:	4604      	mov	r4, r0
  404896:	b928      	cbnz	r0, 4048a4 <tcp_create_segment+0x3c>
  404898:	4638      	mov	r0, r7
  40489a:	4b23      	ldr	r3, [pc, #140]	; (404928 <tcp_create_segment+0xc0>)
  40489c:	4798      	blx	r3
  40489e:	4620      	mov	r0, r4
  4048a0:	e8bd 8ff8 	ldmia.w	sp!, {r3, r4, r5, r6, r7, r8, r9, sl, fp, pc}
  4048a4:	f880 800c 	strb.w	r8, [r0, #12]
  4048a8:	f04f 0800 	mov.w	r8, #0
  4048ac:	6047      	str	r7, [r0, #4]
  4048ae:	2114      	movs	r1, #20
  4048b0:	f8c0 8000 	str.w	r8, [r0]
  4048b4:	893b      	ldrh	r3, [r7, #8]
  4048b6:	f8a0 800a 	strh.w	r8, [r0, #10]
  4048ba:	1b5b      	subs	r3, r3, r5
  4048bc:	8103      	strh	r3, [r0, #8]
  4048be:	4638      	mov	r0, r7
  4048c0:	4b1a      	ldr	r3, [pc, #104]	; (40492c <tcp_create_segment+0xc4>)
  4048c2:	4798      	blx	r3
  4048c4:	4607      	mov	r7, r0
  4048c6:	b120      	cbz	r0, 4048d2 <tcp_create_segment+0x6a>
  4048c8:	4620      	mov	r0, r4
  4048ca:	4b19      	ldr	r3, [pc, #100]	; (404930 <tcp_create_segment+0xc8>)
  4048cc:	4798      	blx	r3
  4048ce:	4644      	mov	r4, r8
  4048d0:	e7e5      	b.n	40489e <tcp_create_segment+0x36>
  4048d2:	6863      	ldr	r3, [r4, #4]
  4048d4:	f3c5 0587 	ubfx	r5, r5, #2, #8
  4048d8:	f8df 805c 	ldr.w	r8, [pc, #92]	; 404938 <tcp_create_segment+0xd0>
  4048dc:	f8d3 b004 	ldr.w	fp, [r3, #4]
  4048e0:	3505      	adds	r5, #5
  4048e2:	f8c4 b010 	str.w	fp, [r4, #16]
  4048e6:	ea46 3505 	orr.w	r5, r6, r5, lsl #12
  4048ea:	f8b9 001a 	ldrh.w	r0, [r9, #26]
  4048ee:	47c0      	blx	r8
  4048f0:	f8ab 0000 	strh.w	r0, [fp]
  4048f4:	f8d4 b010 	ldr.w	fp, [r4, #16]
  4048f8:	f8b9 001c 	ldrh.w	r0, [r9, #28]
  4048fc:	47c0      	blx	r8
  4048fe:	f8ab 0002 	strh.w	r0, [fp, #2]
  404902:	f8d4 9010 	ldr.w	r9, [r4, #16]
  404906:	4650      	mov	r0, sl
  404908:	4b0a      	ldr	r3, [pc, #40]	; (404934 <tcp_create_segment+0xcc>)
  40490a:	4798      	blx	r3
  40490c:	f8c9 0004 	str.w	r0, [r9, #4]
  404910:	f8d4 9010 	ldr.w	r9, [r4, #16]
  404914:	b2a8      	uxth	r0, r5
  404916:	47c0      	blx	r8
  404918:	f8a9 000c 	strh.w	r0, [r9, #12]
  40491c:	6923      	ldr	r3, [r4, #16]
  40491e:	749f      	strb	r7, [r3, #18]
  404920:	74df      	strb	r7, [r3, #19]
  404922:	e7bc      	b.n	40489e <tcp_create_segment+0x36>
  404924:	004021d9 	.word	0x004021d9
  404928:	004023b9 	.word	0x004023b9
  40492c:	00402341 	.word	0x00402341
  404930:	00402a41 	.word	0x00402a41
  404934:	00401129 	.word	0x00401129
  404938:	0040111d 	.word	0x0040111d

0040493c <tcp_output_alloc_header.constprop.1>:
  40493c:	3114      	adds	r1, #20
  40493e:	4b16      	ldr	r3, [pc, #88]	; (404998 <tcp_output_alloc_header.constprop.1+0x5c>)
  404940:	e92d 41f0 	stmdb	sp!, {r4, r5, r6, r7, r8, lr}
  404944:	b289      	uxth	r1, r1
  404946:	4605      	mov	r5, r0
  404948:	4690      	mov	r8, r2
  40494a:	2001      	movs	r0, #1
  40494c:	2200      	movs	r2, #0
  40494e:	4798      	blx	r3
  404950:	4607      	mov	r7, r0
  404952:	b1e8      	cbz	r0, 404990 <tcp_output_alloc_header.constprop.1+0x54>
  404954:	6844      	ldr	r4, [r0, #4]
  404956:	4e11      	ldr	r6, [pc, #68]	; (40499c <tcp_output_alloc_header.constprop.1+0x60>)
  404958:	8b68      	ldrh	r0, [r5, #26]
  40495a:	47b0      	blx	r6
  40495c:	8020      	strh	r0, [r4, #0]
  40495e:	8ba8      	ldrh	r0, [r5, #28]
  404960:	47b0      	blx	r6
  404962:	4b0f      	ldr	r3, [pc, #60]	; (4049a0 <tcp_output_alloc_header.constprop.1+0x64>)
  404964:	8060      	strh	r0, [r4, #2]
  404966:	f8c4 8004 	str.w	r8, [r4, #4]
  40496a:	6aa8      	ldr	r0, [r5, #40]	; 0x28
  40496c:	4798      	blx	r3
  40496e:	60a0      	str	r0, [r4, #8]
  404970:	f245 0010 	movw	r0, #20496	; 0x5010
  404974:	47b0      	blx	r6
  404976:	81a0      	strh	r0, [r4, #12]
  404978:	8de8      	ldrh	r0, [r5, #46]	; 0x2e
  40497a:	47b0      	blx	r6
  40497c:	2300      	movs	r3, #0
  40497e:	81e0      	strh	r0, [r4, #14]
  404980:	7423      	strb	r3, [r4, #16]
  404982:	7463      	strb	r3, [r4, #17]
  404984:	74a3      	strb	r3, [r4, #18]
  404986:	74e3      	strb	r3, [r4, #19]
  404988:	8dea      	ldrh	r2, [r5, #46]	; 0x2e
  40498a:	6aab      	ldr	r3, [r5, #40]	; 0x28
  40498c:	4413      	add	r3, r2
  40498e:	632b      	str	r3, [r5, #48]	; 0x30
  404990:	4638      	mov	r0, r7
  404992:	e8bd 81f0 	ldmia.w	sp!, {r4, r5, r6, r7, r8, pc}
  404996:	bf00      	nop
  404998:	00402401 	.word	0x00402401
  40499c:	0040111d 	.word	0x0040111d
  4049a0:	00401129 	.word	0x00401129

004049a4 <tcp_write>:
  4049a4:	e92d 4ff0 	stmdb	sp!, {r4, r5, r6, r7, r8, r9, sl, fp, lr}
  4049a8:	b08b      	sub	sp, #44	; 0x2c
  4049aa:	4607      	mov	r7, r0
  4049ac:	4692      	mov	sl, r2
  4049ae:	9309      	str	r3, [sp, #36]	; 0x24
  4049b0:	9106      	str	r1, [sp, #24]
  4049b2:	b939      	cbnz	r1, 4049c4 <tcp_write+0x20>
  4049b4:	4bad      	ldr	r3, [pc, #692]	; (404c6c <tcp_write+0x2c8>)
  4049b6:	f240 127f 	movw	r2, #383	; 0x17f
  4049ba:	49ad      	ldr	r1, [pc, #692]	; (404c70 <tcp_write+0x2cc>)
  4049bc:	48ad      	ldr	r0, [pc, #692]	; (404c74 <tcp_write+0x2d0>)
  4049be:	4cae      	ldr	r4, [pc, #696]	; (404c78 <tcp_write+0x2d4>)
  4049c0:	47a0      	blx	r4
  4049c2:	e7fe      	b.n	4049c2 <tcp_write+0x1e>
  4049c4:	7e03      	ldrb	r3, [r0, #24]
  4049c6:	2b07      	cmp	r3, #7
  4049c8:	d003      	beq.n	4049d2 <tcp_write+0x2e>
  4049ca:	3b02      	subs	r3, #2
  4049cc:	2b02      	cmp	r3, #2
  4049ce:	f200 8148 	bhi.w	404c62 <tcp_write+0x2be>
  4049d2:	f1ba 0f00 	cmp.w	sl, #0
  4049d6:	d00e      	beq.n	4049f6 <tcp_write+0x52>
  4049d8:	f8b7 3066 	ldrh.w	r3, [r7, #102]	; 0x66
  4049dc:	4553      	cmp	r3, sl
  4049de:	d206      	bcs.n	4049ee <tcp_write+0x4a>
  4049e0:	7fbb      	ldrb	r3, [r7, #30]
  4049e2:	f063 037f 	orn	r3, r3, #127	; 0x7f
  4049e6:	77bb      	strb	r3, [r7, #30]
  4049e8:	f04f 30ff 	mov.w	r0, #4294967295
  4049ec:	e13b      	b.n	404c66 <tcp_write+0x2c2>
  4049ee:	f8b7 3068 	ldrh.w	r3, [r7, #104]	; 0x68
  4049f2:	2b07      	cmp	r3, #7
  4049f4:	d8f4      	bhi.n	4049e0 <tcp_write+0x3c>
  4049f6:	f8b7 3062 	ldrh.w	r3, [r7, #98]	; 0x62
  4049fa:	8efa      	ldrh	r2, [r7, #54]	; 0x36
  4049fc:	085b      	lsrs	r3, r3, #1
  4049fe:	6efc      	ldr	r4, [r7, #108]	; 0x6c
  404a00:	4293      	cmp	r3, r2
  404a02:	46a0      	mov	r8, r4
  404a04:	bf28      	it	cs
  404a06:	4613      	movcs	r3, r2
  404a08:	9307      	str	r3, [sp, #28]
  404a0a:	f8b7 3068 	ldrh.w	r3, [r7, #104]	; 0x68
  404a0e:	9304      	str	r3, [sp, #16]
  404a10:	b934      	cbnz	r4, 404a20 <tcp_write+0x7c>
  404a12:	4626      	mov	r6, r4
  404a14:	46a1      	mov	r9, r4
  404a16:	46a3      	mov	fp, r4
  404a18:	4625      	mov	r5, r4
  404a1a:	e05e      	b.n	404ada <tcp_write+0x136>
  404a1c:	f8dd 800c 	ldr.w	r8, [sp, #12]
  404a20:	f8d8 3000 	ldr.w	r3, [r8]
  404a24:	9303      	str	r3, [sp, #12]
  404a26:	2b00      	cmp	r3, #0
  404a28:	d1f8      	bne.n	404a1c <tcp_write+0x78>
  404a2a:	f898 300c 	ldrb.w	r3, [r8, #12]
  404a2e:	f8b8 5008 	ldrh.w	r5, [r8, #8]
  404a32:	f013 0f01 	tst.w	r3, #1
  404a36:	9907      	ldr	r1, [sp, #28]
  404a38:	f8b7 606a 	ldrh.w	r6, [r7, #106]	; 0x6a
  404a3c:	bf14      	ite	ne
  404a3e:	2204      	movne	r2, #4
  404a40:	2200      	moveq	r2, #0
  404a42:	1b49      	subs	r1, r1, r5
  404a44:	f013 0f02 	tst.w	r3, #2
  404a48:	eba1 0102 	sub.w	r1, r1, r2
  404a4c:	bf14      	ite	ne
  404a4e:	230c      	movne	r3, #12
  404a50:	2300      	moveq	r3, #0
  404a52:	1ac9      	subs	r1, r1, r3
  404a54:	b289      	uxth	r1, r1
  404a56:	2e00      	cmp	r6, #0
  404a58:	f000 8126 	beq.w	404ca8 <tcp_write+0x304>
  404a5c:	45b2      	cmp	sl, r6
  404a5e:	46d1      	mov	r9, sl
  404a60:	4644      	mov	r4, r8
  404a62:	bf28      	it	cs
  404a64:	46b1      	movcs	r9, r6
  404a66:	eba6 0609 	sub.w	r6, r6, r9
  404a6a:	eba1 0109 	sub.w	r1, r1, r9
  404a6e:	45ca      	cmp	sl, r9
  404a70:	b2b6      	uxth	r6, r6
  404a72:	b289      	uxth	r1, r1
  404a74:	f240 8112 	bls.w	404c9c <tcp_write+0x2f8>
  404a78:	2900      	cmp	r1, #0
  404a7a:	d05e      	beq.n	404b3a <tcp_write+0x196>
  404a7c:	2d00      	cmp	r5, #0
  404a7e:	d05f      	beq.n	404b40 <tcp_write+0x19c>
  404a80:	ebaa 0409 	sub.w	r4, sl, r9
  404a84:	2200      	movs	r2, #0
  404a86:	2003      	movs	r0, #3
  404a88:	4b7c      	ldr	r3, [pc, #496]	; (404c7c <tcp_write+0x2d8>)
  404a8a:	428c      	cmp	r4, r1
  404a8c:	bfa8      	it	ge
  404a8e:	460c      	movge	r4, r1
  404a90:	4798      	blx	r3
  404a92:	4605      	mov	r5, r0
  404a94:	fa1f fb84 	uxth.w	fp, r4
  404a98:	2800      	cmp	r0, #0
  404a9a:	d07d      	beq.n	404b98 <tcp_write+0x1f4>
  404a9c:	8946      	ldrh	r6, [r0, #10]
  404a9e:	465a      	mov	r2, fp
  404aa0:	f8a0 b008 	strh.w	fp, [r0, #8]
  404aa4:	4644      	mov	r4, r8
  404aa6:	eba6 060b 	sub.w	r6, r6, fp
  404aaa:	f8a0 b00a 	strh.w	fp, [r0, #10]
  404aae:	f8b8 300a 	ldrh.w	r3, [r8, #10]
  404ab2:	44cb      	add	fp, r9
  404ab4:	b2b6      	uxth	r6, r6
  404ab6:	fa1f fb8b 	uxth.w	fp, fp
  404aba:	4433      	add	r3, r6
  404abc:	f8a8 300a 	strh.w	r3, [r8, #10]
  404ac0:	9b06      	ldr	r3, [sp, #24]
  404ac2:	6840      	ldr	r0, [r0, #4]
  404ac4:	eb03 0109 	add.w	r1, r3, r9
  404ac8:	4b6d      	ldr	r3, [pc, #436]	; (404c80 <tcp_write+0x2dc>)
  404aca:	4798      	blx	r3
  404acc:	4b6d      	ldr	r3, [pc, #436]	; (404c84 <tcp_write+0x2e0>)
  404ace:	4628      	mov	r0, r5
  404ad0:	4798      	blx	r3
  404ad2:	9b04      	ldr	r3, [sp, #16]
  404ad4:	4403      	add	r3, r0
  404ad6:	b29b      	uxth	r3, r3
  404ad8:	9304      	str	r3, [sp, #16]
  404ada:	2300      	movs	r3, #0
  404adc:	9303      	str	r3, [sp, #12]
  404ade:	9308      	str	r3, [sp, #32]
  404ae0:	45d3      	cmp	fp, sl
  404ae2:	d32f      	bcc.n	404b44 <tcp_write+0x1a0>
  404ae4:	f1b9 0f00 	cmp.w	r9, #0
  404ae8:	d010      	beq.n	404b0c <tcp_write+0x168>
  404aea:	f8d8 b004 	ldr.w	fp, [r8, #4]
  404aee:	4b64      	ldr	r3, [pc, #400]	; (404c80 <tcp_write+0x2dc>)
  404af0:	f1bb 0f00 	cmp.w	fp, #0
  404af4:	d17a      	bne.n	404bec <tcp_write+0x248>
  404af6:	f8b8 3008 	ldrh.w	r3, [r8, #8]
  404afa:	444b      	add	r3, r9
  404afc:	f8a8 3008 	strh.w	r3, [r8, #8]
  404b00:	f8b8 300a 	ldrh.w	r3, [r8, #10]
  404b04:	eba3 0909 	sub.w	r9, r3, r9
  404b08:	f8a8 900a 	strh.w	r9, [r8, #10]
  404b0c:	f8a7 606a 	strh.w	r6, [r7, #106]	; 0x6a
  404b10:	2d00      	cmp	r5, #0
  404b12:	f000 8085 	beq.w	404c20 <tcp_write+0x27c>
  404b16:	4b5c      	ldr	r3, [pc, #368]	; (404c88 <tcp_write+0x2e4>)
  404b18:	4629      	mov	r1, r5
  404b1a:	f8d8 0004 	ldr.w	r0, [r8, #4]
  404b1e:	4798      	blx	r3
  404b20:	f8b8 3008 	ldrh.w	r3, [r8, #8]
  404b24:	892a      	ldrh	r2, [r5, #8]
  404b26:	4413      	add	r3, r2
  404b28:	f8a8 3008 	strh.w	r3, [r8, #8]
  404b2c:	9b03      	ldr	r3, [sp, #12]
  404b2e:	f8c8 3000 	str.w	r3, [r8]
  404b32:	e07a      	b.n	404c2a <tcp_write+0x286>
  404b34:	46b1      	mov	r9, r6
  404b36:	4634      	mov	r4, r6
  404b38:	e79e      	b.n	404a78 <tcp_write+0xd4>
  404b3a:	46cb      	mov	fp, r9
  404b3c:	460d      	mov	r5, r1
  404b3e:	e7cc      	b.n	404ada <tcp_write+0x136>
  404b40:	46cb      	mov	fp, r9
  404b42:	e7ca      	b.n	404ada <tcp_write+0x136>
  404b44:	ebaa 030b 	sub.w	r3, sl, fp
  404b48:	9a07      	ldr	r2, [sp, #28]
  404b4a:	9907      	ldr	r1, [sp, #28]
  404b4c:	b29b      	uxth	r3, r3
  404b4e:	4293      	cmp	r3, r2
  404b50:	bf28      	it	cs
  404b52:	4613      	movcs	r3, r2
  404b54:	2200      	movs	r2, #0
  404b56:	9305      	str	r3, [sp, #20]
  404b58:	4610      	mov	r0, r2
  404b5a:	4b48      	ldr	r3, [pc, #288]	; (404c7c <tcp_write+0x2d8>)
  404b5c:	4798      	blx	r3
  404b5e:	4604      	mov	r4, r0
  404b60:	b1d0      	cbz	r0, 404b98 <tcp_write+0x1f4>
  404b62:	8946      	ldrh	r6, [r0, #10]
  404b64:	9b05      	ldr	r3, [sp, #20]
  404b66:	9a05      	ldr	r2, [sp, #20]
  404b68:	1af6      	subs	r6, r6, r3
  404b6a:	f8bd 3014 	ldrh.w	r3, [sp, #20]
  404b6e:	8103      	strh	r3, [r0, #8]
  404b70:	b2b6      	uxth	r6, r6
  404b72:	8143      	strh	r3, [r0, #10]
  404b74:	9b06      	ldr	r3, [sp, #24]
  404b76:	6840      	ldr	r0, [r0, #4]
  404b78:	eb03 010b 	add.w	r1, r3, fp
  404b7c:	4b40      	ldr	r3, [pc, #256]	; (404c80 <tcp_write+0x2dc>)
  404b7e:	4798      	blx	r3
  404b80:	4b40      	ldr	r3, [pc, #256]	; (404c84 <tcp_write+0x2e0>)
  404b82:	4620      	mov	r0, r4
  404b84:	4798      	blx	r3
  404b86:	9b04      	ldr	r3, [sp, #16]
  404b88:	4403      	add	r3, r0
  404b8a:	b29b      	uxth	r3, r3
  404b8c:	2b08      	cmp	r3, #8
  404b8e:	9304      	str	r3, [sp, #16]
  404b90:	d912      	bls.n	404bb8 <tcp_write+0x214>
  404b92:	4620      	mov	r0, r4
  404b94:	4b3d      	ldr	r3, [pc, #244]	; (404c8c <tcp_write+0x2e8>)
  404b96:	4798      	blx	r3
  404b98:	7fbb      	ldrb	r3, [r7, #30]
  404b9a:	f063 037f 	orn	r3, r3, #127	; 0x7f
  404b9e:	77bb      	strb	r3, [r7, #30]
  404ba0:	b115      	cbz	r5, 404ba8 <tcp_write+0x204>
  404ba2:	4628      	mov	r0, r5
  404ba4:	4b39      	ldr	r3, [pc, #228]	; (404c8c <tcp_write+0x2e8>)
  404ba6:	4798      	blx	r3
  404ba8:	9b03      	ldr	r3, [sp, #12]
  404baa:	2b00      	cmp	r3, #0
  404bac:	f43f af1c 	beq.w	4049e8 <tcp_write+0x44>
  404bb0:	4618      	mov	r0, r3
  404bb2:	4b37      	ldr	r3, [pc, #220]	; (404c90 <tcp_write+0x2ec>)
  404bb4:	4798      	blx	r3
  404bb6:	e717      	b.n	4049e8 <tcp_write+0x44>
  404bb8:	6dfb      	ldr	r3, [r7, #92]	; 0x5c
  404bba:	2200      	movs	r2, #0
  404bbc:	4621      	mov	r1, r4
  404bbe:	4638      	mov	r0, r7
  404bc0:	4c34      	ldr	r4, [pc, #208]	; (404c94 <tcp_write+0x2f0>)
  404bc2:	445b      	add	r3, fp
  404bc4:	9200      	str	r2, [sp, #0]
  404bc6:	47a0      	blx	r4
  404bc8:	4604      	mov	r4, r0
  404bca:	2800      	cmp	r0, #0
  404bcc:	d0e4      	beq.n	404b98 <tcp_write+0x1f4>
  404bce:	9b03      	ldr	r3, [sp, #12]
  404bd0:	8146      	strh	r6, [r0, #10]
  404bd2:	b13b      	cbz	r3, 404be4 <tcp_write+0x240>
  404bd4:	9b08      	ldr	r3, [sp, #32]
  404bd6:	6018      	str	r0, [r3, #0]
  404bd8:	9b05      	ldr	r3, [sp, #20]
  404bda:	9408      	str	r4, [sp, #32]
  404bdc:	449b      	add	fp, r3
  404bde:	fa1f fb8b 	uxth.w	fp, fp
  404be2:	e77d      	b.n	404ae0 <tcp_write+0x13c>
  404be4:	9003      	str	r0, [sp, #12]
  404be6:	e7f7      	b.n	404bd8 <tcp_write+0x234>
  404be8:	9d03      	ldr	r5, [sp, #12]
  404bea:	e77e      	b.n	404aea <tcp_write+0x146>
  404bec:	f8bb 2008 	ldrh.w	r2, [fp, #8]
  404bf0:	444a      	add	r2, r9
  404bf2:	f8ab 2008 	strh.w	r2, [fp, #8]
  404bf6:	f8db 2000 	ldr.w	r2, [fp]
  404bfa:	b972      	cbnz	r2, 404c1a <tcp_write+0x276>
  404bfc:	f8bb e00a 	ldrh.w	lr, [fp, #10]
  404c00:	464a      	mov	r2, r9
  404c02:	f8db 0004 	ldr.w	r0, [fp, #4]
  404c06:	9906      	ldr	r1, [sp, #24]
  404c08:	4470      	add	r0, lr
  404c0a:	9305      	str	r3, [sp, #20]
  404c0c:	4798      	blx	r3
  404c0e:	f8bb 200a 	ldrh.w	r2, [fp, #10]
  404c12:	9b05      	ldr	r3, [sp, #20]
  404c14:	444a      	add	r2, r9
  404c16:	f8ab 200a 	strh.w	r2, [fp, #10]
  404c1a:	f8db b000 	ldr.w	fp, [fp]
  404c1e:	e767      	b.n	404af0 <tcp_write+0x14c>
  404c20:	f1b8 0f00 	cmp.w	r8, #0
  404c24:	d182      	bne.n	404b2c <tcp_write+0x188>
  404c26:	9b03      	ldr	r3, [sp, #12]
  404c28:	66fb      	str	r3, [r7, #108]	; 0x6c
  404c2a:	6dfb      	ldr	r3, [r7, #92]	; 0x5c
  404c2c:	4453      	add	r3, sl
  404c2e:	65fb      	str	r3, [r7, #92]	; 0x5c
  404c30:	f8b7 3066 	ldrh.w	r3, [r7, #102]	; 0x66
  404c34:	eba3 0a0a 	sub.w	sl, r3, sl
  404c38:	f8bd 3010 	ldrh.w	r3, [sp, #16]
  404c3c:	f8a7 a066 	strh.w	sl, [r7, #102]	; 0x66
  404c40:	f8a7 3068 	strh.w	r3, [r7, #104]	; 0x68
  404c44:	b15c      	cbz	r4, 404c5e <tcp_write+0x2ba>
  404c46:	6924      	ldr	r4, [r4, #16]
  404c48:	b14c      	cbz	r4, 404c5e <tcp_write+0x2ba>
  404c4a:	9b09      	ldr	r3, [sp, #36]	; 0x24
  404c4c:	f013 0602 	ands.w	r6, r3, #2
  404c50:	d105      	bne.n	404c5e <tcp_write+0x2ba>
  404c52:	89a5      	ldrh	r5, [r4, #12]
  404c54:	2008      	movs	r0, #8
  404c56:	4b10      	ldr	r3, [pc, #64]	; (404c98 <tcp_write+0x2f4>)
  404c58:	4798      	blx	r3
  404c5a:	4328      	orrs	r0, r5
  404c5c:	81a0      	strh	r0, [r4, #12]
  404c5e:	2000      	movs	r0, #0
  404c60:	e001      	b.n	404c66 <tcp_write+0x2c2>
  404c62:	f06f 000c 	mvn.w	r0, #12
  404c66:	b00b      	add	sp, #44	; 0x2c
  404c68:	e8bd 8ff0 	ldmia.w	sp!, {r4, r5, r6, r7, r8, r9, sl, fp, pc}
  404c6c:	00409fca 	.word	0x00409fca
  404c70:	0040a003 	.word	0x0040a003
  404c74:	004095a3 	.word	0x004095a3
  404c78:	00406415 	.word	0x00406415
  404c7c:	00402401 	.word	0x00402401
  404c80:	0040649d 	.word	0x0040649d
  404c84:	00402579 	.word	0x00402579
  404c88:	00402595 	.word	0x00402595
  404c8c:	004023b9 	.word	0x004023b9
  404c90:	00402a69 	.word	0x00402a69
  404c94:	00404869 	.word	0x00404869
  404c98:	0040111d 	.word	0x0040111d
  404c9c:	f1b9 0f00 	cmp.w	r9, #0
  404ca0:	d1a2      	bne.n	404be8 <tcp_write+0x244>
  404ca2:	f8a7 606a 	strh.w	r6, [r7, #106]	; 0x6a
  404ca6:	e741      	b.n	404b2c <tcp_write+0x188>
  404ca8:	f1ba 0f00 	cmp.w	sl, #0
  404cac:	f47f af42 	bne.w	404b34 <tcp_write+0x190>
  404cb0:	4656      	mov	r6, sl
  404cb2:	4654      	mov	r4, sl
  404cb4:	e7f5      	b.n	404ca2 <tcp_write+0x2fe>
  404cb6:	bf00      	nop

00404cb8 <tcp_enqueue_flags>:
  404cb8:	b573      	push	{r0, r1, r4, r5, r6, lr}
  404cba:	f8b0 3068 	ldrh.w	r3, [r0, #104]	; 0x68
  404cbe:	4604      	mov	r4, r0
  404cc0:	460d      	mov	r5, r1
  404cc2:	2b07      	cmp	r3, #7
  404cc4:	d906      	bls.n	404cd4 <tcp_enqueue_flags+0x1c>
  404cc6:	7fa3      	ldrb	r3, [r4, #30]
  404cc8:	f063 037f 	orn	r3, r3, #127	; 0x7f
  404ccc:	77a3      	strb	r3, [r4, #30]
  404cce:	f04f 30ff 	mov.w	r0, #4294967295
  404cd2:	e039      	b.n	404d48 <tcp_enqueue_flags+0x90>
  404cd4:	f001 0302 	and.w	r3, r1, #2
  404cd8:	2b00      	cmp	r3, #0
  404cda:	f8b0 3066 	ldrh.w	r3, [r0, #102]	; 0x66
  404cde:	bf15      	itete	ne
  404ce0:	2601      	movne	r6, #1
  404ce2:	2600      	moveq	r6, #0
  404ce4:	2104      	movne	r1, #4
  404ce6:	2100      	moveq	r1, #0
  404ce8:	2b00      	cmp	r3, #0
  404cea:	d0f0      	beq.n	404cce <tcp_enqueue_flags+0x16>
  404cec:	2200      	movs	r2, #0
  404cee:	4b1a      	ldr	r3, [pc, #104]	; (404d58 <tcp_enqueue_flags+0xa0>)
  404cf0:	4610      	mov	r0, r2
  404cf2:	4798      	blx	r3
  404cf4:	4601      	mov	r1, r0
  404cf6:	2800      	cmp	r0, #0
  404cf8:	d0e5      	beq.n	404cc6 <tcp_enqueue_flags+0xe>
  404cfa:	9600      	str	r6, [sp, #0]
  404cfc:	462a      	mov	r2, r5
  404cfe:	6de3      	ldr	r3, [r4, #92]	; 0x5c
  404d00:	4620      	mov	r0, r4
  404d02:	4e16      	ldr	r6, [pc, #88]	; (404d5c <tcp_enqueue_flags+0xa4>)
  404d04:	47b0      	blx	r6
  404d06:	2800      	cmp	r0, #0
  404d08:	d0dd      	beq.n	404cc6 <tcp_enqueue_flags+0xe>
  404d0a:	6ee3      	ldr	r3, [r4, #108]	; 0x6c
  404d0c:	b9fb      	cbnz	r3, 404d4e <tcp_enqueue_flags+0x96>
  404d0e:	66e0      	str	r0, [r4, #108]	; 0x6c
  404d10:	2300      	movs	r3, #0
  404d12:	07aa      	lsls	r2, r5, #30
  404d14:	f8a4 306a 	strh.w	r3, [r4, #106]	; 0x6a
  404d18:	d007      	beq.n	404d2a <tcp_enqueue_flags+0x72>
  404d1a:	6de3      	ldr	r3, [r4, #92]	; 0x5c
  404d1c:	3301      	adds	r3, #1
  404d1e:	65e3      	str	r3, [r4, #92]	; 0x5c
  404d20:	f8b4 3066 	ldrh.w	r3, [r4, #102]	; 0x66
  404d24:	3b01      	subs	r3, #1
  404d26:	f8a4 3066 	strh.w	r3, [r4, #102]	; 0x66
  404d2a:	07eb      	lsls	r3, r5, #31
  404d2c:	bf42      	ittt	mi
  404d2e:	7fa3      	ldrbmi	r3, [r4, #30]
  404d30:	f043 0320 	orrmi.w	r3, r3, #32
  404d34:	77a3      	strbmi	r3, [r4, #30]
  404d36:	4b0a      	ldr	r3, [pc, #40]	; (404d60 <tcp_enqueue_flags+0xa8>)
  404d38:	6840      	ldr	r0, [r0, #4]
  404d3a:	4798      	blx	r3
  404d3c:	f8b4 3068 	ldrh.w	r3, [r4, #104]	; 0x68
  404d40:	4418      	add	r0, r3
  404d42:	f8a4 0068 	strh.w	r0, [r4, #104]	; 0x68
  404d46:	2000      	movs	r0, #0
  404d48:	b002      	add	sp, #8
  404d4a:	bd70      	pop	{r4, r5, r6, pc}
  404d4c:	4613      	mov	r3, r2
  404d4e:	681a      	ldr	r2, [r3, #0]
  404d50:	2a00      	cmp	r2, #0
  404d52:	d1fb      	bne.n	404d4c <tcp_enqueue_flags+0x94>
  404d54:	6018      	str	r0, [r3, #0]
  404d56:	e7db      	b.n	404d10 <tcp_enqueue_flags+0x58>
  404d58:	00402401 	.word	0x00402401
  404d5c:	00404869 	.word	0x00404869
  404d60:	00402579 	.word	0x00402579

00404d64 <tcp_send_fin>:
  404d64:	e92d 41f0 	stmdb	sp!, {r4, r5, r6, r7, r8, lr}
  404d68:	6ec4      	ldr	r4, [r0, #108]	; 0x6c
  404d6a:	4605      	mov	r5, r0
  404d6c:	b934      	cbnz	r4, 404d7c <tcp_send_fin+0x18>
  404d6e:	4628      	mov	r0, r5
  404d70:	2101      	movs	r1, #1
  404d72:	4b0e      	ldr	r3, [pc, #56]	; (404dac <tcp_send_fin+0x48>)
  404d74:	e8bd 41f0 	ldmia.w	sp!, {r4, r5, r6, r7, r8, lr}
  404d78:	4718      	bx	r3
  404d7a:	461c      	mov	r4, r3
  404d7c:	6823      	ldr	r3, [r4, #0]
  404d7e:	2b00      	cmp	r3, #0
  404d80:	d1fb      	bne.n	404d7a <tcp_send_fin+0x16>
  404d82:	6923      	ldr	r3, [r4, #16]
  404d84:	8998      	ldrh	r0, [r3, #12]
  404d86:	4b0a      	ldr	r3, [pc, #40]	; (404db0 <tcp_send_fin+0x4c>)
  404d88:	4798      	blx	r3
  404d8a:	f010 0707 	ands.w	r7, r0, #7
  404d8e:	d1ee      	bne.n	404d6e <tcp_send_fin+0xa>
  404d90:	6926      	ldr	r6, [r4, #16]
  404d92:	2001      	movs	r0, #1
  404d94:	4b07      	ldr	r3, [pc, #28]	; (404db4 <tcp_send_fin+0x50>)
  404d96:	89b4      	ldrh	r4, [r6, #12]
  404d98:	4798      	blx	r3
  404d9a:	4320      	orrs	r0, r4
  404d9c:	81b0      	strh	r0, [r6, #12]
  404d9e:	4638      	mov	r0, r7
  404da0:	7fab      	ldrb	r3, [r5, #30]
  404da2:	f043 0320 	orr.w	r3, r3, #32
  404da6:	77ab      	strb	r3, [r5, #30]
  404da8:	e8bd 81f0 	ldmia.w	sp!, {r4, r5, r6, r7, r8, pc}
  404dac:	00404cb9 	.word	0x00404cb9
  404db0:	00401123 	.word	0x00401123
  404db4:	0040111d 	.word	0x0040111d

00404db8 <tcp_send_empty_ack>:
  404db8:	e92d 41f3 	stmdb	sp!, {r0, r1, r4, r5, r6, r7, r8, lr}
  404dbc:	4604      	mov	r4, r0
  404dbe:	4b16      	ldr	r3, [pc, #88]	; (404e18 <tcp_send_empty_ack+0x60>)
  404dc0:	6d00      	ldr	r0, [r0, #80]	; 0x50
  404dc2:	4798      	blx	r3
  404dc4:	2100      	movs	r1, #0
  404dc6:	4602      	mov	r2, r0
  404dc8:	4b14      	ldr	r3, [pc, #80]	; (404e1c <tcp_send_empty_ack+0x64>)
  404dca:	4620      	mov	r0, r4
  404dcc:	4798      	blx	r3
  404dce:	4605      	mov	r5, r0
  404dd0:	b1f8      	cbz	r0, 404e12 <tcp_send_empty_ack+0x5a>
  404dd2:	7fa3      	ldrb	r3, [r4, #30]
  404dd4:	1d26      	adds	r6, r4, #4
  404dd6:	6847      	ldr	r7, [r0, #4]
  404dd8:	4621      	mov	r1, r4
  404dda:	f023 0303 	bic.w	r3, r3, #3
  404dde:	4632      	mov	r2, r6
  404de0:	f8df 8044 	ldr.w	r8, [pc, #68]	; 404e28 <tcp_send_empty_ack+0x70>
  404de4:	77a3      	strb	r3, [r4, #30]
  404de6:	8903      	ldrh	r3, [r0, #8]
  404de8:	9300      	str	r3, [sp, #0]
  404dea:	2306      	movs	r3, #6
  404dec:	47c0      	blx	r8
  404dee:	2206      	movs	r2, #6
  404df0:	8238      	strh	r0, [r7, #16]
  404df2:	4621      	mov	r1, r4
  404df4:	7aa3      	ldrb	r3, [r4, #10]
  404df6:	4628      	mov	r0, r5
  404df8:	9201      	str	r2, [sp, #4]
  404dfa:	7a62      	ldrb	r2, [r4, #9]
  404dfc:	4c08      	ldr	r4, [pc, #32]	; (404e20 <tcp_send_empty_ack+0x68>)
  404dfe:	9200      	str	r2, [sp, #0]
  404e00:	4632      	mov	r2, r6
  404e02:	47a0      	blx	r4
  404e04:	4628      	mov	r0, r5
  404e06:	4b07      	ldr	r3, [pc, #28]	; (404e24 <tcp_send_empty_ack+0x6c>)
  404e08:	4798      	blx	r3
  404e0a:	2000      	movs	r0, #0
  404e0c:	b002      	add	sp, #8
  404e0e:	e8bd 81f0 	ldmia.w	sp!, {r4, r5, r6, r7, r8, pc}
  404e12:	f06f 0001 	mvn.w	r0, #1
  404e16:	e7f9      	b.n	404e0c <tcp_send_empty_ack+0x54>
  404e18:	00401129 	.word	0x00401129
  404e1c:	0040493d 	.word	0x0040493d
  404e20:	00401749 	.word	0x00401749
  404e24:	004023b9 	.word	0x004023b9
  404e28:	0040138d 	.word	0x0040138d

00404e2c <tcp_output>:
  404e2c:	4b9b      	ldr	r3, [pc, #620]	; (40509c <tcp_output+0x270>)
  404e2e:	e92d 4ff0 	stmdb	sp!, {r4, r5, r6, r7, r8, r9, sl, fp, lr}
  404e32:	681b      	ldr	r3, [r3, #0]
  404e34:	b085      	sub	sp, #20
  404e36:	4604      	mov	r4, r0
  404e38:	4283      	cmp	r3, r0
  404e3a:	d029      	beq.n	404e90 <tcp_output+0x64>
  404e3c:	f8b0 304c 	ldrh.w	r3, [r0, #76]	; 0x4c
  404e40:	f8b0 8060 	ldrh.w	r8, [r0, #96]	; 0x60
  404e44:	6ec5      	ldr	r5, [r0, #108]	; 0x6c
  404e46:	4598      	cmp	r8, r3
  404e48:	bf28      	it	cs
  404e4a:	4698      	movcs	r8, r3
  404e4c:	7f83      	ldrb	r3, [r0, #30]
  404e4e:	079b      	lsls	r3, r3, #30
  404e50:	d510      	bpl.n	404e74 <tcp_output+0x48>
  404e52:	b92d      	cbnz	r5, 404e60 <tcp_output+0x34>
  404e54:	4620      	mov	r0, r4
  404e56:	4b92      	ldr	r3, [pc, #584]	; (4050a0 <tcp_output+0x274>)
  404e58:	b005      	add	sp, #20
  404e5a:	e8bd 4ff0 	ldmia.w	sp!, {r4, r5, r6, r7, r8, r9, sl, fp, lr}
  404e5e:	4718      	bx	r3
  404e60:	692b      	ldr	r3, [r5, #16]
  404e62:	6858      	ldr	r0, [r3, #4]
  404e64:	4b8f      	ldr	r3, [pc, #572]	; (4050a4 <tcp_output+0x278>)
  404e66:	4798      	blx	r3
  404e68:	892b      	ldrh	r3, [r5, #8]
  404e6a:	6ca2      	ldr	r2, [r4, #72]	; 0x48
  404e6c:	1a9b      	subs	r3, r3, r2
  404e6e:	4418      	add	r0, r3
  404e70:	4580      	cmp	r8, r0
  404e72:	d3ef      	bcc.n	404e54 <tcp_output+0x28>
  404e74:	6f26      	ldr	r6, [r4, #112]	; 0x70
  404e76:	b986      	cbnz	r6, 404e9a <tcp_output+0x6e>
  404e78:	f8df a240 	ldr.w	sl, [pc, #576]	; 4050bc <tcp_output+0x290>
  404e7c:	2d00      	cmp	r5, #0
  404e7e:	d13f      	bne.n	404f00 <tcp_output+0xd4>
  404e80:	6ee3      	ldr	r3, [r4, #108]	; 0x6c
  404e82:	b90b      	cbnz	r3, 404e88 <tcp_output+0x5c>
  404e84:	f8a4 306a 	strh.w	r3, [r4, #106]	; 0x6a
  404e88:	7fa3      	ldrb	r3, [r4, #30]
  404e8a:	f003 037f 	and.w	r3, r3, #127	; 0x7f
  404e8e:	77a3      	strb	r3, [r4, #30]
  404e90:	2000      	movs	r0, #0
  404e92:	b005      	add	sp, #20
  404e94:	e8bd 8ff0 	ldmia.w	sp!, {r4, r5, r6, r7, r8, r9, sl, fp, pc}
  404e98:	461e      	mov	r6, r3
  404e9a:	6833      	ldr	r3, [r6, #0]
  404e9c:	2b00      	cmp	r3, #0
  404e9e:	d1fb      	bne.n	404e98 <tcp_output+0x6c>
  404ea0:	e7ea      	b.n	404e78 <tcp_output+0x4c>
  404ea2:	692b      	ldr	r3, [r5, #16]
  404ea4:	6858      	ldr	r0, [r3, #4]
  404ea6:	4b7f      	ldr	r3, [pc, #508]	; (4050a4 <tcp_output+0x278>)
  404ea8:	4798      	blx	r3
  404eaa:	6933      	ldr	r3, [r6, #16]
  404eac:	4681      	mov	r9, r0
  404eae:	6858      	ldr	r0, [r3, #4]
  404eb0:	4b7c      	ldr	r3, [pc, #496]	; (4050a4 <tcp_output+0x278>)
  404eb2:	4798      	blx	r3
  404eb4:	eba9 0000 	sub.w	r0, r9, r0
  404eb8:	2800      	cmp	r0, #0
  404eba:	da1b      	bge.n	404ef4 <tcp_output+0xc8>
  404ebc:	f104 0970 	add.w	r9, r4, #112	; 0x70
  404ec0:	f8d9 3000 	ldr.w	r3, [r9]
  404ec4:	b933      	cbnz	r3, 404ed4 <tcp_output+0xa8>
  404ec6:	f8d9 3000 	ldr.w	r3, [r9]
  404eca:	602b      	str	r3, [r5, #0]
  404ecc:	f8c9 5000 	str.w	r5, [r9]
  404ed0:	6ee5      	ldr	r5, [r4, #108]	; 0x6c
  404ed2:	e7d3      	b.n	404e7c <tcp_output+0x50>
  404ed4:	691b      	ldr	r3, [r3, #16]
  404ed6:	6858      	ldr	r0, [r3, #4]
  404ed8:	4b72      	ldr	r3, [pc, #456]	; (4050a4 <tcp_output+0x278>)
  404eda:	4798      	blx	r3
  404edc:	692b      	ldr	r3, [r5, #16]
  404ede:	4683      	mov	fp, r0
  404ee0:	6858      	ldr	r0, [r3, #4]
  404ee2:	4b70      	ldr	r3, [pc, #448]	; (4050a4 <tcp_output+0x278>)
  404ee4:	4798      	blx	r3
  404ee6:	ebab 0000 	sub.w	r0, fp, r0
  404eea:	2800      	cmp	r0, #0
  404eec:	daeb      	bge.n	404ec6 <tcp_output+0x9a>
  404eee:	f8d9 9000 	ldr.w	r9, [r9]
  404ef2:	e7e5      	b.n	404ec0 <tcp_output+0x94>
  404ef4:	6035      	str	r5, [r6, #0]
  404ef6:	e0ca      	b.n	40508e <tcp_output+0x262>
  404ef8:	4628      	mov	r0, r5
  404efa:	4b6b      	ldr	r3, [pc, #428]	; (4050a8 <tcp_output+0x27c>)
  404efc:	4798      	blx	r3
  404efe:	e7e7      	b.n	404ed0 <tcp_output+0xa4>
  404f00:	692b      	ldr	r3, [r5, #16]
  404f02:	6858      	ldr	r0, [r3, #4]
  404f04:	4b67      	ldr	r3, [pc, #412]	; (4050a4 <tcp_output+0x278>)
  404f06:	4798      	blx	r3
  404f08:	892b      	ldrh	r3, [r5, #8]
  404f0a:	6ca2      	ldr	r2, [r4, #72]	; 0x48
  404f0c:	1a9b      	subs	r3, r3, r2
  404f0e:	4418      	add	r0, r3
  404f10:	4580      	cmp	r8, r0
  404f12:	d3b5      	bcc.n	404e80 <tcp_output+0x54>
  404f14:	6f23      	ldr	r3, [r4, #112]	; 0x70
  404f16:	b19b      	cbz	r3, 404f40 <tcp_output+0x114>
  404f18:	7fa2      	ldrb	r2, [r4, #30]
  404f1a:	f012 0f44 	tst.w	r2, #68	; 0x44
  404f1e:	d10f      	bne.n	404f40 <tcp_output+0x114>
  404f20:	6ee3      	ldr	r3, [r4, #108]	; 0x6c
  404f22:	b12b      	cbz	r3, 404f30 <tcp_output+0x104>
  404f24:	6819      	ldr	r1, [r3, #0]
  404f26:	b959      	cbnz	r1, 404f40 <tcp_output+0x114>
  404f28:	8919      	ldrh	r1, [r3, #8]
  404f2a:	8ee3      	ldrh	r3, [r4, #54]	; 0x36
  404f2c:	4299      	cmp	r1, r3
  404f2e:	d207      	bcs.n	404f40 <tcp_output+0x114>
  404f30:	f8b4 3066 	ldrh.w	r3, [r4, #102]	; 0x66
  404f34:	b123      	cbz	r3, 404f40 <tcp_output+0x114>
  404f36:	f8b4 3068 	ldrh.w	r3, [r4, #104]	; 0x68
  404f3a:	2b07      	cmp	r3, #7
  404f3c:	f240 80a9 	bls.w	405092 <tcp_output+0x266>
  404f40:	682b      	ldr	r3, [r5, #0]
  404f42:	66e3      	str	r3, [r4, #108]	; 0x6c
  404f44:	7e23      	ldrb	r3, [r4, #24]
  404f46:	2b02      	cmp	r3, #2
  404f48:	d00d      	beq.n	404f66 <tcp_output+0x13a>
  404f4a:	f8d5 b010 	ldr.w	fp, [r5, #16]
  404f4e:	2010      	movs	r0, #16
  404f50:	f8bb 900c 	ldrh.w	r9, [fp, #12]
  404f54:	47d0      	blx	sl
  404f56:	ea49 0000 	orr.w	r0, r9, r0
  404f5a:	f8ab 000c 	strh.w	r0, [fp, #12]
  404f5e:	7fa3      	ldrb	r3, [r4, #30]
  404f60:	f023 0303 	bic.w	r3, r3, #3
  404f64:	77a3      	strb	r3, [r4, #30]
  404f66:	f8d5 9010 	ldr.w	r9, [r5, #16]
  404f6a:	6aa0      	ldr	r0, [r4, #40]	; 0x28
  404f6c:	f8df b150 	ldr.w	fp, [pc, #336]	; 4050c0 <tcp_output+0x294>
  404f70:	47d8      	blx	fp
  404f72:	f8c9 0008 	str.w	r0, [r9, #8]
  404f76:	f8d5 9010 	ldr.w	r9, [r5, #16]
  404f7a:	8de0      	ldrh	r0, [r4, #46]	; 0x2e
  404f7c:	47d0      	blx	sl
  404f7e:	f8a9 000e 	strh.w	r0, [r9, #14]
  404f82:	8de2      	ldrh	r2, [r4, #46]	; 0x2e
  404f84:	f104 0904 	add.w	r9, r4, #4
  404f88:	6aa3      	ldr	r3, [r4, #40]	; 0x28
  404f8a:	4413      	add	r3, r2
  404f8c:	6323      	str	r3, [r4, #48]	; 0x30
  404f8e:	7b2b      	ldrb	r3, [r5, #12]
  404f90:	f013 0f01 	tst.w	r3, #1
  404f94:	d00b      	beq.n	404fae <tcp_output+0x182>
  404f96:	692b      	ldr	r3, [r5, #16]
  404f98:	4649      	mov	r1, r9
  404f9a:	4a44      	ldr	r2, [pc, #272]	; (4050ac <tcp_output+0x280>)
  404f9c:	f240 50b4 	movw	r0, #1460	; 0x5b4
  404fa0:	9303      	str	r3, [sp, #12]
  404fa2:	4790      	blx	r2
  404fa4:	f040 7001 	orr.w	r0, r0, #33816576	; 0x2040000
  404fa8:	47d8      	blx	fp
  404faa:	9b03      	ldr	r3, [sp, #12]
  404fac:	6158      	str	r0, [r3, #20]
  404fae:	f9b4 3034 	ldrsh.w	r3, [r4, #52]	; 0x34
  404fb2:	3301      	adds	r3, #1
  404fb4:	bf04      	itt	eq
  404fb6:	2300      	moveq	r3, #0
  404fb8:	86a3      	strheq	r3, [r4, #52]	; 0x34
  404fba:	6823      	ldr	r3, [r4, #0]
  404fbc:	b933      	cbnz	r3, 404fcc <tcp_output+0x1a0>
  404fbe:	4648      	mov	r0, r9
  404fc0:	4b3b      	ldr	r3, [pc, #236]	; (4050b0 <tcp_output+0x284>)
  404fc2:	4798      	blx	r3
  404fc4:	2800      	cmp	r0, #0
  404fc6:	d035      	beq.n	405034 <tcp_output+0x208>
  404fc8:	6843      	ldr	r3, [r0, #4]
  404fca:	6023      	str	r3, [r4, #0]
  404fcc:	6ba3      	ldr	r3, [r4, #56]	; 0x38
  404fce:	b93b      	cbnz	r3, 404fe0 <tcp_output+0x1b4>
  404fd0:	4b38      	ldr	r3, [pc, #224]	; (4050b4 <tcp_output+0x288>)
  404fd2:	681b      	ldr	r3, [r3, #0]
  404fd4:	63a3      	str	r3, [r4, #56]	; 0x38
  404fd6:	692b      	ldr	r3, [r5, #16]
  404fd8:	6858      	ldr	r0, [r3, #4]
  404fda:	4b32      	ldr	r3, [pc, #200]	; (4050a4 <tcp_output+0x278>)
  404fdc:	4798      	blx	r3
  404fde:	63e0      	str	r0, [r4, #60]	; 0x3c
  404fe0:	686a      	ldr	r2, [r5, #4]
  404fe2:	692b      	ldr	r3, [r5, #16]
  404fe4:	6851      	ldr	r1, [r2, #4]
  404fe6:	4f34      	ldr	r7, [pc, #208]	; (4050b8 <tcp_output+0x28c>)
  404fe8:	1a5b      	subs	r3, r3, r1
  404fea:	8951      	ldrh	r1, [r2, #10]
  404fec:	b29b      	uxth	r3, r3
  404fee:	1ac9      	subs	r1, r1, r3
  404ff0:	8151      	strh	r1, [r2, #10]
  404ff2:	6869      	ldr	r1, [r5, #4]
  404ff4:	890a      	ldrh	r2, [r1, #8]
  404ff6:	1ad3      	subs	r3, r2, r3
  404ff8:	810b      	strh	r3, [r1, #8]
  404ffa:	4621      	mov	r1, r4
  404ffc:	686b      	ldr	r3, [r5, #4]
  404ffe:	692a      	ldr	r2, [r5, #16]
  405000:	605a      	str	r2, [r3, #4]
  405002:	2200      	movs	r2, #0
  405004:	692b      	ldr	r3, [r5, #16]
  405006:	741a      	strb	r2, [r3, #16]
  405008:	745a      	strb	r2, [r3, #17]
  40500a:	464a      	mov	r2, r9
  40500c:	6868      	ldr	r0, [r5, #4]
  40500e:	f8d5 b010 	ldr.w	fp, [r5, #16]
  405012:	8903      	ldrh	r3, [r0, #8]
  405014:	9300      	str	r3, [sp, #0]
  405016:	2306      	movs	r3, #6
  405018:	47b8      	blx	r7
  40501a:	2206      	movs	r2, #6
  40501c:	f8ab 0010 	strh.w	r0, [fp, #16]
  405020:	4621      	mov	r1, r4
  405022:	9201      	str	r2, [sp, #4]
  405024:	7a62      	ldrb	r2, [r4, #9]
  405026:	7aa3      	ldrb	r3, [r4, #10]
  405028:	9200      	str	r2, [sp, #0]
  40502a:	464a      	mov	r2, r9
  40502c:	6868      	ldr	r0, [r5, #4]
  40502e:	f8df 9094 	ldr.w	r9, [pc, #148]	; 4050c4 <tcp_output+0x298>
  405032:	47c8      	blx	r9
  405034:	692b      	ldr	r3, [r5, #16]
  405036:	f8df 9090 	ldr.w	r9, [pc, #144]	; 4050c8 <tcp_output+0x29c>
  40503a:	6858      	ldr	r0, [r3, #4]
  40503c:	4b19      	ldr	r3, [pc, #100]	; (4050a4 <tcp_output+0x278>)
  40503e:	4798      	blx	r3
  405040:	892b      	ldrh	r3, [r5, #8]
  405042:	692a      	ldr	r2, [r5, #16]
  405044:	4683      	mov	fp, r0
  405046:	9303      	str	r3, [sp, #12]
  405048:	8990      	ldrh	r0, [r2, #12]
  40504a:	47c8      	blx	r9
  40504c:	f010 0003 	ands.w	r0, r0, #3
  405050:	9b03      	ldr	r3, [sp, #12]
  405052:	bf18      	it	ne
  405054:	2001      	movne	r0, #1
  405056:	4418      	add	r0, r3
  405058:	6d23      	ldr	r3, [r4, #80]	; 0x50
  40505a:	4458      	add	r0, fp
  40505c:	1a1b      	subs	r3, r3, r0
  40505e:	2b00      	cmp	r3, #0
  405060:	464b      	mov	r3, r9
  405062:	bfb8      	it	lt
  405064:	6520      	strlt	r0, [r4, #80]	; 0x50
  405066:	692a      	ldr	r2, [r5, #16]
  405068:	f8b5 9008 	ldrh.w	r9, [r5, #8]
  40506c:	8990      	ldrh	r0, [r2, #12]
  40506e:	4798      	blx	r3
  405070:	f010 0003 	ands.w	r0, r0, #3
  405074:	bf18      	it	ne
  405076:	2001      	movne	r0, #1
  405078:	eb10 0f09 	cmn.w	r0, r9
  40507c:	f43f af3c 	beq.w	404ef8 <tcp_output+0xcc>
  405080:	2300      	movs	r3, #0
  405082:	602b      	str	r3, [r5, #0]
  405084:	6f23      	ldr	r3, [r4, #112]	; 0x70
  405086:	2b00      	cmp	r3, #0
  405088:	f47f af0b 	bne.w	404ea2 <tcp_output+0x76>
  40508c:	6725      	str	r5, [r4, #112]	; 0x70
  40508e:	462e      	mov	r6, r5
  405090:	e71e      	b.n	404ed0 <tcp_output+0xa4>
  405092:	f012 0fa0 	tst.w	r2, #160	; 0xa0
  405096:	f47f af53 	bne.w	404f40 <tcp_output+0x114>
  40509a:	e6f1      	b.n	404e80 <tcp_output+0x54>
  40509c:	204049e4 	.word	0x204049e4
  4050a0:	00404db9 	.word	0x00404db9
  4050a4:	0040112d 	.word	0x0040112d
  4050a8:	00402a41 	.word	0x00402a41
  4050ac:	004032dd 	.word	0x004032dd
  4050b0:	00401479 	.word	0x00401479
  4050b4:	204049d0 	.word	0x204049d0
  4050b8:	0040138d 	.word	0x0040138d
  4050bc:	0040111d 	.word	0x0040111d
  4050c0:	00401129 	.word	0x00401129
  4050c4:	00401749 	.word	0x00401749
  4050c8:	00401123 	.word	0x00401123

004050cc <tcp_rst>:
  4050cc:	e92d 4ff7 	stmdb	sp!, {r0, r1, r2, r4, r5, r6, r7, r8, r9, sl, fp, lr}
  4050d0:	4681      	mov	r9, r0
  4050d2:	468a      	mov	sl, r1
  4050d4:	4617      	mov	r7, r2
  4050d6:	4698      	mov	r8, r3
  4050d8:	2200      	movs	r2, #0
  4050da:	2114      	movs	r1, #20
  4050dc:	2001      	movs	r0, #1
  4050de:	4b20      	ldr	r3, [pc, #128]	; (405160 <tcp_rst+0x94>)
  4050e0:	f8bd 6030 	ldrh.w	r6, [sp, #48]	; 0x30
  4050e4:	f8bd b034 	ldrh.w	fp, [sp, #52]	; 0x34
  4050e8:	4798      	blx	r3
  4050ea:	4605      	mov	r5, r0
  4050ec:	b928      	cbnz	r0, 4050fa <tcp_rst+0x2e>
  4050ee:	481d      	ldr	r0, [pc, #116]	; (405164 <tcp_rst+0x98>)
  4050f0:	4b1d      	ldr	r3, [pc, #116]	; (405168 <tcp_rst+0x9c>)
  4050f2:	b003      	add	sp, #12
  4050f4:	e8bd 4ff0 	ldmia.w	sp!, {r4, r5, r6, r7, r8, r9, sl, fp, lr}
  4050f8:	4718      	bx	r3
  4050fa:	6844      	ldr	r4, [r0, #4]
  4050fc:	4630      	mov	r0, r6
  4050fe:	4e1b      	ldr	r6, [pc, #108]	; (40516c <tcp_rst+0xa0>)
  405100:	47b0      	blx	r6
  405102:	8020      	strh	r0, [r4, #0]
  405104:	4658      	mov	r0, fp
  405106:	47b0      	blx	r6
  405108:	8060      	strh	r0, [r4, #2]
  40510a:	4648      	mov	r0, r9
  40510c:	f8df 9068 	ldr.w	r9, [pc, #104]	; 405178 <tcp_rst+0xac>
  405110:	47c8      	blx	r9
  405112:	6060      	str	r0, [r4, #4]
  405114:	4650      	mov	r0, sl
  405116:	47c8      	blx	r9
  405118:	60a0      	str	r0, [r4, #8]
  40511a:	f245 0014 	movw	r0, #20500	; 0x5014
  40511e:	f8df 905c 	ldr.w	r9, [pc, #92]	; 40517c <tcp_rst+0xb0>
  405122:	47b0      	blx	r6
  405124:	230b      	movs	r3, #11
  405126:	2600      	movs	r6, #0
  405128:	81a0      	strh	r0, [r4, #12]
  40512a:	73a3      	strb	r3, [r4, #14]
  40512c:	2368      	movs	r3, #104	; 0x68
  40512e:	7426      	strb	r6, [r4, #16]
  405130:	4642      	mov	r2, r8
  405132:	73e3      	strb	r3, [r4, #15]
  405134:	4639      	mov	r1, r7
  405136:	7466      	strb	r6, [r4, #17]
  405138:	4628      	mov	r0, r5
  40513a:	74a6      	strb	r6, [r4, #18]
  40513c:	74e6      	strb	r6, [r4, #19]
  40513e:	892b      	ldrh	r3, [r5, #8]
  405140:	9300      	str	r3, [sp, #0]
  405142:	2306      	movs	r3, #6
  405144:	47c8      	blx	r9
  405146:	2306      	movs	r3, #6
  405148:	8220      	strh	r0, [r4, #16]
  40514a:	4642      	mov	r2, r8
  40514c:	9301      	str	r3, [sp, #4]
  40514e:	4639      	mov	r1, r7
  405150:	23ff      	movs	r3, #255	; 0xff
  405152:	9600      	str	r6, [sp, #0]
  405154:	4628      	mov	r0, r5
  405156:	4c06      	ldr	r4, [pc, #24]	; (405170 <tcp_rst+0xa4>)
  405158:	47a0      	blx	r4
  40515a:	4628      	mov	r0, r5
  40515c:	4b05      	ldr	r3, [pc, #20]	; (405174 <tcp_rst+0xa8>)
  40515e:	e7c8      	b.n	4050f2 <tcp_rst+0x26>
  405160:	00402401 	.word	0x00402401
  405164:	00409f9d 	.word	0x00409f9d
  405168:	00406415 	.word	0x00406415
  40516c:	0040111d 	.word	0x0040111d
  405170:	00401749 	.word	0x00401749
  405174:	004023b9 	.word	0x004023b9
  405178:	00401129 	.word	0x00401129
  40517c:	0040138d 	.word	0x0040138d

00405180 <tcp_rexmit_rto>:
  405180:	6f02      	ldr	r2, [r0, #112]	; 0x70
  405182:	b90a      	cbnz	r2, 405188 <tcp_rexmit_rto+0x8>
  405184:	4770      	bx	lr
  405186:	461a      	mov	r2, r3
  405188:	6813      	ldr	r3, [r2, #0]
  40518a:	2b00      	cmp	r3, #0
  40518c:	d1fb      	bne.n	405186 <tcp_rexmit_rto+0x6>
  40518e:	6ec1      	ldr	r1, [r0, #108]	; 0x6c
  405190:	6011      	str	r1, [r2, #0]
  405192:	6f02      	ldr	r2, [r0, #112]	; 0x70
  405194:	6383      	str	r3, [r0, #56]	; 0x38
  405196:	66c2      	str	r2, [r0, #108]	; 0x6c
  405198:	f890 2046 	ldrb.w	r2, [r0, #70]	; 0x46
  40519c:	6703      	str	r3, [r0, #112]	; 0x70
  40519e:	3201      	adds	r2, #1
  4051a0:	4b01      	ldr	r3, [pc, #4]	; (4051a8 <tcp_rexmit_rto+0x28>)
  4051a2:	f880 2046 	strb.w	r2, [r0, #70]	; 0x46
  4051a6:	4718      	bx	r3
  4051a8:	00404e2d 	.word	0x00404e2d

004051ac <tcp_rexmit>:
  4051ac:	e92d 41f0 	stmdb	sp!, {r4, r5, r6, r7, r8, lr}
  4051b0:	6f05      	ldr	r5, [r0, #112]	; 0x70
  4051b2:	4604      	mov	r4, r0
  4051b4:	b1ad      	cbz	r5, 4051e2 <tcp_rexmit+0x36>
  4051b6:	682b      	ldr	r3, [r5, #0]
  4051b8:	f100 066c 	add.w	r6, r0, #108	; 0x6c
  4051bc:	f8df 8040 	ldr.w	r8, [pc, #64]	; 405200 <tcp_rexmit+0x54>
  4051c0:	6703      	str	r3, [r0, #112]	; 0x70
  4051c2:	6833      	ldr	r3, [r6, #0]
  4051c4:	b97b      	cbnz	r3, 4051e6 <tcp_rexmit+0x3a>
  4051c6:	6833      	ldr	r3, [r6, #0]
  4051c8:	602b      	str	r3, [r5, #0]
  4051ca:	6035      	str	r5, [r6, #0]
  4051cc:	682b      	ldr	r3, [r5, #0]
  4051ce:	b90b      	cbnz	r3, 4051d4 <tcp_rexmit+0x28>
  4051d0:	f8a4 306a 	strh.w	r3, [r4, #106]	; 0x6a
  4051d4:	f894 3046 	ldrb.w	r3, [r4, #70]	; 0x46
  4051d8:	3301      	adds	r3, #1
  4051da:	f884 3046 	strb.w	r3, [r4, #70]	; 0x46
  4051de:	2300      	movs	r3, #0
  4051e0:	63a3      	str	r3, [r4, #56]	; 0x38
  4051e2:	e8bd 81f0 	ldmia.w	sp!, {r4, r5, r6, r7, r8, pc}
  4051e6:	691b      	ldr	r3, [r3, #16]
  4051e8:	6858      	ldr	r0, [r3, #4]
  4051ea:	47c0      	blx	r8
  4051ec:	692b      	ldr	r3, [r5, #16]
  4051ee:	4607      	mov	r7, r0
  4051f0:	6858      	ldr	r0, [r3, #4]
  4051f2:	47c0      	blx	r8
  4051f4:	1a38      	subs	r0, r7, r0
  4051f6:	2800      	cmp	r0, #0
  4051f8:	dae5      	bge.n	4051c6 <tcp_rexmit+0x1a>
  4051fa:	6836      	ldr	r6, [r6, #0]
  4051fc:	e7e1      	b.n	4051c2 <tcp_rexmit+0x16>
  4051fe:	bf00      	nop
  405200:	0040112d 	.word	0x0040112d

00405204 <tcp_rexmit_fast>:
  405204:	6f03      	ldr	r3, [r0, #112]	; 0x70
  405206:	b510      	push	{r4, lr}
  405208:	4604      	mov	r4, r0
  40520a:	b31b      	cbz	r3, 405254 <tcp_rexmit_fast+0x50>
  40520c:	7f83      	ldrb	r3, [r0, #30]
  40520e:	075b      	lsls	r3, r3, #29
  405210:	d420      	bmi.n	405254 <tcp_rexmit_fast+0x50>
  405212:	4b11      	ldr	r3, [pc, #68]	; (405258 <tcp_rexmit_fast+0x54>)
  405214:	4798      	blx	r3
  405216:	f8b4 304c 	ldrh.w	r3, [r4, #76]	; 0x4c
  40521a:	f8b4 2060 	ldrh.w	r2, [r4, #96]	; 0x60
  40521e:	4293      	cmp	r3, r2
  405220:	bf96      	itet	ls
  405222:	085b      	lsrls	r3, r3, #1
  405224:	0852      	lsrhi	r2, r2, #1
  405226:	f8a4 304e 	strhls.w	r3, [r4, #78]	; 0x4e
  40522a:	8ee3      	ldrh	r3, [r4, #54]	; 0x36
  40522c:	bf88      	it	hi
  40522e:	f8a4 204e 	strhhi.w	r2, [r4, #78]	; 0x4e
  405232:	005a      	lsls	r2, r3, #1
  405234:	f8b4 104e 	ldrh.w	r1, [r4, #78]	; 0x4e
  405238:	4291      	cmp	r1, r2
  40523a:	4413      	add	r3, r2
  40523c:	bfb8      	it	lt
  40523e:	f8a4 204e 	strhlt.w	r2, [r4, #78]	; 0x4e
  405242:	f8b4 204e 	ldrh.w	r2, [r4, #78]	; 0x4e
  405246:	4413      	add	r3, r2
  405248:	f8a4 304c 	strh.w	r3, [r4, #76]	; 0x4c
  40524c:	7fa3      	ldrb	r3, [r4, #30]
  40524e:	f043 0304 	orr.w	r3, r3, #4
  405252:	77a3      	strb	r3, [r4, #30]
  405254:	bd10      	pop	{r4, pc}
  405256:	bf00      	nop
  405258:	004051ad 	.word	0x004051ad

0040525c <tcp_keepalive>:
  40525c:	e92d 43f7 	stmdb	sp!, {r0, r1, r2, r4, r5, r6, r7, r8, r9, lr}
  405260:	4604      	mov	r4, r0
  405262:	7983      	ldrb	r3, [r0, #6]
  405264:	7942      	ldrb	r2, [r0, #5]
  405266:	7901      	ldrb	r1, [r0, #4]
  405268:	79c0      	ldrb	r0, [r0, #7]
  40526a:	4d1f      	ldr	r5, [pc, #124]	; (4052e8 <tcp_keepalive+0x8c>)
  40526c:	9000      	str	r0, [sp, #0]
  40526e:	481f      	ldr	r0, [pc, #124]	; (4052ec <tcp_keepalive+0x90>)
  405270:	47a8      	blx	r5
  405272:	491f      	ldr	r1, [pc, #124]	; (4052f0 <tcp_keepalive+0x94>)
  405274:	6a62      	ldr	r2, [r4, #36]	; 0x24
  405276:	6809      	ldr	r1, [r1, #0]
  405278:	f894 3096 	ldrb.w	r3, [r4, #150]	; 0x96
  40527c:	481d      	ldr	r0, [pc, #116]	; (4052f4 <tcp_keepalive+0x98>)
  40527e:	47a8      	blx	r5
  405280:	6d20      	ldr	r0, [r4, #80]	; 0x50
  405282:	4b1d      	ldr	r3, [pc, #116]	; (4052f8 <tcp_keepalive+0x9c>)
  405284:	3801      	subs	r0, #1
  405286:	4798      	blx	r3
  405288:	2100      	movs	r1, #0
  40528a:	4602      	mov	r2, r0
  40528c:	4b1b      	ldr	r3, [pc, #108]	; (4052fc <tcp_keepalive+0xa0>)
  40528e:	4620      	mov	r0, r4
  405290:	4798      	blx	r3
  405292:	4606      	mov	r6, r0
  405294:	b928      	cbnz	r0, 4052a2 <tcp_keepalive+0x46>
  405296:	481a      	ldr	r0, [pc, #104]	; (405300 <tcp_keepalive+0xa4>)
  405298:	462b      	mov	r3, r5
  40529a:	b003      	add	sp, #12
  40529c:	e8bd 43f0 	ldmia.w	sp!, {r4, r5, r6, r7, r8, r9, lr}
  4052a0:	4718      	bx	r3
  4052a2:	1d27      	adds	r7, r4, #4
  4052a4:	8903      	ldrh	r3, [r0, #8]
  4052a6:	f8d0 8004 	ldr.w	r8, [r0, #4]
  4052aa:	4621      	mov	r1, r4
  4052ac:	9300      	str	r3, [sp, #0]
  4052ae:	463a      	mov	r2, r7
  4052b0:	2306      	movs	r3, #6
  4052b2:	f8df 905c 	ldr.w	r9, [pc, #92]	; 405310 <tcp_keepalive+0xb4>
  4052b6:	47c8      	blx	r9
  4052b8:	2100      	movs	r1, #0
  4052ba:	2206      	movs	r2, #6
  4052bc:	f8a8 0010 	strh.w	r0, [r8, #16]
  4052c0:	4630      	mov	r0, r6
  4052c2:	7aa3      	ldrb	r3, [r4, #10]
  4052c4:	e88d 0006 	stmia.w	sp, {r1, r2}
  4052c8:	463a      	mov	r2, r7
  4052ca:	4621      	mov	r1, r4
  4052cc:	4f0d      	ldr	r7, [pc, #52]	; (405304 <tcp_keepalive+0xa8>)
  4052ce:	47b8      	blx	r7
  4052d0:	4630      	mov	r0, r6
  4052d2:	4b0d      	ldr	r3, [pc, #52]	; (405308 <tcp_keepalive+0xac>)
  4052d4:	4798      	blx	r3
  4052d6:	6d21      	ldr	r1, [r4, #80]	; 0x50
  4052d8:	6aa2      	ldr	r2, [r4, #40]	; 0x28
  4052da:	462b      	mov	r3, r5
  4052dc:	3901      	subs	r1, #1
  4052de:	480b      	ldr	r0, [pc, #44]	; (40530c <tcp_keepalive+0xb0>)
  4052e0:	b003      	add	sp, #12
  4052e2:	e8bd 43f0 	ldmia.w	sp!, {r4, r5, r6, r7, r8, r9, lr}
  4052e6:	4718      	bx	r3
  4052e8:	00406415 	.word	0x00406415
  4052ec:	00409eca 	.word	0x00409eca
  4052f0:	204049d0 	.word	0x204049d0
  4052f4:	00409f05 	.word	0x00409f05
  4052f8:	00401129 	.word	0x00401129
  4052fc:	0040493d 	.word	0x0040493d
  405300:	00409f47 	.word	0x00409f47
  405304:	00401749 	.word	0x00401749
  405308:	004023b9 	.word	0x004023b9
  40530c:	00409f7a 	.word	0x00409f7a
  405310:	0040138d 	.word	0x0040138d

00405314 <tcp_zero_window_probe>:
  405314:	e92d 43f7 	stmdb	sp!, {r0, r1, r2, r4, r5, r6, r7, r8, r9, lr}
  405318:	4604      	mov	r4, r0
  40531a:	7983      	ldrb	r3, [r0, #6]
  40531c:	7942      	ldrb	r2, [r0, #5]
  40531e:	7901      	ldrb	r1, [r0, #4]
  405320:	79c0      	ldrb	r0, [r0, #7]
  405322:	4f34      	ldr	r7, [pc, #208]	; (4053f4 <tcp_zero_window_probe+0xe0>)
  405324:	9000      	str	r0, [sp, #0]
  405326:	4834      	ldr	r0, [pc, #208]	; (4053f8 <tcp_zero_window_probe+0xe4>)
  405328:	47b8      	blx	r7
  40532a:	4934      	ldr	r1, [pc, #208]	; (4053fc <tcp_zero_window_probe+0xe8>)
  40532c:	f894 3096 	ldrb.w	r3, [r4, #150]	; 0x96
  405330:	6a62      	ldr	r2, [r4, #36]	; 0x24
  405332:	6809      	ldr	r1, [r1, #0]
  405334:	4832      	ldr	r0, [pc, #200]	; (405400 <tcp_zero_window_probe+0xec>)
  405336:	47b8      	blx	r7
  405338:	6f26      	ldr	r6, [r4, #112]	; 0x70
  40533a:	b916      	cbnz	r6, 405342 <tcp_zero_window_probe+0x2e>
  40533c:	6ee6      	ldr	r6, [r4, #108]	; 0x6c
  40533e:	2e00      	cmp	r6, #0
  405340:	d055      	beq.n	4053ee <tcp_zero_window_probe+0xda>
  405342:	6933      	ldr	r3, [r6, #16]
  405344:	8998      	ldrh	r0, [r3, #12]
  405346:	4b2f      	ldr	r3, [pc, #188]	; (405404 <tcp_zero_window_probe+0xf0>)
  405348:	4798      	blx	r3
  40534a:	f010 0501 	ands.w	r5, r0, #1
  40534e:	6933      	ldr	r3, [r6, #16]
  405350:	4620      	mov	r0, r4
  405352:	bf18      	it	ne
  405354:	8935      	ldrhne	r5, [r6, #8]
  405356:	685a      	ldr	r2, [r3, #4]
  405358:	bf18      	it	ne
  40535a:	fab5 f585 	clzne	r5, r5
  40535e:	4b2a      	ldr	r3, [pc, #168]	; (405408 <tcp_zero_window_probe+0xf4>)
  405360:	bf18      	it	ne
  405362:	096d      	lsrne	r5, r5, #5
  405364:	f085 0101 	eor.w	r1, r5, #1
  405368:	4798      	blx	r3
  40536a:	4680      	mov	r8, r0
  40536c:	b928      	cbnz	r0, 40537a <tcp_zero_window_probe+0x66>
  40536e:	4827      	ldr	r0, [pc, #156]	; (40540c <tcp_zero_window_probe+0xf8>)
  405370:	463b      	mov	r3, r7
  405372:	b003      	add	sp, #12
  405374:	e8bd 43f0 	ldmia.w	sp!, {r4, r5, r6, r7, r8, r9, lr}
  405378:	4718      	bx	r3
  40537a:	f8d0 9004 	ldr.w	r9, [r0, #4]
  40537e:	b35d      	cbz	r5, 4053d8 <tcp_zero_window_probe+0xc4>
  405380:	f9b9 500c 	ldrsh.w	r5, [r9, #12]
  405384:	2011      	movs	r0, #17
  405386:	4b22      	ldr	r3, [pc, #136]	; (405410 <tcp_zero_window_probe+0xfc>)
  405388:	f425 557c 	bic.w	r5, r5, #16128	; 0x3f00
  40538c:	4798      	blx	r3
  40538e:	4328      	orrs	r0, r5
  405390:	f8a9 000c 	strh.w	r0, [r9, #12]
  405394:	1d25      	adds	r5, r4, #4
  405396:	f8b8 3008 	ldrh.w	r3, [r8, #8]
  40539a:	4621      	mov	r1, r4
  40539c:	4640      	mov	r0, r8
  40539e:	9300      	str	r3, [sp, #0]
  4053a0:	462a      	mov	r2, r5
  4053a2:	2306      	movs	r3, #6
  4053a4:	4e1b      	ldr	r6, [pc, #108]	; (405414 <tcp_zero_window_probe+0x100>)
  4053a6:	47b0      	blx	r6
  4053a8:	2100      	movs	r1, #0
  4053aa:	2206      	movs	r2, #6
  4053ac:	f8a9 0010 	strh.w	r0, [r9, #16]
  4053b0:	4640      	mov	r0, r8
  4053b2:	7aa3      	ldrb	r3, [r4, #10]
  4053b4:	e88d 0006 	stmia.w	sp, {r1, r2}
  4053b8:	462a      	mov	r2, r5
  4053ba:	4621      	mov	r1, r4
  4053bc:	4d16      	ldr	r5, [pc, #88]	; (405418 <tcp_zero_window_probe+0x104>)
  4053be:	47a8      	blx	r5
  4053c0:	4640      	mov	r0, r8
  4053c2:	4b16      	ldr	r3, [pc, #88]	; (40541c <tcp_zero_window_probe+0x108>)
  4053c4:	4798      	blx	r3
  4053c6:	6d21      	ldr	r1, [r4, #80]	; 0x50
  4053c8:	6aa2      	ldr	r2, [r4, #40]	; 0x28
  4053ca:	463b      	mov	r3, r7
  4053cc:	3901      	subs	r1, #1
  4053ce:	4814      	ldr	r0, [pc, #80]	; (405420 <tcp_zero_window_probe+0x10c>)
  4053d0:	b003      	add	sp, #12
  4053d2:	e8bd 43f0 	ldmia.w	sp!, {r4, r5, r6, r7, r8, r9, lr}
  4053d6:	4718      	bx	r3
  4053d8:	6870      	ldr	r0, [r6, #4]
  4053da:	f109 0114 	add.w	r1, r9, #20
  4053de:	8932      	ldrh	r2, [r6, #8]
  4053e0:	8903      	ldrh	r3, [r0, #8]
  4053e2:	4d10      	ldr	r5, [pc, #64]	; (405424 <tcp_zero_window_probe+0x110>)
  4053e4:	1a9b      	subs	r3, r3, r2
  4053e6:	2201      	movs	r2, #1
  4053e8:	b29b      	uxth	r3, r3
  4053ea:	47a8      	blx	r5
  4053ec:	e7d2      	b.n	405394 <tcp_zero_window_probe+0x80>
  4053ee:	b003      	add	sp, #12
  4053f0:	e8bd 83f0 	ldmia.w	sp!, {r4, r5, r6, r7, r8, r9, pc}
  4053f4:	00406415 	.word	0x00406415
  4053f8:	0040a034 	.word	0x0040a034
  4053fc:	204049d0 	.word	0x204049d0
  405400:	0040a079 	.word	0x0040a079
  405404:	00401123 	.word	0x00401123
  405408:	0040493d 	.word	0x0040493d
  40540c:	0040a0c3 	.word	0x0040a0c3
  405410:	0040111d 	.word	0x0040111d
  405414:	0040138d 	.word	0x0040138d
  405418:	00401749 	.word	0x00401749
  40541c:	004023b9 	.word	0x004023b9
  405420:	0040a0ee 	.word	0x0040a0ee
  405424:	004026d1 	.word	0x004026d1

00405428 <udp_init>:
  405428:	4770      	bx	lr
	...

0040542c <udp_input>:
  40542c:	e92d 4ff0 	stmdb	sp!, {r4, r5, r6, r7, r8, r9, sl, fp, lr}
  405430:	f8d0 8004 	ldr.w	r8, [r0, #4]
  405434:	468a      	mov	sl, r1
  405436:	8903      	ldrh	r3, [r0, #8]
  405438:	b085      	sub	sp, #20
  40543a:	f898 1000 	ldrb.w	r1, [r8]
  40543e:	4605      	mov	r5, r0
  405440:	f001 010f 	and.w	r1, r1, #15
  405444:	1c8a      	adds	r2, r1, #2
  405446:	ebb3 0f82 	cmp.w	r3, r2, lsl #2
  40544a:	db05      	blt.n	405458 <udp_input+0x2c>
  40544c:	0089      	lsls	r1, r1, #2
  40544e:	4b48      	ldr	r3, [pc, #288]	; (405570 <udp_input+0x144>)
  405450:	4249      	negs	r1, r1
  405452:	4798      	blx	r3
  405454:	4604      	mov	r4, r0
  405456:	b128      	cbz	r0, 405464 <udp_input+0x38>
  405458:	4628      	mov	r0, r5
  40545a:	4b46      	ldr	r3, [pc, #280]	; (405574 <udp_input+0x148>)
  40545c:	b005      	add	sp, #20
  40545e:	e8bd 4ff0 	ldmia.w	sp!, {r4, r5, r6, r7, r8, r9, sl, fp, lr}
  405462:	4718      	bx	r3
  405464:	f8df b120 	ldr.w	fp, [pc, #288]	; 405588 <udp_input+0x15c>
  405468:	4651      	mov	r1, sl
  40546a:	686e      	ldr	r6, [r5, #4]
  40546c:	f8db 0000 	ldr.w	r0, [fp]
  405470:	4b41      	ldr	r3, [pc, #260]	; (405578 <udp_input+0x14c>)
  405472:	4798      	blx	r3
  405474:	4b41      	ldr	r3, [pc, #260]	; (40557c <udp_input+0x150>)
  405476:	4607      	mov	r7, r0
  405478:	8830      	ldrh	r0, [r6, #0]
  40547a:	9303      	str	r3, [sp, #12]
  40547c:	4798      	blx	r3
  40547e:	9b03      	ldr	r3, [sp, #12]
  405480:	4681      	mov	r9, r0
  405482:	8870      	ldrh	r0, [r6, #2]
  405484:	4798      	blx	r3
  405486:	4b3e      	ldr	r3, [pc, #248]	; (405580 <udp_input+0x154>)
  405488:	f8db 1000 	ldr.w	r1, [fp]
  40548c:	4684      	mov	ip, r0
  40548e:	681b      	ldr	r3, [r3, #0]
  405490:	46a3      	mov	fp, r4
  405492:	9303      	str	r3, [sp, #12]
  405494:	4b3b      	ldr	r3, [pc, #236]	; (405584 <udp_input+0x158>)
  405496:	f8d3 e000 	ldr.w	lr, [r3]
  40549a:	9b03      	ldr	r3, [sp, #12]
  40549c:	b92b      	cbnz	r3, 4054aa <udp_input+0x7e>
  40549e:	bb24      	cbnz	r4, 4054ea <udp_input+0xbe>
  4054a0:	f8da 3004 	ldr.w	r3, [sl, #4]
  4054a4:	4299      	cmp	r1, r3
  4054a6:	d1d7      	bne.n	405458 <udp_input+0x2c>
  4054a8:	e01f      	b.n	4054ea <udp_input+0xbe>
  4054aa:	8a5a      	ldrh	r2, [r3, #18]
  4054ac:	4562      	cmp	r2, ip
  4054ae:	d13f      	bne.n	405530 <udp_input+0x104>
  4054b0:	681a      	ldr	r2, [r3, #0]
  4054b2:	b907      	cbnz	r7, 4054b6 <udp_input+0x8a>
  4054b4:	b152      	cbz	r2, 4054cc <udp_input+0xa0>
  4054b6:	428a      	cmp	r2, r1
  4054b8:	d008      	beq.n	4054cc <udp_input+0xa0>
  4054ba:	2f00      	cmp	r7, #0
  4054bc:	d038      	beq.n	405530 <udp_input+0x104>
  4054be:	b12a      	cbz	r2, 4054cc <udp_input+0xa0>
  4054c0:	404a      	eors	r2, r1
  4054c2:	4610      	mov	r0, r2
  4054c4:	f8da 2008 	ldr.w	r2, [sl, #8]
  4054c8:	4210      	tst	r0, r2
  4054ca:	d131      	bne.n	405530 <udp_input+0x104>
  4054cc:	b924      	cbnz	r4, 4054d8 <udp_input+0xac>
  4054ce:	7c1a      	ldrb	r2, [r3, #16]
  4054d0:	f012 0f04 	tst.w	r2, #4
  4054d4:	bf08      	it	eq
  4054d6:	461c      	moveq	r4, r3
  4054d8:	8a9a      	ldrh	r2, [r3, #20]
  4054da:	454a      	cmp	r2, r9
  4054dc:	d128      	bne.n	405530 <udp_input+0x104>
  4054de:	685a      	ldr	r2, [r3, #4]
  4054e0:	bb22      	cbnz	r2, 40552c <udp_input+0x100>
  4054e2:	f1bb 0f00 	cmp.w	fp, #0
  4054e6:	d126      	bne.n	405536 <udp_input+0x10a>
  4054e8:	461c      	mov	r4, r3
  4054ea:	88f3      	ldrh	r3, [r6, #6]
  4054ec:	b14b      	cbz	r3, 405502 <udp_input+0xd6>
  4054ee:	892b      	ldrh	r3, [r5, #8]
  4054f0:	4628      	mov	r0, r5
  4054f2:	4a25      	ldr	r2, [pc, #148]	; (405588 <udp_input+0x15c>)
  4054f4:	9300      	str	r3, [sp, #0]
  4054f6:	2311      	movs	r3, #17
  4054f8:	4922      	ldr	r1, [pc, #136]	; (405584 <udp_input+0x158>)
  4054fa:	4e24      	ldr	r6, [pc, #144]	; (40558c <udp_input+0x160>)
  4054fc:	47b0      	blx	r6
  4054fe:	2800      	cmp	r0, #0
  405500:	d1aa      	bne.n	405458 <udp_input+0x2c>
  405502:	f06f 0107 	mvn.w	r1, #7
  405506:	4628      	mov	r0, r5
  405508:	4e19      	ldr	r6, [pc, #100]	; (405570 <udp_input+0x144>)
  40550a:	47b0      	blx	r6
  40550c:	2800      	cmp	r0, #0
  40550e:	d1a3      	bne.n	405458 <udp_input+0x2c>
  405510:	b1cc      	cbz	r4, 405546 <udp_input+0x11a>
  405512:	69a6      	ldr	r6, [r4, #24]
  405514:	2e00      	cmp	r6, #0
  405516:	d09f      	beq.n	405458 <udp_input+0x2c>
  405518:	f8cd 9000 	str.w	r9, [sp]
  40551c:	462a      	mov	r2, r5
  40551e:	4b19      	ldr	r3, [pc, #100]	; (405584 <udp_input+0x158>)
  405520:	4621      	mov	r1, r4
  405522:	69e0      	ldr	r0, [r4, #28]
  405524:	47b0      	blx	r6
  405526:	b005      	add	sp, #20
  405528:	e8bd 8ff0 	ldmia.w	sp!, {r4, r5, r6, r7, r8, r9, sl, fp, pc}
  40552c:	4572      	cmp	r2, lr
  40552e:	d0d8      	beq.n	4054e2 <udp_input+0xb6>
  405530:	469b      	mov	fp, r3
  405532:	68db      	ldr	r3, [r3, #12]
  405534:	e7b2      	b.n	40549c <udp_input+0x70>
  405536:	68da      	ldr	r2, [r3, #12]
  405538:	f8cb 200c 	str.w	r2, [fp, #12]
  40553c:	9a03      	ldr	r2, [sp, #12]
  40553e:	60da      	str	r2, [r3, #12]
  405540:	4a0f      	ldr	r2, [pc, #60]	; (405580 <udp_input+0x154>)
  405542:	6013      	str	r3, [r2, #0]
  405544:	e7d0      	b.n	4054e8 <udp_input+0xbc>
  405546:	2f00      	cmp	r7, #0
  405548:	d186      	bne.n	405458 <udp_input+0x2c>
  40554a:	4b0f      	ldr	r3, [pc, #60]	; (405588 <udp_input+0x15c>)
  40554c:	681b      	ldr	r3, [r3, #0]
  40554e:	f003 03f0 	and.w	r3, r3, #240	; 0xf0
  405552:	2be0      	cmp	r3, #224	; 0xe0
  405554:	d080      	beq.n	405458 <udp_input+0x2c>
  405556:	f898 1000 	ldrb.w	r1, [r8]
  40555a:	4628      	mov	r0, r5
  40555c:	f001 010f 	and.w	r1, r1, #15
  405560:	3102      	adds	r1, #2
  405562:	0089      	lsls	r1, r1, #2
  405564:	47b0      	blx	r6
  405566:	2103      	movs	r1, #3
  405568:	4628      	mov	r0, r5
  40556a:	4b09      	ldr	r3, [pc, #36]	; (405590 <udp_input+0x164>)
  40556c:	4798      	blx	r3
  40556e:	e773      	b.n	405458 <udp_input+0x2c>
  405570:	00402341 	.word	0x00402341
  405574:	004023b9 	.word	0x004023b9
  405578:	00401789 	.word	0x00401789
  40557c:	00401123 	.word	0x00401123
  405580:	204049e8 	.word	0x204049e8
  405584:	20403998 	.word	0x20403998
  405588:	204039a0 	.word	0x204039a0
  40558c:	0040138d 	.word	0x0040138d
  405590:	0040130d 	.word	0x0040130d

00405594 <etharp_free_entry>:
  405594:	b570      	push	{r4, r5, r6, lr}
  405596:	2614      	movs	r6, #20
  405598:	4d09      	ldr	r5, [pc, #36]	; (4055c0 <etharp_free_entry+0x2c>)
  40559a:	4604      	mov	r4, r0
  40559c:	4346      	muls	r6, r0
  40559e:	59a8      	ldr	r0, [r5, r6]
  4055a0:	b118      	cbz	r0, 4055aa <etharp_free_entry+0x16>
  4055a2:	4b08      	ldr	r3, [pc, #32]	; (4055c4 <etharp_free_entry+0x30>)
  4055a4:	4798      	blx	r3
  4055a6:	2300      	movs	r3, #0
  4055a8:	51ab      	str	r3, [r5, r6]
  4055aa:	2014      	movs	r0, #20
  4055ac:	2300      	movs	r3, #0
  4055ae:	fb00 5004 	mla	r0, r0, r4, r5
  4055b2:	7483      	strb	r3, [r0, #18]
  4055b4:	74c3      	strb	r3, [r0, #19]
  4055b6:	6083      	str	r3, [r0, #8]
  4055b8:	6043      	str	r3, [r0, #4]
  4055ba:	60c3      	str	r3, [r0, #12]
  4055bc:	8203      	strh	r3, [r0, #16]
  4055be:	bd70      	pop	{r4, r5, r6, pc}
  4055c0:	2040265c 	.word	0x2040265c
  4055c4:	004023b9 	.word	0x004023b9

004055c8 <etharp_find_entry>:
  4055c8:	e92d 4ff7 	stmdb	sp!, {r0, r1, r2, r4, r5, r6, r7, r8, r9, sl, fp, lr}
  4055cc:	4b31      	ldr	r3, [pc, #196]	; (405694 <etharp_find_entry+0xcc>)
  4055ce:	220a      	movs	r2, #10
  4055d0:	4605      	mov	r5, r0
  4055d2:	2000      	movs	r0, #0
  4055d4:	4614      	mov	r4, r2
  4055d6:	4696      	mov	lr, r2
  4055d8:	4681      	mov	r9, r0
  4055da:	4684      	mov	ip, r0
  4055dc:	4683      	mov	fp, r0
  4055de:	4616      	mov	r6, r2
  4055e0:	4698      	mov	r8, r3
  4055e2:	9101      	str	r1, [sp, #4]
  4055e4:	2c0a      	cmp	r4, #10
  4055e6:	7c9f      	ldrb	r7, [r3, #18]
  4055e8:	d10f      	bne.n	40560a <etharp_find_entry+0x42>
  4055ea:	b987      	cbnz	r7, 40560e <etharp_find_entry+0x46>
  4055ec:	b244      	sxtb	r4, r0
  4055ee:	3001      	adds	r0, #1
  4055f0:	3314      	adds	r3, #20
  4055f2:	280a      	cmp	r0, #10
  4055f4:	d1f6      	bne.n	4055e4 <etharp_find_entry+0x1c>
  4055f6:	9b01      	ldr	r3, [sp, #4]
  4055f8:	0799      	lsls	r1, r3, #30
  4055fa:	d403      	bmi.n	405604 <etharp_find_entry+0x3c>
  4055fc:	2c0a      	cmp	r4, #10
  4055fe:	d11c      	bne.n	40563a <etharp_find_entry+0x72>
  405600:	07db      	lsls	r3, r3, #31
  405602:	d429      	bmi.n	405658 <etharp_find_entry+0x90>
  405604:	f04f 30ff 	mov.w	r0, #4294967295
  405608:	e009      	b.n	40561e <etharp_find_entry+0x56>
  40560a:	2f00      	cmp	r7, #0
  40560c:	d0ef      	beq.n	4055ee <etharp_find_entry+0x26>
  40560e:	2d00      	cmp	r5, #0
  405610:	d033      	beq.n	40567a <etharp_find_entry+0xb2>
  405612:	6829      	ldr	r1, [r5, #0]
  405614:	468a      	mov	sl, r1
  405616:	6859      	ldr	r1, [r3, #4]
  405618:	458a      	cmp	sl, r1
  40561a:	d12e      	bne.n	40567a <etharp_find_entry+0xb2>
  40561c:	b240      	sxtb	r0, r0
  40561e:	b003      	add	sp, #12
  405620:	e8bd 8ff0 	ldmia.w	sp!, {r4, r5, r6, r7, r8, r9, sl, fp, pc}
  405624:	45da      	cmp	sl, fp
  405626:	d3e2      	bcc.n	4055ee <etharp_find_entry+0x26>
  405628:	b246      	sxtb	r6, r0
  40562a:	46d3      	mov	fp, sl
  40562c:	e7df      	b.n	4055ee <etharp_find_entry+0x26>
  40562e:	45e2      	cmp	sl, ip
  405630:	bf24      	itt	cs
  405632:	fa4f fe80 	sxtbcs.w	lr, r0
  405636:	46d4      	movcs	ip, sl
  405638:	e7d9      	b.n	4055ee <etharp_find_entry+0x26>
  40563a:	b2e4      	uxtb	r4, r4
  40563c:	b125      	cbz	r5, 405648 <etharp_find_entry+0x80>
  40563e:	2314      	movs	r3, #20
  405640:	682a      	ldr	r2, [r5, #0]
  405642:	fb03 8304 	mla	r3, r3, r4, r8
  405646:	605a      	str	r2, [r3, #4]
  405648:	2314      	movs	r3, #20
  40564a:	b260      	sxtb	r0, r4
  40564c:	fb03 8804 	mla	r8, r3, r4, r8
  405650:	2300      	movs	r3, #0
  405652:	f888 3013 	strb.w	r3, [r8, #19]
  405656:	e7e2      	b.n	40561e <etharp_find_entry+0x56>
  405658:	f1be 0f0a 	cmp.w	lr, #10
  40565c:	d005      	beq.n	40566a <etharp_find_entry+0xa2>
  40565e:	fa5f f48e 	uxtb.w	r4, lr
  405662:	4620      	mov	r0, r4
  405664:	4b0c      	ldr	r3, [pc, #48]	; (405698 <etharp_find_entry+0xd0>)
  405666:	4798      	blx	r3
  405668:	e7e8      	b.n	40563c <etharp_find_entry+0x74>
  40566a:	2e0a      	cmp	r6, #10
  40566c:	d001      	beq.n	405672 <etharp_find_entry+0xaa>
  40566e:	b2f4      	uxtb	r4, r6
  405670:	e7f7      	b.n	405662 <etharp_find_entry+0x9a>
  405672:	2a0a      	cmp	r2, #10
  405674:	d0c6      	beq.n	405604 <etharp_find_entry+0x3c>
  405676:	b2d4      	uxtb	r4, r2
  405678:	e7f3      	b.n	405662 <etharp_find_entry+0x9a>
  40567a:	2f01      	cmp	r7, #1
  40567c:	f893 a013 	ldrb.w	sl, [r3, #19]
  405680:	d1d5      	bne.n	40562e <etharp_find_entry+0x66>
  405682:	681f      	ldr	r7, [r3, #0]
  405684:	2f00      	cmp	r7, #0
  405686:	d0cd      	beq.n	405624 <etharp_find_entry+0x5c>
  405688:	45ca      	cmp	sl, r9
  40568a:	d3b0      	bcc.n	4055ee <etharp_find_entry+0x26>
  40568c:	b242      	sxtb	r2, r0
  40568e:	46d1      	mov	r9, sl
  405690:	e7ad      	b.n	4055ee <etharp_find_entry+0x26>
  405692:	bf00      	nop
  405694:	2040265c 	.word	0x2040265c
  405698:	00405595 	.word	0x00405595

0040569c <etharp_send_ip>:
  40569c:	b430      	push	{r4, r5}
  40569e:	681d      	ldr	r5, [r3, #0]
  4056a0:	684c      	ldr	r4, [r1, #4]
  4056a2:	6025      	str	r5, [r4, #0]
  4056a4:	889b      	ldrh	r3, [r3, #4]
  4056a6:	80a3      	strh	r3, [r4, #4]
  4056a8:	6813      	ldr	r3, [r2, #0]
  4056aa:	f8c4 3006 	str.w	r3, [r4, #6]
  4056ae:	8893      	ldrh	r3, [r2, #4]
  4056b0:	8163      	strh	r3, [r4, #10]
  4056b2:	2308      	movs	r3, #8
  4056b4:	7323      	strb	r3, [r4, #12]
  4056b6:	2300      	movs	r3, #0
  4056b8:	7363      	strb	r3, [r4, #13]
  4056ba:	6983      	ldr	r3, [r0, #24]
  4056bc:	bc30      	pop	{r4, r5}
  4056be:	4718      	bx	r3

004056c0 <etharp_tmr>:
  4056c0:	b5f8      	push	{r3, r4, r5, r6, r7, lr}
  4056c2:	4c0d      	ldr	r4, [pc, #52]	; (4056f8 <etharp_tmr+0x38>)
  4056c4:	2500      	movs	r5, #0
  4056c6:	4e0d      	ldr	r6, [pc, #52]	; (4056fc <etharp_tmr+0x3c>)
  4056c8:	2702      	movs	r7, #2
  4056ca:	7ca2      	ldrb	r2, [r4, #18]
  4056cc:	b15a      	cbz	r2, 4056e6 <etharp_tmr+0x26>
  4056ce:	7ce3      	ldrb	r3, [r4, #19]
  4056d0:	3301      	adds	r3, #1
  4056d2:	b2db      	uxtb	r3, r3
  4056d4:	2bef      	cmp	r3, #239	; 0xef
  4056d6:	74e3      	strb	r3, [r4, #19]
  4056d8:	d803      	bhi.n	4056e2 <etharp_tmr+0x22>
  4056da:	2a01      	cmp	r2, #1
  4056dc:	d108      	bne.n	4056f0 <etharp_tmr+0x30>
  4056de:	2b01      	cmp	r3, #1
  4056e0:	d901      	bls.n	4056e6 <etharp_tmr+0x26>
  4056e2:	4628      	mov	r0, r5
  4056e4:	47b0      	blx	r6
  4056e6:	3501      	adds	r5, #1
  4056e8:	3414      	adds	r4, #20
  4056ea:	2d0a      	cmp	r5, #10
  4056ec:	d1ed      	bne.n	4056ca <etharp_tmr+0xa>
  4056ee:	bdf8      	pop	{r3, r4, r5, r6, r7, pc}
  4056f0:	2a03      	cmp	r2, #3
  4056f2:	bf08      	it	eq
  4056f4:	74a7      	strbeq	r7, [r4, #18]
  4056f6:	e7f6      	b.n	4056e6 <etharp_tmr+0x26>
  4056f8:	2040265c 	.word	0x2040265c
  4056fc:	00405595 	.word	0x00405595

00405700 <etharp_request>:
  405700:	e92d 41f0 	stmdb	sp!, {r4, r5, r6, r7, r8, lr}
  405704:	2200      	movs	r2, #0
  405706:	4606      	mov	r6, r0
  405708:	4688      	mov	r8, r1
  40570a:	2003      	movs	r0, #3
  40570c:	212a      	movs	r1, #42	; 0x2a
  40570e:	4b21      	ldr	r3, [pc, #132]	; (405794 <etharp_request+0x94>)
  405710:	4798      	blx	r3
  405712:	4605      	mov	r5, r0
  405714:	2800      	cmp	r0, #0
  405716:	d03a      	beq.n	40578e <etharp_request+0x8e>
  405718:	6844      	ldr	r4, [r0, #4]
  40571a:	2001      	movs	r0, #1
  40571c:	4b1e      	ldr	r3, [pc, #120]	; (405798 <etharp_request+0x98>)
  40571e:	4798      	blx	r3
  405720:	82a0      	strh	r0, [r4, #20]
  405722:	f8d6 3027 	ldr.w	r3, [r6, #39]	; 0x27
  405726:	2104      	movs	r1, #4
  405728:	4630      	mov	r0, r6
  40572a:	f8c4 3016 	str.w	r3, [r4, #22]
  40572e:	f8b6 302b 	ldrh.w	r3, [r6, #43]	; 0x2b
  405732:	8363      	strh	r3, [r4, #26]
  405734:	4b19      	ldr	r3, [pc, #100]	; (40579c <etharp_request+0x9c>)
  405736:	681a      	ldr	r2, [r3, #0]
  405738:	889b      	ldrh	r3, [r3, #4]
  40573a:	6222      	str	r2, [r4, #32]
  40573c:	84a3      	strh	r3, [r4, #36]	; 0x24
  40573e:	4b18      	ldr	r3, [pc, #96]	; (4057a0 <etharp_request+0xa0>)
  405740:	681a      	ldr	r2, [r3, #0]
  405742:	889b      	ldrh	r3, [r3, #4]
  405744:	6022      	str	r2, [r4, #0]
  405746:	2201      	movs	r2, #1
  405748:	80a3      	strh	r3, [r4, #4]
  40574a:	f8d6 3027 	ldr.w	r3, [r6, #39]	; 0x27
  40574e:	f8c4 3006 	str.w	r3, [r4, #6]
  405752:	f8b6 302b 	ldrh.w	r3, [r6, #43]	; 0x2b
  405756:	8163      	strh	r3, [r4, #10]
  405758:	6873      	ldr	r3, [r6, #4]
  40575a:	61e3      	str	r3, [r4, #28]
  40575c:	f8d8 3000 	ldr.w	r3, [r8]
  405760:	73e2      	strb	r2, [r4, #15]
  405762:	2208      	movs	r2, #8
  405764:	f8c4 3026 	str.w	r3, [r4, #38]	; 0x26
  405768:	2300      	movs	r3, #0
  40576a:	74e1      	strb	r1, [r4, #19]
  40576c:	4629      	mov	r1, r5
  40576e:	73a3      	strb	r3, [r4, #14]
  405770:	7463      	strb	r3, [r4, #17]
  405772:	2306      	movs	r3, #6
  405774:	7422      	strb	r2, [r4, #16]
  405776:	74a3      	strb	r3, [r4, #18]
  405778:	7322      	strb	r2, [r4, #12]
  40577a:	7363      	strb	r3, [r4, #13]
  40577c:	69b3      	ldr	r3, [r6, #24]
  40577e:	4798      	blx	r3
  405780:	4b08      	ldr	r3, [pc, #32]	; (4057a4 <etharp_request+0xa4>)
  405782:	4604      	mov	r4, r0
  405784:	4628      	mov	r0, r5
  405786:	4798      	blx	r3
  405788:	4620      	mov	r0, r4
  40578a:	e8bd 81f0 	ldmia.w	sp!, {r4, r5, r6, r7, r8, pc}
  40578e:	f04f 34ff 	mov.w	r4, #4294967295
  405792:	e7f9      	b.n	405788 <etharp_request+0x88>
  405794:	00402401 	.word	0x00402401
  405798:	0040111d 	.word	0x0040111d
  40579c:	0040a11f 	.word	0x0040a11f
  4057a0:	0040a119 	.word	0x0040a119
  4057a4:	004023b9 	.word	0x004023b9

004057a8 <etharp_output_to_arp_index>:
  4057a8:	e92d 41f0 	stmdb	sp!, {r4, r5, r6, r7, r8, lr}
  4057ac:	460f      	mov	r7, r1
  4057ae:	4d11      	ldr	r5, [pc, #68]	; (4057f4 <etharp_output_to_arp_index+0x4c>)
  4057b0:	2114      	movs	r1, #20
  4057b2:	4614      	mov	r4, r2
  4057b4:	4606      	mov	r6, r0
  4057b6:	fb01 5802 	mla	r8, r1, r2, r5
  4057ba:	f898 2012 	ldrb.w	r2, [r8, #18]
  4057be:	2a02      	cmp	r2, #2
  4057c0:	d10b      	bne.n	4057da <etharp_output_to_arp_index+0x32>
  4057c2:	f898 3013 	ldrb.w	r3, [r8, #19]
  4057c6:	2be3      	cmp	r3, #227	; 0xe3
  4057c8:	d907      	bls.n	4057da <etharp_output_to_arp_index+0x32>
  4057ca:	4641      	mov	r1, r8
  4057cc:	4b0a      	ldr	r3, [pc, #40]	; (4057f8 <etharp_output_to_arp_index+0x50>)
  4057ce:	3104      	adds	r1, #4
  4057d0:	4798      	blx	r3
  4057d2:	b910      	cbnz	r0, 4057da <etharp_output_to_arp_index+0x32>
  4057d4:	2303      	movs	r3, #3
  4057d6:	f888 3012 	strb.w	r3, [r8, #18]
  4057da:	2314      	movs	r3, #20
  4057dc:	f106 0227 	add.w	r2, r6, #39	; 0x27
  4057e0:	4639      	mov	r1, r7
  4057e2:	4630      	mov	r0, r6
  4057e4:	fb03 5304 	mla	r3, r3, r4, r5
  4057e8:	4c04      	ldr	r4, [pc, #16]	; (4057fc <etharp_output_to_arp_index+0x54>)
  4057ea:	330c      	adds	r3, #12
  4057ec:	46a4      	mov	ip, r4
  4057ee:	e8bd 41f0 	ldmia.w	sp!, {r4, r5, r6, r7, r8, lr}
  4057f2:	4760      	bx	ip
  4057f4:	2040265c 	.word	0x2040265c
  4057f8:	00405701 	.word	0x00405701
  4057fc:	0040569d 	.word	0x0040569d

00405800 <etharp_query>:
  405800:	e92d 41f0 	stmdb	sp!, {r4, r5, r6, r7, r8, lr}
  405804:	4688      	mov	r8, r1
  405806:	4607      	mov	r7, r0
  405808:	4601      	mov	r1, r0
  40580a:	4b3b      	ldr	r3, [pc, #236]	; (4058f8 <etharp_query+0xf8>)
  40580c:	f8d8 0000 	ldr.w	r0, [r8]
  405810:	4615      	mov	r5, r2
  405812:	4798      	blx	r3
  405814:	2800      	cmp	r0, #0
  405816:	d152      	bne.n	4058be <etharp_query+0xbe>
  405818:	f8d8 3000 	ldr.w	r3, [r8]
  40581c:	f003 02f0 	and.w	r2, r3, #240	; 0xf0
  405820:	2ae0      	cmp	r2, #224	; 0xe0
  405822:	d04c      	beq.n	4058be <etharp_query+0xbe>
  405824:	2b00      	cmp	r3, #0
  405826:	d04a      	beq.n	4058be <etharp_query+0xbe>
  405828:	2101      	movs	r1, #1
  40582a:	4640      	mov	r0, r8
  40582c:	4b33      	ldr	r3, [pc, #204]	; (4058fc <etharp_query+0xfc>)
  40582e:	4798      	blx	r3
  405830:	1e04      	subs	r4, r0, #0
  405832:	db48      	blt.n	4058c6 <etharp_query+0xc6>
  405834:	4e32      	ldr	r6, [pc, #200]	; (405900 <etharp_query+0x100>)
  405836:	2314      	movs	r3, #20
  405838:	fb03 6204 	mla	r2, r3, r4, r6
  40583c:	7c91      	ldrb	r1, [r2, #18]
  40583e:	b909      	cbnz	r1, 405844 <etharp_query+0x44>
  405840:	2101      	movs	r1, #1
  405842:	7491      	strb	r1, [r2, #18]
  405844:	fb03 6304 	mla	r3, r3, r4, r6
  405848:	7c9b      	ldrb	r3, [r3, #18]
  40584a:	2b01      	cmp	r3, #1
  40584c:	d000      	beq.n	405850 <etharp_query+0x50>
  40584e:	b935      	cbnz	r5, 40585e <etharp_query+0x5e>
  405850:	4641      	mov	r1, r8
  405852:	4638      	mov	r0, r7
  405854:	4b2b      	ldr	r3, [pc, #172]	; (405904 <etharp_query+0x104>)
  405856:	4798      	blx	r3
  405858:	b91d      	cbnz	r5, 405862 <etharp_query+0x62>
  40585a:	e8bd 81f0 	ldmia.w	sp!, {r4, r5, r6, r7, r8, pc}
  40585e:	f04f 30ff 	mov.w	r0, #4294967295
  405862:	2314      	movs	r3, #20
  405864:	fb03 6204 	mla	r2, r3, r4, r6
  405868:	7c92      	ldrb	r2, [r2, #18]
  40586a:	2a01      	cmp	r2, #1
  40586c:	d90e      	bls.n	40588c <etharp_query+0x8c>
  40586e:	4a26      	ldr	r2, [pc, #152]	; (405908 <etharp_query+0x108>)
  405870:	4629      	mov	r1, r5
  405872:	4638      	mov	r0, r7
  405874:	7014      	strb	r4, [r2, #0]
  405876:	220c      	movs	r2, #12
  405878:	fb13 2304 	smlabb	r3, r3, r4, r2
  40587c:	4c23      	ldr	r4, [pc, #140]	; (40590c <etharp_query+0x10c>)
  40587e:	f107 0227 	add.w	r2, r7, #39	; 0x27
  405882:	4433      	add	r3, r6
  405884:	46a4      	mov	ip, r4
  405886:	e8bd 41f0 	ldmia.w	sp!, {r4, r5, r6, r7, r8, lr}
  40588a:	4760      	bx	ip
  40588c:	d131      	bne.n	4058f2 <etharp_query+0xf2>
  40588e:	462b      	mov	r3, r5
  405890:	b983      	cbnz	r3, 4058b4 <etharp_query+0xb4>
  405892:	4628      	mov	r0, r5
  405894:	4b1e      	ldr	r3, [pc, #120]	; (405910 <etharp_query+0x110>)
  405896:	4798      	blx	r3
  405898:	b33d      	cbz	r5, 4058ea <etharp_query+0xea>
  40589a:	462f      	mov	r7, r5
  40589c:	2314      	movs	r3, #20
  40589e:	4363      	muls	r3, r4
  4058a0:	58f0      	ldr	r0, [r6, r3]
  4058a2:	b108      	cbz	r0, 4058a8 <etharp_query+0xa8>
  4058a4:	4b1b      	ldr	r3, [pc, #108]	; (405914 <etharp_query+0x114>)
  4058a6:	4798      	blx	r3
  4058a8:	2314      	movs	r3, #20
  4058aa:	2000      	movs	r0, #0
  4058ac:	435c      	muls	r4, r3
  4058ae:	5137      	str	r7, [r6, r4]
  4058b0:	e8bd 81f0 	ldmia.w	sp!, {r4, r5, r6, r7, r8, pc}
  4058b4:	7b1a      	ldrb	r2, [r3, #12]
  4058b6:	2a01      	cmp	r2, #1
  4058b8:	d108      	bne.n	4058cc <etharp_query+0xcc>
  4058ba:	681b      	ldr	r3, [r3, #0]
  4058bc:	e7e8      	b.n	405890 <etharp_query+0x90>
  4058be:	f06f 000d 	mvn.w	r0, #13
  4058c2:	e8bd 81f0 	ldmia.w	sp!, {r4, r5, r6, r7, r8, pc}
  4058c6:	4620      	mov	r0, r4
  4058c8:	e8bd 81f0 	ldmia.w	sp!, {r4, r5, r6, r7, r8, pc}
  4058cc:	8919      	ldrh	r1, [r3, #8]
  4058ce:	2200      	movs	r2, #0
  4058d0:	2003      	movs	r0, #3
  4058d2:	4b11      	ldr	r3, [pc, #68]	; (405918 <etharp_query+0x118>)
  4058d4:	4798      	blx	r3
  4058d6:	4607      	mov	r7, r0
  4058d8:	b138      	cbz	r0, 4058ea <etharp_query+0xea>
  4058da:	4629      	mov	r1, r5
  4058dc:	4b0f      	ldr	r3, [pc, #60]	; (40591c <etharp_query+0x11c>)
  4058de:	4798      	blx	r3
  4058e0:	2800      	cmp	r0, #0
  4058e2:	d0db      	beq.n	40589c <etharp_query+0x9c>
  4058e4:	4638      	mov	r0, r7
  4058e6:	4b0b      	ldr	r3, [pc, #44]	; (405914 <etharp_query+0x114>)
  4058e8:	4798      	blx	r3
  4058ea:	f04f 30ff 	mov.w	r0, #4294967295
  4058ee:	e8bd 81f0 	ldmia.w	sp!, {r4, r5, r6, r7, r8, pc}
  4058f2:	e8bd 81f0 	ldmia.w	sp!, {r4, r5, r6, r7, r8, pc}
  4058f6:	bf00      	nop
  4058f8:	00401789 	.word	0x00401789
  4058fc:	004055c9 	.word	0x004055c9
  405900:	2040265c 	.word	0x2040265c
  405904:	00405701 	.word	0x00405701
  405908:	20402724 	.word	0x20402724
  40590c:	0040569d 	.word	0x0040569d
  405910:	00402589 	.word	0x00402589
  405914:	004023b9 	.word	0x004023b9
  405918:	00402401 	.word	0x00402401
  40591c:	004025ed 	.word	0x004025ed

00405920 <etharp_output>:
  405920:	b5f7      	push	{r0, r1, r2, r4, r5, r6, r7, lr}
  405922:	460e      	mov	r6, r1
  405924:	4604      	mov	r4, r0
  405926:	210e      	movs	r1, #14
  405928:	4b36      	ldr	r3, [pc, #216]	; (405a04 <etharp_output+0xe4>)
  40592a:	4630      	mov	r0, r6
  40592c:	4615      	mov	r5, r2
  40592e:	4798      	blx	r3
  405930:	2800      	cmp	r0, #0
  405932:	d160      	bne.n	4059f6 <etharp_output+0xd6>
  405934:	4621      	mov	r1, r4
  405936:	6828      	ldr	r0, [r5, #0]
  405938:	4b33      	ldr	r3, [pc, #204]	; (405a08 <etharp_output+0xe8>)
  40593a:	4798      	blx	r3
  40593c:	2800      	cmp	r0, #0
  40593e:	d158      	bne.n	4059f2 <etharp_output+0xd2>
  405940:	682b      	ldr	r3, [r5, #0]
  405942:	f003 02f0 	and.w	r2, r3, #240	; 0xf0
  405946:	2ae0      	cmp	r2, #224	; 0xe0
  405948:	d11a      	bne.n	405980 <etharp_output+0x60>
  40594a:	2301      	movs	r3, #1
  40594c:	f88d 0001 	strb.w	r0, [sp, #1]
  405950:	f88d 3000 	strb.w	r3, [sp]
  405954:	235e      	movs	r3, #94	; 0x5e
  405956:	f88d 3002 	strb.w	r3, [sp, #2]
  40595a:	786b      	ldrb	r3, [r5, #1]
  40595c:	f003 037f 	and.w	r3, r3, #127	; 0x7f
  405960:	f88d 3003 	strb.w	r3, [sp, #3]
  405964:	78ab      	ldrb	r3, [r5, #2]
  405966:	f88d 3004 	strb.w	r3, [sp, #4]
  40596a:	78eb      	ldrb	r3, [r5, #3]
  40596c:	f88d 3005 	strb.w	r3, [sp, #5]
  405970:	466b      	mov	r3, sp
  405972:	f104 0227 	add.w	r2, r4, #39	; 0x27
  405976:	4631      	mov	r1, r6
  405978:	4620      	mov	r0, r4
  40597a:	4c24      	ldr	r4, [pc, #144]	; (405a0c <etharp_output+0xec>)
  40597c:	47a0      	blx	r4
  40597e:	e020      	b.n	4059c2 <etharp_output+0xa2>
  405980:	6862      	ldr	r2, [r4, #4]
  405982:	68a1      	ldr	r1, [r4, #8]
  405984:	405a      	eors	r2, r3
  405986:	420a      	tst	r2, r1
  405988:	d009      	beq.n	40599e <etharp_output+0x7e>
  40598a:	b29b      	uxth	r3, r3
  40598c:	f64f 62a9 	movw	r2, #65193	; 0xfea9
  405990:	4293      	cmp	r3, r2
  405992:	d004      	beq.n	40599e <etharp_output+0x7e>
  405994:	68e3      	ldr	r3, [r4, #12]
  405996:	f104 050c 	add.w	r5, r4, #12
  40599a:	2b00      	cmp	r3, #0
  40599c:	d02e      	beq.n	4059fc <etharp_output+0xdc>
  40599e:	4b1c      	ldr	r3, [pc, #112]	; (405a10 <etharp_output+0xf0>)
  4059a0:	2014      	movs	r0, #20
  4059a2:	491c      	ldr	r1, [pc, #112]	; (405a14 <etharp_output+0xf4>)
  4059a4:	781a      	ldrb	r2, [r3, #0]
  4059a6:	fb00 1002 	mla	r0, r0, r2, r1
  4059aa:	7c81      	ldrb	r1, [r0, #18]
  4059ac:	2901      	cmp	r1, #1
  4059ae:	4619      	mov	r1, r3
  4059b0:	d909      	bls.n	4059c6 <etharp_output+0xa6>
  4059b2:	682f      	ldr	r7, [r5, #0]
  4059b4:	6843      	ldr	r3, [r0, #4]
  4059b6:	429f      	cmp	r7, r3
  4059b8:	d105      	bne.n	4059c6 <etharp_output+0xa6>
  4059ba:	4631      	mov	r1, r6
  4059bc:	4620      	mov	r0, r4
  4059be:	4b16      	ldr	r3, [pc, #88]	; (405a18 <etharp_output+0xf8>)
  4059c0:	4798      	blx	r3
  4059c2:	b003      	add	sp, #12
  4059c4:	bdf0      	pop	{r4, r5, r6, r7, pc}
  4059c6:	4b13      	ldr	r3, [pc, #76]	; (405a14 <etharp_output+0xf4>)
  4059c8:	2200      	movs	r2, #0
  4059ca:	7c98      	ldrb	r0, [r3, #18]
  4059cc:	2801      	cmp	r0, #1
  4059ce:	d906      	bls.n	4059de <etharp_output+0xbe>
  4059d0:	682f      	ldr	r7, [r5, #0]
  4059d2:	6858      	ldr	r0, [r3, #4]
  4059d4:	4287      	cmp	r7, r0
  4059d6:	d102      	bne.n	4059de <etharp_output+0xbe>
  4059d8:	b2d2      	uxtb	r2, r2
  4059da:	700a      	strb	r2, [r1, #0]
  4059dc:	e7ed      	b.n	4059ba <etharp_output+0x9a>
  4059de:	3201      	adds	r2, #1
  4059e0:	3314      	adds	r3, #20
  4059e2:	2a0a      	cmp	r2, #10
  4059e4:	d1f1      	bne.n	4059ca <etharp_output+0xaa>
  4059e6:	4632      	mov	r2, r6
  4059e8:	4629      	mov	r1, r5
  4059ea:	4620      	mov	r0, r4
  4059ec:	4b0b      	ldr	r3, [pc, #44]	; (405a1c <etharp_output+0xfc>)
  4059ee:	4798      	blx	r3
  4059f0:	e7e7      	b.n	4059c2 <etharp_output+0xa2>
  4059f2:	4b0b      	ldr	r3, [pc, #44]	; (405a20 <etharp_output+0x100>)
  4059f4:	e7bd      	b.n	405972 <etharp_output+0x52>
  4059f6:	f06f 0001 	mvn.w	r0, #1
  4059fa:	e7e2      	b.n	4059c2 <etharp_output+0xa2>
  4059fc:	f06f 0003 	mvn.w	r0, #3
  405a00:	e7df      	b.n	4059c2 <etharp_output+0xa2>
  405a02:	bf00      	nop
  405a04:	00402341 	.word	0x00402341
  405a08:	00401789 	.word	0x00401789
  405a0c:	0040569d 	.word	0x0040569d
  405a10:	20402724 	.word	0x20402724
  405a14:	2040265c 	.word	0x2040265c
  405a18:	004057a9 	.word	0x004057a9
  405a1c:	00405801 	.word	0x00405801
  405a20:	0040a119 	.word	0x0040a119

00405a24 <ethernet_input>:
  405a24:	e92d 4ff7 	stmdb	sp!, {r0, r1, r2, r4, r5, r6, r7, r8, r9, sl, fp, lr}
  405a28:	8947      	ldrh	r7, [r0, #10]
  405a2a:	4605      	mov	r5, r0
  405a2c:	460e      	mov	r6, r1
  405a2e:	2f0e      	cmp	r7, #14
  405a30:	d916      	bls.n	405a60 <ethernet_input+0x3c>
  405a32:	6844      	ldr	r4, [r0, #4]
  405a34:	7823      	ldrb	r3, [r4, #0]
  405a36:	f8b4 800c 	ldrh.w	r8, [r4, #12]
  405a3a:	07d8      	lsls	r0, r3, #31
  405a3c:	d50a      	bpl.n	405a54 <ethernet_input+0x30>
  405a3e:	2b01      	cmp	r3, #1
  405a40:	d112      	bne.n	405a68 <ethernet_input+0x44>
  405a42:	7863      	ldrb	r3, [r4, #1]
  405a44:	b933      	cbnz	r3, 405a54 <ethernet_input+0x30>
  405a46:	78a3      	ldrb	r3, [r4, #2]
  405a48:	2b5e      	cmp	r3, #94	; 0x5e
  405a4a:	d103      	bne.n	405a54 <ethernet_input+0x30>
  405a4c:	7b6b      	ldrb	r3, [r5, #13]
  405a4e:	f043 0310 	orr.w	r3, r3, #16
  405a52:	736b      	strb	r3, [r5, #13]
  405a54:	f1b8 0f08 	cmp.w	r8, #8
  405a58:	d011      	beq.n	405a7e <ethernet_input+0x5a>
  405a5a:	f5b8 6fc1 	cmp.w	r8, #1544	; 0x608
  405a5e:	d021      	beq.n	405aa4 <ethernet_input+0x80>
  405a60:	4628      	mov	r0, r5
  405a62:	4b5b      	ldr	r3, [pc, #364]	; (405bd0 <ethernet_input+0x1ac>)
  405a64:	4798      	blx	r3
  405a66:	e019      	b.n	405a9c <ethernet_input+0x78>
  405a68:	2206      	movs	r2, #6
  405a6a:	495a      	ldr	r1, [pc, #360]	; (405bd4 <ethernet_input+0x1b0>)
  405a6c:	4620      	mov	r0, r4
  405a6e:	4b5a      	ldr	r3, [pc, #360]	; (405bd8 <ethernet_input+0x1b4>)
  405a70:	4798      	blx	r3
  405a72:	2800      	cmp	r0, #0
  405a74:	d1ee      	bne.n	405a54 <ethernet_input+0x30>
  405a76:	7b6b      	ldrb	r3, [r5, #13]
  405a78:	f043 0308 	orr.w	r3, r3, #8
  405a7c:	e7e9      	b.n	405a52 <ethernet_input+0x2e>
  405a7e:	f896 302d 	ldrb.w	r3, [r6, #45]	; 0x2d
  405a82:	0699      	lsls	r1, r3, #26
  405a84:	d5ec      	bpl.n	405a60 <ethernet_input+0x3c>
  405a86:	f06f 010d 	mvn.w	r1, #13
  405a8a:	4628      	mov	r0, r5
  405a8c:	4b53      	ldr	r3, [pc, #332]	; (405bdc <ethernet_input+0x1b8>)
  405a8e:	4798      	blx	r3
  405a90:	2800      	cmp	r0, #0
  405a92:	d1e5      	bne.n	405a60 <ethernet_input+0x3c>
  405a94:	4631      	mov	r1, r6
  405a96:	4628      	mov	r0, r5
  405a98:	4b51      	ldr	r3, [pc, #324]	; (405be0 <ethernet_input+0x1bc>)
  405a9a:	4798      	blx	r3
  405a9c:	2000      	movs	r0, #0
  405a9e:	b003      	add	sp, #12
  405aa0:	e8bd 8ff0 	ldmia.w	sp!, {r4, r5, r6, r7, r8, r9, sl, fp, pc}
  405aa4:	f896 302d 	ldrb.w	r3, [r6, #45]	; 0x2d
  405aa8:	069a      	lsls	r2, r3, #26
  405aaa:	d5d9      	bpl.n	405a60 <ethernet_input+0x3c>
  405aac:	2f29      	cmp	r7, #41	; 0x29
  405aae:	d9d7      	bls.n	405a60 <ethernet_input+0x3c>
  405ab0:	89e3      	ldrh	r3, [r4, #14]
  405ab2:	f5b3 7f80 	cmp.w	r3, #256	; 0x100
  405ab6:	d1d3      	bne.n	405a60 <ethernet_input+0x3c>
  405ab8:	7ca3      	ldrb	r3, [r4, #18]
  405aba:	2b06      	cmp	r3, #6
  405abc:	d1d0      	bne.n	405a60 <ethernet_input+0x3c>
  405abe:	7ce3      	ldrb	r3, [r4, #19]
  405ac0:	2b04      	cmp	r3, #4
  405ac2:	d1cd      	bne.n	405a60 <ethernet_input+0x3c>
  405ac4:	8a23      	ldrh	r3, [r4, #16]
  405ac6:	2b08      	cmp	r3, #8
  405ac8:	d1ca      	bne.n	405a60 <ethernet_input+0x3c>
  405aca:	69e0      	ldr	r0, [r4, #28]
  405acc:	6873      	ldr	r3, [r6, #4]
  405ace:	9001      	str	r0, [sp, #4]
  405ad0:	f8d4 8026 	ldr.w	r8, [r4, #38]	; 0x26
  405ad4:	2b00      	cmp	r3, #0
  405ad6:	d079      	beq.n	405bcc <ethernet_input+0x1a8>
  405ad8:	eba8 0303 	sub.w	r3, r8, r3
  405adc:	f1d3 0800 	rsbs	r8, r3, #0
  405ae0:	eb48 0803 	adc.w	r8, r8, r3
  405ae4:	f1b8 0f00 	cmp.w	r8, #0
  405ae8:	f104 0716 	add.w	r7, r4, #22
  405aec:	f106 0927 	add.w	r9, r6, #39	; 0x27
  405af0:	bf14      	ite	ne
  405af2:	f04f 0a01 	movne.w	sl, #1
  405af6:	f04f 0a02 	moveq.w	sl, #2
  405afa:	2800      	cmp	r0, #0
  405afc:	d039      	beq.n	405b72 <ethernet_input+0x14e>
  405afe:	4631      	mov	r1, r6
  405b00:	4b38      	ldr	r3, [pc, #224]	; (405be4 <ethernet_input+0x1c0>)
  405b02:	4798      	blx	r3
  405b04:	4683      	mov	fp, r0
  405b06:	bba0      	cbnz	r0, 405b72 <ethernet_input+0x14e>
  405b08:	9b01      	ldr	r3, [sp, #4]
  405b0a:	f003 03f0 	and.w	r3, r3, #240	; 0xf0
  405b0e:	2be0      	cmp	r3, #224	; 0xe0
  405b10:	d02f      	beq.n	405b72 <ethernet_input+0x14e>
  405b12:	4651      	mov	r1, sl
  405b14:	a801      	add	r0, sp, #4
  405b16:	4b34      	ldr	r3, [pc, #208]	; (405be8 <ethernet_input+0x1c4>)
  405b18:	4798      	blx	r3
  405b1a:	2800      	cmp	r0, #0
  405b1c:	db29      	blt.n	405b72 <ethernet_input+0x14e>
  405b1e:	2214      	movs	r2, #20
  405b20:	4b32      	ldr	r3, [pc, #200]	; (405bec <ethernet_input+0x1c8>)
  405b22:	f04f 0c02 	mov.w	ip, #2
  405b26:	fb02 f100 	mul.w	r1, r2, r0
  405b2a:	eb03 0e01 	add.w	lr, r3, r1
  405b2e:	f88e c012 	strb.w	ip, [lr, #18]
  405b32:	f04f 0c0c 	mov.w	ip, #12
  405b36:	f8ce 6008 	str.w	r6, [lr, #8]
  405b3a:	fb12 c200 	smlabb	r2, r2, r0, ip
  405b3e:	6838      	ldr	r0, [r7, #0]
  405b40:	eb03 0c02 	add.w	ip, r3, r2
  405b44:	5098      	str	r0, [r3, r2]
  405b46:	88ba      	ldrh	r2, [r7, #4]
  405b48:	f8ac 2004 	strh.w	r2, [ip, #4]
  405b4c:	f853 a001 	ldr.w	sl, [r3, r1]
  405b50:	f88e b013 	strb.w	fp, [lr, #19]
  405b54:	f1ba 0f00 	cmp.w	sl, #0
  405b58:	d00b      	beq.n	405b72 <ethernet_input+0x14e>
  405b5a:	f843 b001 	str.w	fp, [r3, r1]
  405b5e:	464a      	mov	r2, r9
  405b60:	463b      	mov	r3, r7
  405b62:	4651      	mov	r1, sl
  405b64:	4630      	mov	r0, r6
  405b66:	f8df b08c 	ldr.w	fp, [pc, #140]	; 405bf4 <ethernet_input+0x1d0>
  405b6a:	47d8      	blx	fp
  405b6c:	4650      	mov	r0, sl
  405b6e:	4b18      	ldr	r3, [pc, #96]	; (405bd0 <ethernet_input+0x1ac>)
  405b70:	4798      	blx	r3
  405b72:	8aa3      	ldrh	r3, [r4, #20]
  405b74:	f5b3 7f80 	cmp.w	r3, #256	; 0x100
  405b78:	f47f af72 	bne.w	405a60 <ethernet_input+0x3c>
  405b7c:	f1b8 0f00 	cmp.w	r8, #0
  405b80:	f43f af6e 	beq.w	405a60 <ethernet_input+0x3c>
  405b84:	4b1a      	ldr	r3, [pc, #104]	; (405bf0 <ethernet_input+0x1cc>)
  405b86:	2002      	movs	r0, #2
  405b88:	4798      	blx	r3
  405b8a:	69e3      	ldr	r3, [r4, #28]
  405b8c:	82a0      	strh	r0, [r4, #20]
  405b8e:	4629      	mov	r1, r5
  405b90:	f8c4 3026 	str.w	r3, [r4, #38]	; 0x26
  405b94:	4630      	mov	r0, r6
  405b96:	6873      	ldr	r3, [r6, #4]
  405b98:	61e3      	str	r3, [r4, #28]
  405b9a:	683b      	ldr	r3, [r7, #0]
  405b9c:	6223      	str	r3, [r4, #32]
  405b9e:	88bb      	ldrh	r3, [r7, #4]
  405ba0:	84a3      	strh	r3, [r4, #36]	; 0x24
  405ba2:	683b      	ldr	r3, [r7, #0]
  405ba4:	6023      	str	r3, [r4, #0]
  405ba6:	88bb      	ldrh	r3, [r7, #4]
  405ba8:	80a3      	strh	r3, [r4, #4]
  405baa:	f8d9 3000 	ldr.w	r3, [r9]
  405bae:	f8c4 3016 	str.w	r3, [r4, #22]
  405bb2:	f8b9 3004 	ldrh.w	r3, [r9, #4]
  405bb6:	80bb      	strh	r3, [r7, #4]
  405bb8:	f8d9 3000 	ldr.w	r3, [r9]
  405bbc:	f8c4 3006 	str.w	r3, [r4, #6]
  405bc0:	f8b9 3004 	ldrh.w	r3, [r9, #4]
  405bc4:	8163      	strh	r3, [r4, #10]
  405bc6:	69b3      	ldr	r3, [r6, #24]
  405bc8:	4798      	blx	r3
  405bca:	e749      	b.n	405a60 <ethernet_input+0x3c>
  405bcc:	4698      	mov	r8, r3
  405bce:	e789      	b.n	405ae4 <ethernet_input+0xc0>
  405bd0:	004023b9 	.word	0x004023b9
  405bd4:	0040a119 	.word	0x0040a119
  405bd8:	0040643d 	.word	0x0040643d
  405bdc:	00402341 	.word	0x00402341
  405be0:	004014b5 	.word	0x004014b5
  405be4:	00401789 	.word	0x00401789
  405be8:	004055c9 	.word	0x004055c9
  405bec:	2040265c 	.word	0x2040265c
  405bf0:	0040111d 	.word	0x0040111d
  405bf4:	0040569d 	.word	0x0040569d

00405bf8 <gmac_rx_populate_queue>:
  405bf8:	b5f8      	push	{r3, r4, r5, r6, r7, lr}
  405bfa:	4606      	mov	r6, r0
  405bfc:	f100 0530 	add.w	r5, r0, #48	; 0x30
  405c00:	2400      	movs	r4, #0
  405c02:	4f0e      	ldr	r7, [pc, #56]	; (405c3c <gmac_rx_populate_queue+0x44>)
  405c04:	682b      	ldr	r3, [r5, #0]
  405c06:	b99b      	cbnz	r3, 405c30 <gmac_rx_populate_queue+0x38>
  405c08:	2203      	movs	r2, #3
  405c0a:	f44f 61c0 	mov.w	r1, #1536	; 0x600
  405c0e:	4610      	mov	r0, r2
  405c10:	47b8      	blx	r7
  405c12:	b188      	cbz	r0, 405c38 <gmac_rx_populate_queue+0x40>
  405c14:	6843      	ldr	r3, [r0, #4]
  405c16:	2c02      	cmp	r4, #2
  405c18:	f04f 0200 	mov.w	r2, #0
  405c1c:	bf0a      	itet	eq
  405c1e:	f043 0302 	orreq.w	r3, r3, #2
  405c22:	f846 3034 	strne.w	r3, [r6, r4, lsl #3]
  405c26:	6133      	streq	r3, [r6, #16]
  405c28:	eb06 03c4 	add.w	r3, r6, r4, lsl #3
  405c2c:	605a      	str	r2, [r3, #4]
  405c2e:	6028      	str	r0, [r5, #0]
  405c30:	3401      	adds	r4, #1
  405c32:	3504      	adds	r5, #4
  405c34:	2c03      	cmp	r4, #3
  405c36:	d1e5      	bne.n	405c04 <gmac_rx_populate_queue+0xc>
  405c38:	bdf8      	pop	{r3, r4, r5, r6, r7, pc}
  405c3a:	bf00      	nop
  405c3c:	00402401 	.word	0x00402401

00405c40 <gmac_low_level_output>:
  405c40:	b5f8      	push	{r3, r4, r5, r6, r7, lr}
  405c42:	4b1b      	ldr	r3, [pc, #108]	; (405cb0 <gmac_low_level_output+0x70>)
  405c44:	460e      	mov	r6, r1
  405c46:	6a05      	ldr	r5, [r0, #32]
  405c48:	460c      	mov	r4, r1
  405c4a:	695b      	ldr	r3, [r3, #20]
  405c4c:	f241 230c 	movw	r3, #4620	; 0x120c
  405c50:	4f18      	ldr	r7, [pc, #96]	; (405cb4 <gmac_low_level_output+0x74>)
  405c52:	58eb      	ldr	r3, [r5, r3]
  405c54:	3303      	adds	r3, #3
  405c56:	f855 3033 	ldr.w	r3, [r5, r3, lsl #3]
  405c5a:	b9fc      	cbnz	r4, 405c9c <gmac_low_level_output+0x5c>
  405c5c:	f241 210c 	movw	r1, #4620	; 0x120c
  405c60:	8936      	ldrh	r6, [r6, #8]
  405c62:	586b      	ldr	r3, [r5, r1]
  405c64:	1cda      	adds	r2, r3, #3
  405c66:	3301      	adds	r3, #1
  405c68:	eb05 02c2 	add.w	r2, r5, r2, lsl #3
  405c6c:	8890      	ldrh	r0, [r2, #4]
  405c6e:	f366 000d 	bfi	r0, r6, #0, #14
  405c72:	8090      	strh	r0, [r2, #4]
  405c74:	79d0      	ldrb	r0, [r2, #7]
  405c76:	f364 10c7 	bfi	r0, r4, #7, #1
  405c7a:	71d0      	strb	r0, [r2, #7]
  405c7c:	2203      	movs	r2, #3
  405c7e:	fbb3 f2f2 	udiv	r2, r3, r2
  405c82:	eb02 0242 	add.w	r2, r2, r2, lsl #1
  405c86:	1a9b      	subs	r3, r3, r2
  405c88:	506b      	str	r3, [r5, r1]
  405c8a:	f3bf 8f4f 	dsb	sy
  405c8e:	4a08      	ldr	r2, [pc, #32]	; (405cb0 <gmac_low_level_output+0x70>)
  405c90:	4620      	mov	r0, r4
  405c92:	6813      	ldr	r3, [r2, #0]
  405c94:	f443 7300 	orr.w	r3, r3, #512	; 0x200
  405c98:	6013      	str	r3, [r2, #0]
  405c9a:	bdf8      	pop	{r3, r4, r5, r6, r7, pc}
  405c9c:	8962      	ldrh	r2, [r4, #10]
  405c9e:	4618      	mov	r0, r3
  405ca0:	6861      	ldr	r1, [r4, #4]
  405ca2:	47b8      	blx	r7
  405ca4:	8962      	ldrh	r2, [r4, #10]
  405ca6:	4603      	mov	r3, r0
  405ca8:	6824      	ldr	r4, [r4, #0]
  405caa:	4413      	add	r3, r2
  405cac:	e7d5      	b.n	405c5a <gmac_low_level_output+0x1a>
  405cae:	bf00      	nop
  405cb0:	40050000 	.word	0x40050000
  405cb4:	0040649d 	.word	0x0040649d

00405cb8 <GMAC_Handler>:
  405cb8:	2280      	movs	r2, #128	; 0x80
  405cba:	4b04      	ldr	r3, [pc, #16]	; (405ccc <GMAC_Handler+0x14>)
  405cbc:	f8c3 2084 	str.w	r2, [r3, #132]	; 0x84
  405cc0:	f3bf 8f4f 	dsb	sy
  405cc4:	f3bf 8f6f 	isb	sy
  405cc8:	4770      	bx	lr
  405cca:	bf00      	nop
  405ccc:	e000e100 	.word	0xe000e100

00405cd0 <ethernetif_input>:
  405cd0:	e92d 41f0 	stmdb	sp!, {r4, r5, r6, r7, r8, lr}
  405cd4:	f241 2708 	movw	r7, #4616	; 0x1208
  405cd8:	6a04      	ldr	r4, [r0, #32]
  405cda:	4b21      	ldr	r3, [pc, #132]	; (405d60 <ethernetif_input+0x90>)
  405cdc:	4680      	mov	r8, r0
  405cde:	59e6      	ldr	r6, [r4, r7]
  405ce0:	6a1b      	ldr	r3, [r3, #32]
  405ce2:	f854 2036 	ldr.w	r2, [r4, r6, lsl #3]
  405ce6:	eb04 03c6 	add.w	r3, r4, r6, lsl #3
  405cea:	07d2      	lsls	r2, r2, #31
  405cec:	d535      	bpl.n	405d5a <ethernetif_input+0x8a>
  405cee:	685b      	ldr	r3, [r3, #4]
  405cf0:	f106 020c 	add.w	r2, r6, #12
  405cf4:	2100      	movs	r1, #0
  405cf6:	4620      	mov	r0, r4
  405cf8:	f854 5022 	ldr.w	r5, [r4, r2, lsl #2]
  405cfc:	f3c3 030b 	ubfx	r3, r3, #0, #12
  405d00:	816b      	strh	r3, [r5, #10]
  405d02:	59e2      	ldr	r2, [r4, r7]
  405d04:	320c      	adds	r2, #12
  405d06:	f844 1022 	str.w	r1, [r4, r2, lsl #2]
  405d0a:	812b      	strh	r3, [r5, #8]
  405d0c:	4b15      	ldr	r3, [pc, #84]	; (405d64 <ethernetif_input+0x94>)
  405d0e:	4798      	blx	r3
  405d10:	f854 3036 	ldr.w	r3, [r4, r6, lsl #3]
  405d14:	2203      	movs	r2, #3
  405d16:	f023 0301 	bic.w	r3, r3, #1
  405d1a:	f844 3036 	str.w	r3, [r4, r6, lsl #3]
  405d1e:	59e3      	ldr	r3, [r4, r7]
  405d20:	3301      	adds	r3, #1
  405d22:	fbb3 f2f2 	udiv	r2, r3, r2
  405d26:	eb02 0242 	add.w	r2, r2, r2, lsl #1
  405d2a:	1a9b      	subs	r3, r3, r2
  405d2c:	51e3      	str	r3, [r4, r7]
  405d2e:	686b      	ldr	r3, [r5, #4]
  405d30:	8998      	ldrh	r0, [r3, #12]
  405d32:	4b0d      	ldr	r3, [pc, #52]	; (405d68 <ethernetif_input+0x98>)
  405d34:	4798      	blx	r3
  405d36:	f5b0 6f00 	cmp.w	r0, #2048	; 0x800
  405d3a:	d003      	beq.n	405d44 <ethernetif_input+0x74>
  405d3c:	f640 0306 	movw	r3, #2054	; 0x806
  405d40:	4298      	cmp	r0, r3
  405d42:	d105      	bne.n	405d50 <ethernetif_input+0x80>
  405d44:	f8d8 3010 	ldr.w	r3, [r8, #16]
  405d48:	4641      	mov	r1, r8
  405d4a:	4628      	mov	r0, r5
  405d4c:	4798      	blx	r3
  405d4e:	b120      	cbz	r0, 405d5a <ethernetif_input+0x8a>
  405d50:	4628      	mov	r0, r5
  405d52:	4b06      	ldr	r3, [pc, #24]	; (405d6c <ethernetif_input+0x9c>)
  405d54:	e8bd 41f0 	ldmia.w	sp!, {r4, r5, r6, r7, r8, lr}
  405d58:	4718      	bx	r3
  405d5a:	e8bd 81f0 	ldmia.w	sp!, {r4, r5, r6, r7, r8, pc}
  405d5e:	bf00      	nop
  405d60:	40050000 	.word	0x40050000
  405d64:	00405bf9 	.word	0x00405bf9
  405d68:	0040111d 	.word	0x0040111d
  405d6c:	004023b9 	.word	0x004023b9

00405d70 <ethernetif_init>:
  405d70:	b5f7      	push	{r0, r1, r2, r4, r5, r6, r7, lr}
  405d72:	f241 2310 	movw	r3, #4624	; 0x1210
  405d76:	4d6f      	ldr	r5, [pc, #444]	; (405f34 <ethernetif_init+0x1c4>)
  405d78:	4606      	mov	r6, r0
  405d7a:	50e8      	str	r0, [r5, r3]
  405d7c:	2365      	movs	r3, #101	; 0x65
  405d7e:	6205      	str	r5, [r0, #32]
  405d80:	f880 302e 	strb.w	r3, [r0, #46]	; 0x2e
  405d84:	236e      	movs	r3, #110	; 0x6e
  405d86:	f880 302f 	strb.w	r3, [r0, #47]	; 0x2f
  405d8a:	4b6b      	ldr	r3, [pc, #428]	; (405f38 <ethernetif_init+0x1c8>)
  405d8c:	6143      	str	r3, [r0, #20]
  405d8e:	4b6b      	ldr	r3, [pc, #428]	; (405f3c <ethernetif_init+0x1cc>)
  405d90:	6183      	str	r3, [r0, #24]
  405d92:	2306      	movs	r3, #6
  405d94:	f880 3026 	strb.w	r3, [r0, #38]	; 0x26
  405d98:	2300      	movs	r3, #0
  405d9a:	f880 3027 	strb.w	r3, [r0, #39]	; 0x27
  405d9e:	2304      	movs	r3, #4
  405da0:	f880 3028 	strb.w	r3, [r0, #40]	; 0x28
  405da4:	2325      	movs	r3, #37	; 0x25
  405da6:	f880 3029 	strb.w	r3, [r0, #41]	; 0x29
  405daa:	231c      	movs	r3, #28
  405dac:	f880 302a 	strb.w	r3, [r0, #42]	; 0x2a
  405db0:	23a0      	movs	r3, #160	; 0xa0
  405db2:	f880 302b 	strb.w	r3, [r0, #43]	; 0x2b
  405db6:	2302      	movs	r3, #2
  405db8:	f880 302c 	strb.w	r3, [r0, #44]	; 0x2c
  405dbc:	f240 53dc 	movw	r3, #1500	; 0x5dc
  405dc0:	8483      	strh	r3, [r0, #36]	; 0x24
  405dc2:	f890 302d 	ldrb.w	r3, [r0, #45]	; 0x2d
  405dc6:	f043 0322 	orr.w	r3, r3, #34	; 0x22
  405dca:	f880 302d 	strb.w	r3, [r0, #45]	; 0x2d
  405dce:	4b5c      	ldr	r3, [pc, #368]	; (405f40 <ethernetif_init+0x1d0>)
  405dd0:	9301      	str	r3, [sp, #4]
  405dd2:	9f01      	ldr	r7, [sp, #4]
  405dd4:	1e7b      	subs	r3, r7, #1
  405dd6:	9301      	str	r3, [sp, #4]
  405dd8:	2f00      	cmp	r7, #0
  405dda:	d1fa      	bne.n	405dd2 <ethernetif_init+0x62>
  405ddc:	4b59      	ldr	r3, [pc, #356]	; (405f44 <ethernetif_init+0x1d4>)
  405dde:	2027      	movs	r0, #39	; 0x27
  405de0:	4c59      	ldr	r4, [pc, #356]	; (405f48 <ethernetif_init+0x1d8>)
  405de2:	4798      	blx	r3
  405de4:	f04f 32ff 	mov.w	r2, #4294967295
  405de8:	4852      	ldr	r0, [pc, #328]	; (405f34 <ethernetif_init+0x1c4>)
  405dea:	6027      	str	r7, [r4, #0]
  405dec:	62e2      	str	r2, [r4, #44]	; 0x2c
  405dee:	6823      	ldr	r3, [r4, #0]
  405df0:	f043 0320 	orr.w	r3, r3, #32
  405df4:	6023      	str	r3, [r4, #0]
  405df6:	230f      	movs	r3, #15
  405df8:	6223      	str	r3, [r4, #32]
  405dfa:	f240 133f 	movw	r3, #319	; 0x13f
  405dfe:	6163      	str	r3, [r4, #20]
  405e00:	6a63      	ldr	r3, [r4, #36]	; 0x24
  405e02:	6863      	ldr	r3, [r4, #4]
  405e04:	f023 0310 	bic.w	r3, r3, #16
  405e08:	6063      	str	r3, [r4, #4]
  405e0a:	6863      	ldr	r3, [r4, #4]
  405e0c:	f023 0320 	bic.w	r3, r3, #32
  405e10:	6063      	str	r3, [r4, #4]
  405e12:	6923      	ldr	r3, [r4, #16]
  405e14:	f423 037f 	bic.w	r3, r3, #16711680	; 0xff0000
  405e18:	f443 13c0 	orr.w	r3, r3, #1572864	; 0x180000
  405e1c:	6123      	str	r3, [r4, #16]
  405e1e:	f8d4 3400 	ldr.w	r3, [r4, #1024]	; 0x400
  405e22:	f8d4 3404 	ldr.w	r3, [r4, #1028]	; 0x404
  405e26:	f8d4 3408 	ldr.w	r3, [r4, #1032]	; 0x408
  405e2a:	f8d4 340c 	ldr.w	r3, [r4, #1036]	; 0x40c
  405e2e:	f8d4 3410 	ldr.w	r3, [r4, #1040]	; 0x410
  405e32:	4b46      	ldr	r3, [pc, #280]	; (405f4c <ethernetif_init+0x1dc>)
  405e34:	601a      	str	r2, [r3, #0]
  405e36:	f04f 4240 	mov.w	r2, #3221225472	; 0xc0000000
  405e3a:	605a      	str	r2, [r3, #4]
  405e3c:	f023 0303 	bic.w	r3, r3, #3
  405e40:	f06f 0201 	mvn.w	r2, #1
  405e44:	f8c4 3440 	str.w	r3, [r4, #1088]	; 0x440
  405e48:	f8c4 3444 	str.w	r3, [r4, #1092]	; 0x444
  405e4c:	f8c4 3448 	str.w	r3, [r4, #1096]	; 0x448
  405e50:	f8c4 344c 	str.w	r3, [r4, #1100]	; 0x44c
  405e54:	f8c4 3450 	str.w	r3, [r4, #1104]	; 0x450
  405e58:	4b3d      	ldr	r3, [pc, #244]	; (405f50 <ethernetif_init+0x1e0>)
  405e5a:	e883 0084 	stmia.w	r3, {r2, r7}
  405e5e:	f023 0303 	bic.w	r3, r3, #3
  405e62:	f8c4 3480 	str.w	r3, [r4, #1152]	; 0x480
  405e66:	f8c4 3484 	str.w	r3, [r4, #1156]	; 0x484
  405e6a:	f8c4 3488 	str.w	r3, [r4, #1160]	; 0x488
  405e6e:	f8c4 348c 	str.w	r3, [r4, #1164]	; 0x48c
  405e72:	f8c4 3490 	str.w	r3, [r4, #1168]	; 0x490
  405e76:	f241 2308 	movw	r3, #4616	; 0x1208
  405e7a:	50ef      	str	r7, [r5, r3]
  405e7c:	2302      	movs	r3, #2
  405e7e:	602f      	str	r7, [r5, #0]
  405e80:	612b      	str	r3, [r5, #16]
  405e82:	606f      	str	r7, [r5, #4]
  405e84:	4b33      	ldr	r3, [pc, #204]	; (405f54 <ethernetif_init+0x1e4>)
  405e86:	60af      	str	r7, [r5, #8]
  405e88:	60ef      	str	r7, [r5, #12]
  405e8a:	616f      	str	r7, [r5, #20]
  405e8c:	632f      	str	r7, [r5, #48]	; 0x30
  405e8e:	636f      	str	r7, [r5, #52]	; 0x34
  405e90:	63af      	str	r7, [r5, #56]	; 0x38
  405e92:	4798      	blx	r3
  405e94:	f025 0303 	bic.w	r3, r5, #3
  405e98:	f04f 2280 	mov.w	r2, #2147516416	; 0x80008000
  405e9c:	4620      	mov	r0, r4
  405e9e:	61a3      	str	r3, [r4, #24]
  405ea0:	f241 230c 	movw	r3, #4620	; 0x120c
  405ea4:	626a      	str	r2, [r5, #36]	; 0x24
  405ea6:	50ef      	str	r7, [r5, r3]
  405ea8:	4b2b      	ldr	r3, [pc, #172]	; (405f58 <ethernetif_init+0x1e8>)
  405eaa:	61ea      	str	r2, [r5, #28]
  405eac:	61ab      	str	r3, [r5, #24]
  405eae:	f203 51ee 	addw	r1, r3, #1518	; 0x5ee
  405eb2:	f603 32dc 	addw	r2, r3, #3036	; 0xbdc
  405eb6:	3b24      	subs	r3, #36	; 0x24
  405eb8:	6229      	str	r1, [r5, #32]
  405eba:	2101      	movs	r1, #1
  405ebc:	62aa      	str	r2, [r5, #40]	; 0x28
  405ebe:	f023 0303 	bic.w	r3, r3, #3
  405ec2:	4a26      	ldr	r2, [pc, #152]	; (405f5c <ethernetif_init+0x1ec>)
  405ec4:	62ea      	str	r2, [r5, #44]	; 0x2c
  405ec6:	2280      	movs	r2, #128	; 0x80
  405ec8:	61e3      	str	r3, [r4, #28]
  405eca:	6823      	ldr	r3, [r4, #0]
  405ecc:	f043 0308 	orr.w	r3, r3, #8
  405ed0:	6023      	str	r3, [r4, #0]
  405ed2:	6823      	ldr	r3, [r4, #0]
  405ed4:	f043 0304 	orr.w	r3, r3, #4
  405ed8:	6023      	str	r3, [r4, #0]
  405eda:	6823      	ldr	r3, [r4, #0]
  405edc:	f043 0380 	orr.w	r3, r3, #128	; 0x80
  405ee0:	6023      	str	r3, [r4, #0]
  405ee2:	62a7      	str	r7, [r4, #40]	; 0x28
  405ee4:	f8d6 3027 	ldr.w	r3, [r6, #39]	; 0x27
  405ee8:	f8c4 3088 	str.w	r3, [r4, #136]	; 0x88
  405eec:	f8b6 302b 	ldrh.w	r3, [r6, #43]	; 0x2b
  405ef0:	f8c4 308c 	str.w	r3, [r4, #140]	; 0x8c
  405ef4:	4b1a      	ldr	r3, [pc, #104]	; (405f60 <ethernetif_init+0x1f0>)
  405ef6:	f883 7327 	strb.w	r7, [r3, #807]	; 0x327
  405efa:	605a      	str	r2, [r3, #4]
  405efc:	f102 620f 	add.w	r2, r2, #149946368	; 0x8f00000
  405f00:	4b18      	ldr	r3, [pc, #96]	; (405f64 <ethernetif_init+0x1f4>)
  405f02:	f502 4251 	add.w	r2, r2, #53504	; 0xd100
  405f06:	4798      	blx	r3
  405f08:	b980      	cbnz	r0, 405f2c <ethernetif_init+0x1bc>
  405f0a:	2101      	movs	r1, #1
  405f0c:	4620      	mov	r0, r4
  405f0e:	4b16      	ldr	r3, [pc, #88]	; (405f68 <ethernetif_init+0x1f8>)
  405f10:	4798      	blx	r3
  405f12:	b958      	cbnz	r0, 405f2c <ethernetif_init+0x1bc>
  405f14:	2201      	movs	r2, #1
  405f16:	4620      	mov	r0, r4
  405f18:	4b14      	ldr	r3, [pc, #80]	; (405f6c <ethernetif_init+0x1fc>)
  405f1a:	4611      	mov	r1, r2
  405f1c:	4798      	blx	r3
  405f1e:	b928      	cbnz	r0, 405f2c <ethernetif_init+0x1bc>
  405f20:	f896 302d 	ldrb.w	r3, [r6, #45]	; 0x2d
  405f24:	f043 0310 	orr.w	r3, r3, #16
  405f28:	f886 302d 	strb.w	r3, [r6, #45]	; 0x2d
  405f2c:	2000      	movs	r0, #0
  405f2e:	b003      	add	sp, #12
  405f30:	bdf0      	pop	{r4, r5, r6, r7, pc}
  405f32:	bf00      	nop
  405f34:	20402728 	.word	0x20402728
  405f38:	00405921 	.word	0x00405921
  405f3c:	00405c41 	.word	0x00405c41
  405f40:	01312d00 	.word	0x01312d00
  405f44:	00400d55 	.word	0x00400d55
  405f48:	40050000 	.word	0x40050000
  405f4c:	20403948 	.word	0x20403948
  405f50:	20403940 	.word	0x20403940
  405f54:	00405bf9 	.word	0x00405bf9
  405f58:	20402764 	.word	0x20402764
  405f5c:	c0008000 	.word	0xc0008000
  405f60:	e000e100 	.word	0xe000e100
  405f64:	004008fd 	.word	0x004008fd
  405f68:	00400779 	.word	0x00400779
  405f6c:	004006cd 	.word	0x004006cd

00405f70 <status_callback>:
  405f70:	b530      	push	{r4, r5, lr}
  405f72:	f890 302d 	ldrb.w	r3, [r0, #45]	; 0x2d
  405f76:	b087      	sub	sp, #28
  405f78:	4605      	mov	r5, r0
  405f7a:	4c0b      	ldr	r4, [pc, #44]	; (405fa8 <status_callback+0x38>)
  405f7c:	f013 0f01 	tst.w	r3, #1
  405f80:	d00f      	beq.n	405fa2 <status_callback+0x32>
  405f82:	490a      	ldr	r1, [pc, #40]	; (405fac <status_callback+0x3c>)
  405f84:	a801      	add	r0, sp, #4
  405f86:	4b0a      	ldr	r3, [pc, #40]	; (405fb0 <status_callback+0x40>)
  405f88:	4798      	blx	r3
  405f8a:	4b0a      	ldr	r3, [pc, #40]	; (405fb4 <status_callback+0x44>)
  405f8c:	1d28      	adds	r0, r5, #4
  405f8e:	4798      	blx	r3
  405f90:	4b09      	ldr	r3, [pc, #36]	; (405fb8 <status_callback+0x48>)
  405f92:	4601      	mov	r1, r0
  405f94:	a801      	add	r0, sp, #4
  405f96:	4798      	blx	r3
  405f98:	a901      	add	r1, sp, #4
  405f9a:	4808      	ldr	r0, [pc, #32]	; (405fbc <status_callback+0x4c>)
  405f9c:	47a0      	blx	r4
  405f9e:	b007      	add	sp, #28
  405fa0:	bd30      	pop	{r4, r5, pc}
  405fa2:	4807      	ldr	r0, [pc, #28]	; (405fc0 <status_callback+0x50>)
  405fa4:	47a0      	blx	r4
  405fa6:	e7fa      	b.n	405f9e <status_callback+0x2e>
  405fa8:	00406415 	.word	0x00406415
  405fac:	0040a142 	.word	0x0040a142
  405fb0:	004068f9 	.word	0x004068f9
  405fb4:	0040184d 	.word	0x0040184d
  405fb8:	004068b9 	.word	0x004068b9
  405fbc:	0040a146 	.word	0x0040a146
  405fc0:	0040a156 	.word	0x0040a156

00405fc4 <init_ethernet>:
  405fc4:	b530      	push	{r4, r5, lr}
  405fc6:	4b14      	ldr	r3, [pc, #80]	; (406018 <init_ethernet+0x54>)
  405fc8:	b089      	sub	sp, #36	; 0x24
  405fca:	4798      	blx	r3
  405fcc:	4b13      	ldr	r3, [pc, #76]	; (40601c <init_ethernet+0x58>)
  405fce:	4a14      	ldr	r2, [pc, #80]	; (406020 <init_ethernet+0x5c>)
  405fd0:	a905      	add	r1, sp, #20
  405fd2:	9305      	str	r3, [sp, #20]
  405fd4:	f06f 437e 	mvn.w	r3, #4261412864	; 0xfe000000
  405fd8:	4c12      	ldr	r4, [pc, #72]	; (406024 <init_ethernet+0x60>)
  405fda:	9306      	str	r3, [sp, #24]
  405fdc:	ab08      	add	r3, sp, #32
  405fde:	4620      	mov	r0, r4
  405fe0:	4d11      	ldr	r5, [pc, #68]	; (406028 <init_ethernet+0x64>)
  405fe2:	f843 2d04 	str.w	r2, [r3, #-4]!
  405fe6:	4a11      	ldr	r2, [pc, #68]	; (40602c <init_ethernet+0x68>)
  405fe8:	9202      	str	r2, [sp, #8]
  405fea:	4a11      	ldr	r2, [pc, #68]	; (406030 <init_ethernet+0x6c>)
  405fec:	9201      	str	r2, [sp, #4]
  405fee:	2200      	movs	r2, #0
  405ff0:	9200      	str	r2, [sp, #0]
  405ff2:	aa06      	add	r2, sp, #24
  405ff4:	47a8      	blx	r5
  405ff6:	4620      	mov	r0, r4
  405ff8:	4b0e      	ldr	r3, [pc, #56]	; (406034 <init_ethernet+0x70>)
  405ffa:	4798      	blx	r3
  405ffc:	490e      	ldr	r1, [pc, #56]	; (406038 <init_ethernet+0x74>)
  405ffe:	4620      	mov	r0, r4
  406000:	4b0e      	ldr	r3, [pc, #56]	; (40603c <init_ethernet+0x78>)
  406002:	4798      	blx	r3
  406004:	4620      	mov	r0, r4
  406006:	4b0e      	ldr	r3, [pc, #56]	; (406040 <init_ethernet+0x7c>)
  406008:	4798      	blx	r3
  40600a:	4b0e      	ldr	r3, [pc, #56]	; (406044 <init_ethernet+0x80>)
  40600c:	480e      	ldr	r0, [pc, #56]	; (406048 <init_ethernet+0x84>)
  40600e:	4798      	blx	r3
  406010:	4b0e      	ldr	r3, [pc, #56]	; (40604c <init_ethernet+0x88>)
  406012:	4798      	blx	r3
  406014:	b009      	add	sp, #36	; 0x24
  406016:	bd30      	pop	{r4, r5, pc}
  406018:	00401dbd 	.word	0x00401dbd
  40601c:	6401a8c0 	.word	0x6401a8c0
  406020:	fa01a8c0 	.word	0xfa01a8c0
  406024:	204049ec 	.word	0x204049ec
  406028:	004022a1 	.word	0x004022a1
  40602c:	00405a25 	.word	0x00405a25
  406030:	00405d71 	.word	0x00405d71
  406034:	004022f5 	.word	0x004022f5
  406038:	00405f71 	.word	0x00405f71
  40603c:	00402339 	.word	0x00402339
  406040:	00402301 	.word	0x00402301
  406044:	00406415 	.word	0x00406415
  406048:	0040a125 	.word	0x0040a125
  40604c:	004060d1 	.word	0x004060d1

00406050 <ethernet_task>:
  406050:	e92d 41f0 	stmdb	sp!, {r4, r5, r6, r7, r8, lr}
  406054:	4812      	ldr	r0, [pc, #72]	; (4060a0 <ethernet_task+0x50>)
  406056:	4b13      	ldr	r3, [pc, #76]	; (4060a4 <ethernet_task+0x54>)
  406058:	4798      	blx	r3
  40605a:	4b13      	ldr	r3, [pc, #76]	; (4060a8 <ethernet_task+0x58>)
  40605c:	4798      	blx	r3
  40605e:	4b13      	ldr	r3, [pc, #76]	; (4060ac <ethernet_task+0x5c>)
  406060:	681c      	ldr	r4, [r3, #0]
  406062:	42a0      	cmp	r0, r4
  406064:	bf36      	itet	cc
  406066:	43e4      	mvncc	r4, r4
  406068:	1b04      	subcs	r4, r0, r4
  40606a:	1824      	addcc	r4, r4, r0
  40606c:	b1b4      	cbz	r4, 40609c <ethernet_task+0x4c>
  40606e:	4e10      	ldr	r6, [pc, #64]	; (4060b0 <ethernet_task+0x60>)
  406070:	2500      	movs	r5, #0
  406072:	6018      	str	r0, [r3, #0]
  406074:	46b0      	mov	r8, r6
  406076:	59ab      	ldr	r3, [r5, r6]
  406078:	1977      	adds	r7, r6, r5
  40607a:	4423      	add	r3, r4
  40607c:	51ab      	str	r3, [r5, r6]
  40607e:	687a      	ldr	r2, [r7, #4]
  406080:	4293      	cmp	r3, r2
  406082:	d908      	bls.n	406096 <ethernet_task+0x46>
  406084:	68bb      	ldr	r3, [r7, #8]
  406086:	b103      	cbz	r3, 40608a <ethernet_task+0x3a>
  406088:	4798      	blx	r3
  40608a:	f858 3005 	ldr.w	r3, [r8, r5]
  40608e:	687a      	ldr	r2, [r7, #4]
  406090:	1a9b      	subs	r3, r3, r2
  406092:	f848 3005 	str.w	r3, [r8, r5]
  406096:	350c      	adds	r5, #12
  406098:	2d24      	cmp	r5, #36	; 0x24
  40609a:	d1ec      	bne.n	406076 <ethernet_task+0x26>
  40609c:	e8bd 81f0 	ldmia.w	sp!, {r4, r5, r6, r7, r8, pc}
  4060a0:	204049ec 	.word	0x204049ec
  4060a4:	00405cd1 	.word	0x00405cd1
  4060a8:	0040615d 	.word	0x0040615d
  4060ac:	20403950 	.word	0x20403950
  4060b0:	20400010 	.word	0x20400010

004060b4 <TC0_Handler>:
  4060b4:	4b04      	ldr	r3, [pc, #16]	; (4060c8 <TC0_Handler+0x14>)
  4060b6:	b082      	sub	sp, #8
  4060b8:	4a04      	ldr	r2, [pc, #16]	; (4060cc <TC0_Handler+0x18>)
  4060ba:	6a1b      	ldr	r3, [r3, #32]
  4060bc:	9301      	str	r3, [sp, #4]
  4060be:	6813      	ldr	r3, [r2, #0]
  4060c0:	3301      	adds	r3, #1
  4060c2:	6013      	str	r3, [r2, #0]
  4060c4:	b002      	add	sp, #8
  4060c6:	4770      	bx	lr
  4060c8:	4000c000 	.word	0x4000c000
  4060cc:	20403954 	.word	0x20403954

004060d0 <sys_init_timing>:
  4060d0:	b57f      	push	{r0, r1, r2, r3, r4, r5, r6, lr}
  4060d2:	2400      	movs	r4, #0
  4060d4:	4b17      	ldr	r3, [pc, #92]	; (406134 <sys_init_timing+0x64>)
  4060d6:	4d18      	ldr	r5, [pc, #96]	; (406138 <sys_init_timing+0x68>)
  4060d8:	2017      	movs	r0, #23
  4060da:	601c      	str	r4, [r3, #0]
  4060dc:	4b17      	ldr	r3, [pc, #92]	; (40613c <sys_init_timing+0x6c>)
  4060de:	4798      	blx	r3
  4060e0:	4e17      	ldr	r6, [pc, #92]	; (406140 <sys_init_timing+0x70>)
  4060e2:	9500      	str	r5, [sp, #0]
  4060e4:	ab03      	add	r3, sp, #12
  4060e6:	aa02      	add	r2, sp, #8
  4060e8:	4629      	mov	r1, r5
  4060ea:	f44f 707a 	mov.w	r0, #1000	; 0x3e8
  4060ee:	47b0      	blx	r6
  4060f0:	4e14      	ldr	r6, [pc, #80]	; (406144 <sys_init_timing+0x74>)
  4060f2:	9a03      	ldr	r2, [sp, #12]
  4060f4:	4621      	mov	r1, r4
  4060f6:	4630      	mov	r0, r6
  4060f8:	4b13      	ldr	r3, [pc, #76]	; (406148 <sys_init_timing+0x78>)
  4060fa:	f442 4280 	orr.w	r2, r2, #16384	; 0x4000
  4060fe:	4798      	blx	r3
  406100:	9a02      	ldr	r2, [sp, #8]
  406102:	4621      	mov	r1, r4
  406104:	4630      	mov	r0, r6
  406106:	4b11      	ldr	r3, [pc, #68]	; (40614c <sys_init_timing+0x7c>)
  406108:	fbb5 f5f2 	udiv	r5, r5, r2
  40610c:	f44f 727a 	mov.w	r2, #1000	; 0x3e8
  406110:	fbb5 f2f2 	udiv	r2, r5, r2
  406114:	4798      	blx	r3
  406116:	f44f 0200 	mov.w	r2, #8388608	; 0x800000
  40611a:	4b0d      	ldr	r3, [pc, #52]	; (406150 <sys_init_timing+0x80>)
  40611c:	4621      	mov	r1, r4
  40611e:	4630      	mov	r0, r6
  406120:	601a      	str	r2, [r3, #0]
  406122:	2210      	movs	r2, #16
  406124:	4b0b      	ldr	r3, [pc, #44]	; (406154 <sys_init_timing+0x84>)
  406126:	4798      	blx	r3
  406128:	4621      	mov	r1, r4
  40612a:	4630      	mov	r0, r6
  40612c:	4b0a      	ldr	r3, [pc, #40]	; (406158 <sys_init_timing+0x88>)
  40612e:	4798      	blx	r3
  406130:	b004      	add	sp, #16
  406132:	bd70      	pop	{r4, r5, r6, pc}
  406134:	20403954 	.word	0x20403954
  406138:	11e1a300 	.word	0x11e1a300
  40613c:	00400d55 	.word	0x00400d55
  406140:	00400da3 	.word	0x00400da3
  406144:	4000c000 	.word	0x4000c000
  406148:	00400d75 	.word	0x00400d75
  40614c:	00400d93 	.word	0x00400d93
  406150:	e000e100 	.word	0xe000e100
  406154:	00400d9b 	.word	0x00400d9b
  406158:	00400d8b 	.word	0x00400d8b

0040615c <sys_get_ms>:
  40615c:	4b01      	ldr	r3, [pc, #4]	; (406164 <sys_get_ms+0x8>)
  40615e:	6818      	ldr	r0, [r3, #0]
  406160:	4770      	bx	lr
  406162:	bf00      	nop
  406164:	20403954 	.word	0x20403954

00406168 <sys_now>:
  406168:	4b01      	ldr	r3, [pc, #4]	; (406170 <sys_now+0x8>)
  40616a:	6818      	ldr	r0, [r3, #0]
  40616c:	4770      	bx	lr
  40616e:	bf00      	nop
  406170:	20403954 	.word	0x20403954

00406174 <usart_serial_getchar>:
  406174:	2300      	movs	r3, #0
  406176:	b5f7      	push	{r0, r1, r2, r4, r5, r6, r7, lr}
  406178:	9301      	str	r3, [sp, #4]
  40617a:	4604      	mov	r4, r0
  40617c:	4b25      	ldr	r3, [pc, #148]	; (406214 <usart_serial_getchar+0xa0>)
  40617e:	460d      	mov	r5, r1
  406180:	4298      	cmp	r0, r3
  406182:	d110      	bne.n	4061a6 <usart_serial_getchar+0x32>
  406184:	4607      	mov	r7, r0
  406186:	4e24      	ldr	r6, [pc, #144]	; (406218 <usart_serial_getchar+0xa4>)
  406188:	4629      	mov	r1, r5
  40618a:	4638      	mov	r0, r7
  40618c:	47b0      	blx	r6
  40618e:	2800      	cmp	r0, #0
  406190:	d1fa      	bne.n	406188 <usart_serial_getchar+0x14>
  406192:	4b22      	ldr	r3, [pc, #136]	; (40621c <usart_serial_getchar+0xa8>)
  406194:	429c      	cmp	r4, r3
  406196:	d11b      	bne.n	4061d0 <usart_serial_getchar+0x5c>
  406198:	4e21      	ldr	r6, [pc, #132]	; (406220 <usart_serial_getchar+0xac>)
  40619a:	a901      	add	r1, sp, #4
  40619c:	4620      	mov	r0, r4
  40619e:	47b0      	blx	r6
  4061a0:	2800      	cmp	r0, #0
  4061a2:	d1fa      	bne.n	40619a <usart_serial_getchar+0x26>
  4061a4:	e032      	b.n	40620c <usart_serial_getchar+0x98>
  4061a6:	4b1f      	ldr	r3, [pc, #124]	; (406224 <usart_serial_getchar+0xb0>)
  4061a8:	4298      	cmp	r0, r3
  4061aa:	d107      	bne.n	4061bc <usart_serial_getchar+0x48>
  4061ac:	4607      	mov	r7, r0
  4061ae:	4e1a      	ldr	r6, [pc, #104]	; (406218 <usart_serial_getchar+0xa4>)
  4061b0:	4629      	mov	r1, r5
  4061b2:	4638      	mov	r0, r7
  4061b4:	47b0      	blx	r6
  4061b6:	2800      	cmp	r0, #0
  4061b8:	d1fa      	bne.n	4061b0 <usart_serial_getchar+0x3c>
  4061ba:	e7ea      	b.n	406192 <usart_serial_getchar+0x1e>
  4061bc:	4b1a      	ldr	r3, [pc, #104]	; (406228 <usart_serial_getchar+0xb4>)
  4061be:	4298      	cmp	r0, r3
  4061c0:	d110      	bne.n	4061e4 <usart_serial_getchar+0x70>
  4061c2:	4607      	mov	r7, r0
  4061c4:	4e14      	ldr	r6, [pc, #80]	; (406218 <usart_serial_getchar+0xa4>)
  4061c6:	4629      	mov	r1, r5
  4061c8:	4638      	mov	r0, r7
  4061ca:	47b0      	blx	r6
  4061cc:	2800      	cmp	r0, #0
  4061ce:	d1fa      	bne.n	4061c6 <usart_serial_getchar+0x52>
  4061d0:	4b16      	ldr	r3, [pc, #88]	; (40622c <usart_serial_getchar+0xb8>)
  4061d2:	429c      	cmp	r4, r3
  4061d4:	d10f      	bne.n	4061f6 <usart_serial_getchar+0x82>
  4061d6:	4e12      	ldr	r6, [pc, #72]	; (406220 <usart_serial_getchar+0xac>)
  4061d8:	a901      	add	r1, sp, #4
  4061da:	4620      	mov	r0, r4
  4061dc:	47b0      	blx	r6
  4061de:	2800      	cmp	r0, #0
  4061e0:	d1fa      	bne.n	4061d8 <usart_serial_getchar+0x64>
  4061e2:	e013      	b.n	40620c <usart_serial_getchar+0x98>
  4061e4:	4b12      	ldr	r3, [pc, #72]	; (406230 <usart_serial_getchar+0xbc>)
  4061e6:	4298      	cmp	r0, r3
  4061e8:	d107      	bne.n	4061fa <usart_serial_getchar+0x86>
  4061ea:	4e0b      	ldr	r6, [pc, #44]	; (406218 <usart_serial_getchar+0xa4>)
  4061ec:	4629      	mov	r1, r5
  4061ee:	4620      	mov	r0, r4
  4061f0:	47b0      	blx	r6
  4061f2:	2800      	cmp	r0, #0
  4061f4:	d1fa      	bne.n	4061ec <usart_serial_getchar+0x78>
  4061f6:	b003      	add	sp, #12
  4061f8:	bdf0      	pop	{r4, r5, r6, r7, pc}
  4061fa:	4b0e      	ldr	r3, [pc, #56]	; (406234 <usart_serial_getchar+0xc0>)
  4061fc:	4298      	cmp	r0, r3
  4061fe:	d1c8      	bne.n	406192 <usart_serial_getchar+0x1e>
  406200:	4e07      	ldr	r6, [pc, #28]	; (406220 <usart_serial_getchar+0xac>)
  406202:	a901      	add	r1, sp, #4
  406204:	4620      	mov	r0, r4
  406206:	47b0      	blx	r6
  406208:	2800      	cmp	r0, #0
  40620a:	d1fa      	bne.n	406202 <usart_serial_getchar+0x8e>
  40620c:	9b01      	ldr	r3, [sp, #4]
  40620e:	702b      	strb	r3, [r5, #0]
  406210:	e7f1      	b.n	4061f6 <usart_serial_getchar+0x82>
  406212:	bf00      	nop
  406214:	400e0800 	.word	0x400e0800
  406218:	00400dfd 	.word	0x00400dfd
  40621c:	40028000 	.word	0x40028000
  406220:	00400edd 	.word	0x00400edd
  406224:	400e0a00 	.word	0x400e0a00
  406228:	400e1a00 	.word	0x400e1a00
  40622c:	4002c000 	.word	0x4002c000
  406230:	400e1c00 	.word	0x400e1c00
  406234:	40024000 	.word	0x40024000

00406238 <usart_serial_putchar>:
  406238:	4b25      	ldr	r3, [pc, #148]	; (4062d0 <usart_serial_putchar+0x98>)
  40623a:	4298      	cmp	r0, r3
  40623c:	b570      	push	{r4, r5, r6, lr}
  40623e:	4604      	mov	r4, r0
  406240:	460d      	mov	r5, r1
  406242:	d107      	bne.n	406254 <usart_serial_putchar+0x1c>
  406244:	4e23      	ldr	r6, [pc, #140]	; (4062d4 <usart_serial_putchar+0x9c>)
  406246:	4629      	mov	r1, r5
  406248:	4620      	mov	r0, r4
  40624a:	47b0      	blx	r6
  40624c:	2800      	cmp	r0, #0
  40624e:	d1fa      	bne.n	406246 <usart_serial_putchar+0xe>
  406250:	2001      	movs	r0, #1
  406252:	bd70      	pop	{r4, r5, r6, pc}
  406254:	4b20      	ldr	r3, [pc, #128]	; (4062d8 <usart_serial_putchar+0xa0>)
  406256:	4298      	cmp	r0, r3
  406258:	d106      	bne.n	406268 <usart_serial_putchar+0x30>
  40625a:	4e1e      	ldr	r6, [pc, #120]	; (4062d4 <usart_serial_putchar+0x9c>)
  40625c:	4629      	mov	r1, r5
  40625e:	4620      	mov	r0, r4
  406260:	47b0      	blx	r6
  406262:	2800      	cmp	r0, #0
  406264:	d1fa      	bne.n	40625c <usart_serial_putchar+0x24>
  406266:	e7f3      	b.n	406250 <usart_serial_putchar+0x18>
  406268:	4b1c      	ldr	r3, [pc, #112]	; (4062dc <usart_serial_putchar+0xa4>)
  40626a:	4298      	cmp	r0, r3
  40626c:	d106      	bne.n	40627c <usart_serial_putchar+0x44>
  40626e:	4e19      	ldr	r6, [pc, #100]	; (4062d4 <usart_serial_putchar+0x9c>)
  406270:	4629      	mov	r1, r5
  406272:	4620      	mov	r0, r4
  406274:	47b0      	blx	r6
  406276:	2800      	cmp	r0, #0
  406278:	d1fa      	bne.n	406270 <usart_serial_putchar+0x38>
  40627a:	e7e9      	b.n	406250 <usart_serial_putchar+0x18>
  40627c:	4b18      	ldr	r3, [pc, #96]	; (4062e0 <usart_serial_putchar+0xa8>)
  40627e:	4298      	cmp	r0, r3
  406280:	d106      	bne.n	406290 <usart_serial_putchar+0x58>
  406282:	4e14      	ldr	r6, [pc, #80]	; (4062d4 <usart_serial_putchar+0x9c>)
  406284:	4629      	mov	r1, r5
  406286:	4620      	mov	r0, r4
  406288:	47b0      	blx	r6
  40628a:	2800      	cmp	r0, #0
  40628c:	d1fa      	bne.n	406284 <usart_serial_putchar+0x4c>
  40628e:	e7df      	b.n	406250 <usart_serial_putchar+0x18>
  406290:	4b14      	ldr	r3, [pc, #80]	; (4062e4 <usart_serial_putchar+0xac>)
  406292:	4298      	cmp	r0, r3
  406294:	d106      	bne.n	4062a4 <usart_serial_putchar+0x6c>
  406296:	4e14      	ldr	r6, [pc, #80]	; (4062e8 <usart_serial_putchar+0xb0>)
  406298:	4629      	mov	r1, r5
  40629a:	4620      	mov	r0, r4
  40629c:	47b0      	blx	r6
  40629e:	2800      	cmp	r0, #0
  4062a0:	d1fa      	bne.n	406298 <usart_serial_putchar+0x60>
  4062a2:	e7d5      	b.n	406250 <usart_serial_putchar+0x18>
  4062a4:	4b11      	ldr	r3, [pc, #68]	; (4062ec <usart_serial_putchar+0xb4>)
  4062a6:	4298      	cmp	r0, r3
  4062a8:	d106      	bne.n	4062b8 <usart_serial_putchar+0x80>
  4062aa:	4e0f      	ldr	r6, [pc, #60]	; (4062e8 <usart_serial_putchar+0xb0>)
  4062ac:	4629      	mov	r1, r5
  4062ae:	4620      	mov	r0, r4
  4062b0:	47b0      	blx	r6
  4062b2:	2800      	cmp	r0, #0
  4062b4:	d1fa      	bne.n	4062ac <usart_serial_putchar+0x74>
  4062b6:	e7cb      	b.n	406250 <usart_serial_putchar+0x18>
  4062b8:	4b0d      	ldr	r3, [pc, #52]	; (4062f0 <usart_serial_putchar+0xb8>)
  4062ba:	4298      	cmp	r0, r3
  4062bc:	d106      	bne.n	4062cc <usart_serial_putchar+0x94>
  4062be:	4e0a      	ldr	r6, [pc, #40]	; (4062e8 <usart_serial_putchar+0xb0>)
  4062c0:	4629      	mov	r1, r5
  4062c2:	4620      	mov	r0, r4
  4062c4:	47b0      	blx	r6
  4062c6:	2800      	cmp	r0, #0
  4062c8:	d1fa      	bne.n	4062c0 <usart_serial_putchar+0x88>
  4062ca:	e7c1      	b.n	406250 <usart_serial_putchar+0x18>
  4062cc:	2000      	movs	r0, #0
  4062ce:	bd70      	pop	{r4, r5, r6, pc}
  4062d0:	400e0800 	.word	0x400e0800
  4062d4:	00400ded 	.word	0x00400ded
  4062d8:	400e0a00 	.word	0x400e0a00
  4062dc:	400e1a00 	.word	0x400e1a00
  4062e0:	400e1c00 	.word	0x400e1c00
  4062e4:	40024000 	.word	0x40024000
  4062e8:	00400ec9 	.word	0x00400ec9
  4062ec:	40028000 	.word	0x40028000
  4062f0:	4002c000 	.word	0x4002c000

004062f4 <main>:
  4062f4:	b57f      	push	{r0, r1, r2, r3, r4, r5, r6, lr}
  4062f6:	4b1f      	ldr	r3, [pc, #124]	; (406374 <main+0x80>)
  4062f8:	2400      	movs	r4, #0
  4062fa:	4798      	blx	r3
  4062fc:	4b1e      	ldr	r3, [pc, #120]	; (406378 <main+0x84>)
  4062fe:	4798      	blx	r3
  406300:	4e1e      	ldr	r6, [pc, #120]	; (40637c <main+0x88>)
  406302:	200e      	movs	r0, #14
  406304:	4d1e      	ldr	r5, [pc, #120]	; (406380 <main+0x8c>)
  406306:	47b0      	blx	r6
  406308:	4b1e      	ldr	r3, [pc, #120]	; (406384 <main+0x90>)
  40630a:	4a1f      	ldr	r2, [pc, #124]	; (406388 <main+0x94>)
  40630c:	f44f 31e1 	mov.w	r1, #115200	; 0x1c200
  406310:	601d      	str	r5, [r3, #0]
  406312:	200e      	movs	r0, #14
  406314:	4b1d      	ldr	r3, [pc, #116]	; (40638c <main+0x98>)
  406316:	9404      	str	r4, [sp, #16]
  406318:	601a      	str	r2, [r3, #0]
  40631a:	4a1d      	ldr	r2, [pc, #116]	; (406390 <main+0x9c>)
  40631c:	4b1d      	ldr	r3, [pc, #116]	; (406394 <main+0xa0>)
  40631e:	601a      	str	r2, [r3, #0]
  406320:	22c0      	movs	r2, #192	; 0xc0
  406322:	f44f 6300 	mov.w	r3, #2048	; 0x800
  406326:	e88d 001e 	stmia.w	sp, {r1, r2, r3, r4}
  40632a:	47b0      	blx	r6
  40632c:	4a1a      	ldr	r2, [pc, #104]	; (406398 <main+0xa4>)
  40632e:	4669      	mov	r1, sp
  406330:	4628      	mov	r0, r5
  406332:	4b1a      	ldr	r3, [pc, #104]	; (40639c <main+0xa8>)
  406334:	4798      	blx	r3
  406336:	4e1a      	ldr	r6, [pc, #104]	; (4063a0 <main+0xac>)
  406338:	4628      	mov	r0, r5
  40633a:	4b1a      	ldr	r3, [pc, #104]	; (4063a4 <main+0xb0>)
  40633c:	4798      	blx	r3
  40633e:	4628      	mov	r0, r5
  406340:	4b19      	ldr	r3, [pc, #100]	; (4063a8 <main+0xb4>)
  406342:	4798      	blx	r3
  406344:	6833      	ldr	r3, [r6, #0]
  406346:	4621      	mov	r1, r4
  406348:	4d18      	ldr	r5, [pc, #96]	; (4063ac <main+0xb8>)
  40634a:	6898      	ldr	r0, [r3, #8]
  40634c:	47a8      	blx	r5
  40634e:	6833      	ldr	r3, [r6, #0]
  406350:	4621      	mov	r1, r4
  406352:	6858      	ldr	r0, [r3, #4]
  406354:	47a8      	blx	r5
  406356:	6833      	ldr	r3, [r6, #0]
  406358:	4621      	mov	r1, r4
  40635a:	4c15      	ldr	r4, [pc, #84]	; (4063b0 <main+0xbc>)
  40635c:	6898      	ldr	r0, [r3, #8]
  40635e:	47a8      	blx	r5
  406360:	4b14      	ldr	r3, [pc, #80]	; (4063b4 <main+0xc0>)
  406362:	4815      	ldr	r0, [pc, #84]	; (4063b8 <main+0xc4>)
  406364:	4798      	blx	r3
  406366:	4b15      	ldr	r3, [pc, #84]	; (4063bc <main+0xc8>)
  406368:	4798      	blx	r3
  40636a:	4b15      	ldr	r3, [pc, #84]	; (4063c0 <main+0xcc>)
  40636c:	4798      	blx	r3
  40636e:	47a0      	blx	r4
  406370:	e7fd      	b.n	40636e <main+0x7a>
  406372:	bf00      	nop
  406374:	00400489 	.word	0x00400489
  406378:	004005f1 	.word	0x004005f1
  40637c:	00400d55 	.word	0x00400d55
  406380:	40028000 	.word	0x40028000
  406384:	20403994 	.word	0x20403994
  406388:	00406239 	.word	0x00406239
  40638c:	20403990 	.word	0x20403990
  406390:	00406175 	.word	0x00406175
  406394:	2040398c 	.word	0x2040398c
  406398:	047868c0 	.word	0x047868c0
  40639c:	00400e79 	.word	0x00400e79
  4063a0:	20400034 	.word	0x20400034
  4063a4:	00400ebd 	.word	0x00400ebd
  4063a8:	00400ec3 	.word	0x00400ec3
  4063ac:	00406719 	.word	0x00406719
  4063b0:	00406051 	.word	0x00406051
  4063b4:	00406709 	.word	0x00406709
  4063b8:	0040a165 	.word	0x0040a165
  4063bc:	00405fc5 	.word	0x00405fc5
  4063c0:	00400251 	.word	0x00400251

004063c4 <__libc_init_array>:
  4063c4:	b570      	push	{r4, r5, r6, lr}
  4063c6:	4e0f      	ldr	r6, [pc, #60]	; (406404 <__libc_init_array+0x40>)
  4063c8:	4d0f      	ldr	r5, [pc, #60]	; (406408 <__libc_init_array+0x44>)
  4063ca:	1b76      	subs	r6, r6, r5
  4063cc:	10b6      	asrs	r6, r6, #2
  4063ce:	bf18      	it	ne
  4063d0:	2400      	movne	r4, #0
  4063d2:	d005      	beq.n	4063e0 <__libc_init_array+0x1c>
  4063d4:	3401      	adds	r4, #1
  4063d6:	f855 3b04 	ldr.w	r3, [r5], #4
  4063da:	4798      	blx	r3
  4063dc:	42a6      	cmp	r6, r4
  4063de:	d1f9      	bne.n	4063d4 <__libc_init_array+0x10>
  4063e0:	4e0a      	ldr	r6, [pc, #40]	; (40640c <__libc_init_array+0x48>)
  4063e2:	4d0b      	ldr	r5, [pc, #44]	; (406410 <__libc_init_array+0x4c>)
  4063e4:	1b76      	subs	r6, r6, r5
  4063e6:	f003 ffa1 	bl	40a32c <_init>
  4063ea:	10b6      	asrs	r6, r6, #2
  4063ec:	bf18      	it	ne
  4063ee:	2400      	movne	r4, #0
  4063f0:	d006      	beq.n	406400 <__libc_init_array+0x3c>
  4063f2:	3401      	adds	r4, #1
  4063f4:	f855 3b04 	ldr.w	r3, [r5], #4
  4063f8:	4798      	blx	r3
  4063fa:	42a6      	cmp	r6, r4
  4063fc:	d1f9      	bne.n	4063f2 <__libc_init_array+0x2e>
  4063fe:	bd70      	pop	{r4, r5, r6, pc}
  406400:	bd70      	pop	{r4, r5, r6, pc}
  406402:	bf00      	nop
  406404:	0040a338 	.word	0x0040a338
  406408:	0040a338 	.word	0x0040a338
  40640c:	0040a340 	.word	0x0040a340
  406410:	0040a338 	.word	0x0040a338

00406414 <iprintf>:
  406414:	b40f      	push	{r0, r1, r2, r3}
  406416:	b500      	push	{lr}
  406418:	4907      	ldr	r1, [pc, #28]	; (406438 <iprintf+0x24>)
  40641a:	b083      	sub	sp, #12
  40641c:	ab04      	add	r3, sp, #16
  40641e:	6808      	ldr	r0, [r1, #0]
  406420:	f853 2b04 	ldr.w	r2, [r3], #4
  406424:	6881      	ldr	r1, [r0, #8]
  406426:	9301      	str	r3, [sp, #4]
  406428:	f000 fb78 	bl	406b1c <_vfiprintf_r>
  40642c:	b003      	add	sp, #12
  40642e:	f85d eb04 	ldr.w	lr, [sp], #4
  406432:	b004      	add	sp, #16
  406434:	4770      	bx	lr
  406436:	bf00      	nop
  406438:	20400034 	.word	0x20400034

0040643c <memcmp>:
  40643c:	2a03      	cmp	r2, #3
  40643e:	b470      	push	{r4, r5, r6}
  406440:	d922      	bls.n	406488 <memcmp+0x4c>
  406442:	ea40 0301 	orr.w	r3, r0, r1
  406446:	079b      	lsls	r3, r3, #30
  406448:	d011      	beq.n	40646e <memcmp+0x32>
  40644a:	7803      	ldrb	r3, [r0, #0]
  40644c:	780c      	ldrb	r4, [r1, #0]
  40644e:	42a3      	cmp	r3, r4
  406450:	d11d      	bne.n	40648e <memcmp+0x52>
  406452:	440a      	add	r2, r1
  406454:	3101      	adds	r1, #1
  406456:	e005      	b.n	406464 <memcmp+0x28>
  406458:	f810 3f01 	ldrb.w	r3, [r0, #1]!
  40645c:	f811 4b01 	ldrb.w	r4, [r1], #1
  406460:	42a3      	cmp	r3, r4
  406462:	d114      	bne.n	40648e <memcmp+0x52>
  406464:	4291      	cmp	r1, r2
  406466:	d1f7      	bne.n	406458 <memcmp+0x1c>
  406468:	2000      	movs	r0, #0
  40646a:	bc70      	pop	{r4, r5, r6}
  40646c:	4770      	bx	lr
  40646e:	680d      	ldr	r5, [r1, #0]
  406470:	6806      	ldr	r6, [r0, #0]
  406472:	42ae      	cmp	r6, r5
  406474:	460c      	mov	r4, r1
  406476:	4603      	mov	r3, r0
  406478:	f101 0104 	add.w	r1, r1, #4
  40647c:	f100 0004 	add.w	r0, r0, #4
  406480:	d108      	bne.n	406494 <memcmp+0x58>
  406482:	3a04      	subs	r2, #4
  406484:	2a03      	cmp	r2, #3
  406486:	d8f2      	bhi.n	40646e <memcmp+0x32>
  406488:	2a00      	cmp	r2, #0
  40648a:	d1de      	bne.n	40644a <memcmp+0xe>
  40648c:	e7ec      	b.n	406468 <memcmp+0x2c>
  40648e:	1b18      	subs	r0, r3, r4
  406490:	bc70      	pop	{r4, r5, r6}
  406492:	4770      	bx	lr
  406494:	4621      	mov	r1, r4
  406496:	4618      	mov	r0, r3
  406498:	e7d7      	b.n	40644a <memcmp+0xe>
  40649a:	bf00      	nop

0040649c <memcpy>:
  40649c:	4684      	mov	ip, r0
  40649e:	ea41 0300 	orr.w	r3, r1, r0
  4064a2:	f013 0303 	ands.w	r3, r3, #3
  4064a6:	d16d      	bne.n	406584 <memcpy+0xe8>
  4064a8:	3a40      	subs	r2, #64	; 0x40
  4064aa:	d341      	bcc.n	406530 <memcpy+0x94>
  4064ac:	f851 3b04 	ldr.w	r3, [r1], #4
  4064b0:	f840 3b04 	str.w	r3, [r0], #4
  4064b4:	f851 3b04 	ldr.w	r3, [r1], #4
  4064b8:	f840 3b04 	str.w	r3, [r0], #4
  4064bc:	f851 3b04 	ldr.w	r3, [r1], #4
  4064c0:	f840 3b04 	str.w	r3, [r0], #4
  4064c4:	f851 3b04 	ldr.w	r3, [r1], #4
  4064c8:	f840 3b04 	str.w	r3, [r0], #4
  4064cc:	f851 3b04 	ldr.w	r3, [r1], #4
  4064d0:	f840 3b04 	str.w	r3, [r0], #4
  4064d4:	f851 3b04 	ldr.w	r3, [r1], #4
  4064d8:	f840 3b04 	str.w	r3, [r0], #4
  4064dc:	f851 3b04 	ldr.w	r3, [r1], #4
  4064e0:	f840 3b04 	str.w	r3, [r0], #4
  4064e4:	f851 3b04 	ldr.w	r3, [r1], #4
  4064e8:	f840 3b04 	str.w	r3, [r0], #4
  4064ec:	f851 3b04 	ldr.w	r3, [r1], #4
  4064f0:	f840 3b04 	str.w	r3, [r0], #4
  4064f4:	f851 3b04 	ldr.w	r3, [r1], #4
  4064f8:	f840 3b04 	str.w	r3, [r0], #4
  4064fc:	f851 3b04 	ldr.w	r3, [r1], #4
  406500:	f840 3b04 	str.w	r3, [r0], #4
  406504:	f851 3b04 	ldr.w	r3, [r1], #4
  406508:	f840 3b04 	str.w	r3, [r0], #4
  40650c:	f851 3b04 	ldr.w	r3, [r1], #4
  406510:	f840 3b04 	str.w	r3, [r0], #4
  406514:	f851 3b04 	ldr.w	r3, [r1], #4
  406518:	f840 3b04 	str.w	r3, [r0], #4
  40651c:	f851 3b04 	ldr.w	r3, [r1], #4
  406520:	f840 3b04 	str.w	r3, [r0], #4
  406524:	f851 3b04 	ldr.w	r3, [r1], #4
  406528:	f840 3b04 	str.w	r3, [r0], #4
  40652c:	3a40      	subs	r2, #64	; 0x40
  40652e:	d2bd      	bcs.n	4064ac <memcpy+0x10>
  406530:	3230      	adds	r2, #48	; 0x30
  406532:	d311      	bcc.n	406558 <memcpy+0xbc>
  406534:	f851 3b04 	ldr.w	r3, [r1], #4
  406538:	f840 3b04 	str.w	r3, [r0], #4
  40653c:	f851 3b04 	ldr.w	r3, [r1], #4
  406540:	f840 3b04 	str.w	r3, [r0], #4
  406544:	f851 3b04 	ldr.w	r3, [r1], #4
  406548:	f840 3b04 	str.w	r3, [r0], #4
  40654c:	f851 3b04 	ldr.w	r3, [r1], #4
  406550:	f840 3b04 	str.w	r3, [r0], #4
  406554:	3a10      	subs	r2, #16
  406556:	d2ed      	bcs.n	406534 <memcpy+0x98>
  406558:	320c      	adds	r2, #12
  40655a:	d305      	bcc.n	406568 <memcpy+0xcc>
  40655c:	f851 3b04 	ldr.w	r3, [r1], #4
  406560:	f840 3b04 	str.w	r3, [r0], #4
  406564:	3a04      	subs	r2, #4
  406566:	d2f9      	bcs.n	40655c <memcpy+0xc0>
  406568:	3204      	adds	r2, #4
  40656a:	d008      	beq.n	40657e <memcpy+0xe2>
  40656c:	07d2      	lsls	r2, r2, #31
  40656e:	bf1c      	itt	ne
  406570:	f811 3b01 	ldrbne.w	r3, [r1], #1
  406574:	f800 3b01 	strbne.w	r3, [r0], #1
  406578:	d301      	bcc.n	40657e <memcpy+0xe2>
  40657a:	880b      	ldrh	r3, [r1, #0]
  40657c:	8003      	strh	r3, [r0, #0]
  40657e:	4660      	mov	r0, ip
  406580:	4770      	bx	lr
  406582:	bf00      	nop
  406584:	2a08      	cmp	r2, #8
  406586:	d313      	bcc.n	4065b0 <memcpy+0x114>
  406588:	078b      	lsls	r3, r1, #30
  40658a:	d08d      	beq.n	4064a8 <memcpy+0xc>
  40658c:	f010 0303 	ands.w	r3, r0, #3
  406590:	d08a      	beq.n	4064a8 <memcpy+0xc>
  406592:	f1c3 0304 	rsb	r3, r3, #4
  406596:	1ad2      	subs	r2, r2, r3
  406598:	07db      	lsls	r3, r3, #31
  40659a:	bf1c      	itt	ne
  40659c:	f811 3b01 	ldrbne.w	r3, [r1], #1
  4065a0:	f800 3b01 	strbne.w	r3, [r0], #1
  4065a4:	d380      	bcc.n	4064a8 <memcpy+0xc>
  4065a6:	f831 3b02 	ldrh.w	r3, [r1], #2
  4065aa:	f820 3b02 	strh.w	r3, [r0], #2
  4065ae:	e77b      	b.n	4064a8 <memcpy+0xc>
  4065b0:	3a04      	subs	r2, #4
  4065b2:	d3d9      	bcc.n	406568 <memcpy+0xcc>
  4065b4:	3a01      	subs	r2, #1
  4065b6:	f811 3b01 	ldrb.w	r3, [r1], #1
  4065ba:	f800 3b01 	strb.w	r3, [r0], #1
  4065be:	d2f9      	bcs.n	4065b4 <memcpy+0x118>
  4065c0:	780b      	ldrb	r3, [r1, #0]
  4065c2:	7003      	strb	r3, [r0, #0]
  4065c4:	784b      	ldrb	r3, [r1, #1]
  4065c6:	7043      	strb	r3, [r0, #1]
  4065c8:	788b      	ldrb	r3, [r1, #2]
  4065ca:	7083      	strb	r3, [r0, #2]
  4065cc:	4660      	mov	r0, ip
  4065ce:	4770      	bx	lr

004065d0 <memset>:
  4065d0:	b470      	push	{r4, r5, r6}
  4065d2:	0786      	lsls	r6, r0, #30
  4065d4:	d046      	beq.n	406664 <memset+0x94>
  4065d6:	1e54      	subs	r4, r2, #1
  4065d8:	2a00      	cmp	r2, #0
  4065da:	d041      	beq.n	406660 <memset+0x90>
  4065dc:	b2ca      	uxtb	r2, r1
  4065de:	4603      	mov	r3, r0
  4065e0:	e002      	b.n	4065e8 <memset+0x18>
  4065e2:	f114 34ff 	adds.w	r4, r4, #4294967295
  4065e6:	d33b      	bcc.n	406660 <memset+0x90>
  4065e8:	f803 2b01 	strb.w	r2, [r3], #1
  4065ec:	079d      	lsls	r5, r3, #30
  4065ee:	d1f8      	bne.n	4065e2 <memset+0x12>
  4065f0:	2c03      	cmp	r4, #3
  4065f2:	d92e      	bls.n	406652 <memset+0x82>
  4065f4:	b2cd      	uxtb	r5, r1
  4065f6:	ea45 2505 	orr.w	r5, r5, r5, lsl #8
  4065fa:	2c0f      	cmp	r4, #15
  4065fc:	ea45 4505 	orr.w	r5, r5, r5, lsl #16
  406600:	d919      	bls.n	406636 <memset+0x66>
  406602:	f103 0210 	add.w	r2, r3, #16
  406606:	4626      	mov	r6, r4
  406608:	3e10      	subs	r6, #16
  40660a:	2e0f      	cmp	r6, #15
  40660c:	f842 5c10 	str.w	r5, [r2, #-16]
  406610:	f842 5c0c 	str.w	r5, [r2, #-12]
  406614:	f842 5c08 	str.w	r5, [r2, #-8]
  406618:	f842 5c04 	str.w	r5, [r2, #-4]
  40661c:	f102 0210 	add.w	r2, r2, #16
  406620:	d8f2      	bhi.n	406608 <memset+0x38>
  406622:	f1a4 0210 	sub.w	r2, r4, #16
  406626:	f022 020f 	bic.w	r2, r2, #15
  40662a:	f004 040f 	and.w	r4, r4, #15
  40662e:	3210      	adds	r2, #16
  406630:	2c03      	cmp	r4, #3
  406632:	4413      	add	r3, r2
  406634:	d90d      	bls.n	406652 <memset+0x82>
  406636:	461e      	mov	r6, r3
  406638:	4622      	mov	r2, r4
  40663a:	3a04      	subs	r2, #4
  40663c:	2a03      	cmp	r2, #3
  40663e:	f846 5b04 	str.w	r5, [r6], #4
  406642:	d8fa      	bhi.n	40663a <memset+0x6a>
  406644:	1f22      	subs	r2, r4, #4
  406646:	f022 0203 	bic.w	r2, r2, #3
  40664a:	3204      	adds	r2, #4
  40664c:	4413      	add	r3, r2
  40664e:	f004 0403 	and.w	r4, r4, #3
  406652:	b12c      	cbz	r4, 406660 <memset+0x90>
  406654:	b2c9      	uxtb	r1, r1
  406656:	441c      	add	r4, r3
  406658:	f803 1b01 	strb.w	r1, [r3], #1
  40665c:	429c      	cmp	r4, r3
  40665e:	d1fb      	bne.n	406658 <memset+0x88>
  406660:	bc70      	pop	{r4, r5, r6}
  406662:	4770      	bx	lr
  406664:	4614      	mov	r4, r2
  406666:	4603      	mov	r3, r0
  406668:	e7c2      	b.n	4065f0 <memset+0x20>
  40666a:	bf00      	nop

0040666c <_puts_r>:
  40666c:	b5f0      	push	{r4, r5, r6, r7, lr}
  40666e:	4605      	mov	r5, r0
  406670:	b089      	sub	sp, #36	; 0x24
  406672:	4608      	mov	r0, r1
  406674:	460c      	mov	r4, r1
  406676:	f000 f9a3 	bl	4069c0 <strlen>
  40667a:	6bab      	ldr	r3, [r5, #56]	; 0x38
  40667c:	4f21      	ldr	r7, [pc, #132]	; (406704 <_puts_r+0x98>)
  40667e:	9404      	str	r4, [sp, #16]
  406680:	2601      	movs	r6, #1
  406682:	1c44      	adds	r4, r0, #1
  406684:	a904      	add	r1, sp, #16
  406686:	2202      	movs	r2, #2
  406688:	9403      	str	r4, [sp, #12]
  40668a:	9005      	str	r0, [sp, #20]
  40668c:	68ac      	ldr	r4, [r5, #8]
  40668e:	9706      	str	r7, [sp, #24]
  406690:	9607      	str	r6, [sp, #28]
  406692:	9101      	str	r1, [sp, #4]
  406694:	9202      	str	r2, [sp, #8]
  406696:	b353      	cbz	r3, 4066ee <_puts_r+0x82>
  406698:	6e63      	ldr	r3, [r4, #100]	; 0x64
  40669a:	f013 0f01 	tst.w	r3, #1
  40669e:	f9b4 300c 	ldrsh.w	r3, [r4, #12]
  4066a2:	b29a      	uxth	r2, r3
  4066a4:	d101      	bne.n	4066aa <_puts_r+0x3e>
  4066a6:	0590      	lsls	r0, r2, #22
  4066a8:	d525      	bpl.n	4066f6 <_puts_r+0x8a>
  4066aa:	0491      	lsls	r1, r2, #18
  4066ac:	d406      	bmi.n	4066bc <_puts_r+0x50>
  4066ae:	6e62      	ldr	r2, [r4, #100]	; 0x64
  4066b0:	f443 5300 	orr.w	r3, r3, #8192	; 0x2000
  4066b4:	f422 5200 	bic.w	r2, r2, #8192	; 0x2000
  4066b8:	81a3      	strh	r3, [r4, #12]
  4066ba:	6662      	str	r2, [r4, #100]	; 0x64
  4066bc:	4628      	mov	r0, r5
  4066be:	aa01      	add	r2, sp, #4
  4066c0:	4621      	mov	r1, r4
  4066c2:	f001 fc2d 	bl	407f20 <__sfvwrite_r>
  4066c6:	6e63      	ldr	r3, [r4, #100]	; 0x64
  4066c8:	2800      	cmp	r0, #0
  4066ca:	bf0c      	ite	eq
  4066cc:	250a      	moveq	r5, #10
  4066ce:	f04f 35ff 	movne.w	r5, #4294967295
  4066d2:	07da      	lsls	r2, r3, #31
  4066d4:	d402      	bmi.n	4066dc <_puts_r+0x70>
  4066d6:	89a3      	ldrh	r3, [r4, #12]
  4066d8:	059b      	lsls	r3, r3, #22
  4066da:	d502      	bpl.n	4066e2 <_puts_r+0x76>
  4066dc:	4628      	mov	r0, r5
  4066de:	b009      	add	sp, #36	; 0x24
  4066e0:	bdf0      	pop	{r4, r5, r6, r7, pc}
  4066e2:	6da0      	ldr	r0, [r4, #88]	; 0x58
  4066e4:	f001 fdd2 	bl	40828c <__retarget_lock_release_recursive>
  4066e8:	4628      	mov	r0, r5
  4066ea:	b009      	add	sp, #36	; 0x24
  4066ec:	bdf0      	pop	{r4, r5, r6, r7, pc}
  4066ee:	4628      	mov	r0, r5
  4066f0:	f001 fa0a 	bl	407b08 <__sinit>
  4066f4:	e7d0      	b.n	406698 <_puts_r+0x2c>
  4066f6:	6da0      	ldr	r0, [r4, #88]	; 0x58
  4066f8:	f001 fdc6 	bl	408288 <__retarget_lock_acquire_recursive>
  4066fc:	f9b4 300c 	ldrsh.w	r3, [r4, #12]
  406700:	b29a      	uxth	r2, r3
  406702:	e7d2      	b.n	4066aa <_puts_r+0x3e>
  406704:	0040a1c4 	.word	0x0040a1c4

00406708 <puts>:
  406708:	4b02      	ldr	r3, [pc, #8]	; (406714 <puts+0xc>)
  40670a:	4601      	mov	r1, r0
  40670c:	6818      	ldr	r0, [r3, #0]
  40670e:	f7ff bfad 	b.w	40666c <_puts_r>
  406712:	bf00      	nop
  406714:	20400034 	.word	0x20400034

00406718 <setbuf>:
  406718:	2900      	cmp	r1, #0
  40671a:	bf0c      	ite	eq
  40671c:	2202      	moveq	r2, #2
  40671e:	2200      	movne	r2, #0
  406720:	f44f 6380 	mov.w	r3, #1024	; 0x400
  406724:	f000 b800 	b.w	406728 <setvbuf>

00406728 <setvbuf>:
  406728:	e92d 43f0 	stmdb	sp!, {r4, r5, r6, r7, r8, r9, lr}
  40672c:	4c61      	ldr	r4, [pc, #388]	; (4068b4 <setvbuf+0x18c>)
  40672e:	6825      	ldr	r5, [r4, #0]
  406730:	b083      	sub	sp, #12
  406732:	4604      	mov	r4, r0
  406734:	460f      	mov	r7, r1
  406736:	4690      	mov	r8, r2
  406738:	461e      	mov	r6, r3
  40673a:	b115      	cbz	r5, 406742 <setvbuf+0x1a>
  40673c:	6bab      	ldr	r3, [r5, #56]	; 0x38
  40673e:	2b00      	cmp	r3, #0
  406740:	d064      	beq.n	40680c <setvbuf+0xe4>
  406742:	f1b8 0f02 	cmp.w	r8, #2
  406746:	d006      	beq.n	406756 <setvbuf+0x2e>
  406748:	f1b8 0f01 	cmp.w	r8, #1
  40674c:	f200 809f 	bhi.w	40688e <setvbuf+0x166>
  406750:	2e00      	cmp	r6, #0
  406752:	f2c0 809c 	blt.w	40688e <setvbuf+0x166>
  406756:	6e63      	ldr	r3, [r4, #100]	; 0x64
  406758:	07d8      	lsls	r0, r3, #31
  40675a:	d534      	bpl.n	4067c6 <setvbuf+0x9e>
  40675c:	4621      	mov	r1, r4
  40675e:	4628      	mov	r0, r5
  406760:	f001 f97a 	bl	407a58 <_fflush_r>
  406764:	6b21      	ldr	r1, [r4, #48]	; 0x30
  406766:	b141      	cbz	r1, 40677a <setvbuf+0x52>
  406768:	f104 0340 	add.w	r3, r4, #64	; 0x40
  40676c:	4299      	cmp	r1, r3
  40676e:	d002      	beq.n	406776 <setvbuf+0x4e>
  406770:	4628      	mov	r0, r5
  406772:	f001 faef 	bl	407d54 <_free_r>
  406776:	2300      	movs	r3, #0
  406778:	6323      	str	r3, [r4, #48]	; 0x30
  40677a:	f9b4 300c 	ldrsh.w	r3, [r4, #12]
  40677e:	2200      	movs	r2, #0
  406780:	61a2      	str	r2, [r4, #24]
  406782:	6062      	str	r2, [r4, #4]
  406784:	061a      	lsls	r2, r3, #24
  406786:	d43a      	bmi.n	4067fe <setvbuf+0xd6>
  406788:	f423 634a 	bic.w	r3, r3, #3232	; 0xca0
  40678c:	f023 0303 	bic.w	r3, r3, #3
  406790:	f1b8 0f02 	cmp.w	r8, #2
  406794:	81a3      	strh	r3, [r4, #12]
  406796:	d01d      	beq.n	4067d4 <setvbuf+0xac>
  406798:	ab01      	add	r3, sp, #4
  40679a:	466a      	mov	r2, sp
  40679c:	4621      	mov	r1, r4
  40679e:	4628      	mov	r0, r5
  4067a0:	f001 fd76 	bl	408290 <__swhatbuf_r>
  4067a4:	89a3      	ldrh	r3, [r4, #12]
  4067a6:	4318      	orrs	r0, r3
  4067a8:	81a0      	strh	r0, [r4, #12]
  4067aa:	2e00      	cmp	r6, #0
  4067ac:	d132      	bne.n	406814 <setvbuf+0xec>
  4067ae:	9e00      	ldr	r6, [sp, #0]
  4067b0:	4630      	mov	r0, r6
  4067b2:	f001 fde5 	bl	408380 <malloc>
  4067b6:	4607      	mov	r7, r0
  4067b8:	2800      	cmp	r0, #0
  4067ba:	d06b      	beq.n	406894 <setvbuf+0x16c>
  4067bc:	89a3      	ldrh	r3, [r4, #12]
  4067be:	f043 0380 	orr.w	r3, r3, #128	; 0x80
  4067c2:	81a3      	strh	r3, [r4, #12]
  4067c4:	e028      	b.n	406818 <setvbuf+0xf0>
  4067c6:	89a3      	ldrh	r3, [r4, #12]
  4067c8:	0599      	lsls	r1, r3, #22
  4067ca:	d4c7      	bmi.n	40675c <setvbuf+0x34>
  4067cc:	6da0      	ldr	r0, [r4, #88]	; 0x58
  4067ce:	f001 fd5b 	bl	408288 <__retarget_lock_acquire_recursive>
  4067d2:	e7c3      	b.n	40675c <setvbuf+0x34>
  4067d4:	2500      	movs	r5, #0
  4067d6:	6e61      	ldr	r1, [r4, #100]	; 0x64
  4067d8:	2600      	movs	r6, #0
  4067da:	f104 0243 	add.w	r2, r4, #67	; 0x43
  4067de:	f043 0302 	orr.w	r3, r3, #2
  4067e2:	2001      	movs	r0, #1
  4067e4:	60a6      	str	r6, [r4, #8]
  4067e6:	07ce      	lsls	r6, r1, #31
  4067e8:	81a3      	strh	r3, [r4, #12]
  4067ea:	6022      	str	r2, [r4, #0]
  4067ec:	6122      	str	r2, [r4, #16]
  4067ee:	6160      	str	r0, [r4, #20]
  4067f0:	d401      	bmi.n	4067f6 <setvbuf+0xce>
  4067f2:	0598      	lsls	r0, r3, #22
  4067f4:	d53e      	bpl.n	406874 <setvbuf+0x14c>
  4067f6:	4628      	mov	r0, r5
  4067f8:	b003      	add	sp, #12
  4067fa:	e8bd 83f0 	ldmia.w	sp!, {r4, r5, r6, r7, r8, r9, pc}
  4067fe:	6921      	ldr	r1, [r4, #16]
  406800:	4628      	mov	r0, r5
  406802:	f001 faa7 	bl	407d54 <_free_r>
  406806:	f9b4 300c 	ldrsh.w	r3, [r4, #12]
  40680a:	e7bd      	b.n	406788 <setvbuf+0x60>
  40680c:	4628      	mov	r0, r5
  40680e:	f001 f97b 	bl	407b08 <__sinit>
  406812:	e796      	b.n	406742 <setvbuf+0x1a>
  406814:	2f00      	cmp	r7, #0
  406816:	d0cb      	beq.n	4067b0 <setvbuf+0x88>
  406818:	6bab      	ldr	r3, [r5, #56]	; 0x38
  40681a:	2b00      	cmp	r3, #0
  40681c:	d033      	beq.n	406886 <setvbuf+0x15e>
  40681e:	9b00      	ldr	r3, [sp, #0]
  406820:	f9b4 200c 	ldrsh.w	r2, [r4, #12]
  406824:	6027      	str	r7, [r4, #0]
  406826:	429e      	cmp	r6, r3
  406828:	bf1c      	itt	ne
  40682a:	f442 6200 	orrne.w	r2, r2, #2048	; 0x800
  40682e:	81a2      	strhne	r2, [r4, #12]
  406830:	f1b8 0f01 	cmp.w	r8, #1
  406834:	bf04      	itt	eq
  406836:	f042 0201 	orreq.w	r2, r2, #1
  40683a:	81a2      	strheq	r2, [r4, #12]
  40683c:	b292      	uxth	r2, r2
  40683e:	f012 0308 	ands.w	r3, r2, #8
  406842:	6127      	str	r7, [r4, #16]
  406844:	6166      	str	r6, [r4, #20]
  406846:	d00e      	beq.n	406866 <setvbuf+0x13e>
  406848:	07d1      	lsls	r1, r2, #31
  40684a:	d51a      	bpl.n	406882 <setvbuf+0x15a>
  40684c:	6e65      	ldr	r5, [r4, #100]	; 0x64
  40684e:	4276      	negs	r6, r6
  406850:	2300      	movs	r3, #0
  406852:	f015 0501 	ands.w	r5, r5, #1
  406856:	61a6      	str	r6, [r4, #24]
  406858:	60a3      	str	r3, [r4, #8]
  40685a:	d009      	beq.n	406870 <setvbuf+0x148>
  40685c:	2500      	movs	r5, #0
  40685e:	4628      	mov	r0, r5
  406860:	b003      	add	sp, #12
  406862:	e8bd 83f0 	ldmia.w	sp!, {r4, r5, r6, r7, r8, r9, pc}
  406866:	60a3      	str	r3, [r4, #8]
  406868:	6e65      	ldr	r5, [r4, #100]	; 0x64
  40686a:	f015 0501 	ands.w	r5, r5, #1
  40686e:	d1f5      	bne.n	40685c <setvbuf+0x134>
  406870:	0593      	lsls	r3, r2, #22
  406872:	d4c0      	bmi.n	4067f6 <setvbuf+0xce>
  406874:	6da0      	ldr	r0, [r4, #88]	; 0x58
  406876:	f001 fd09 	bl	40828c <__retarget_lock_release_recursive>
  40687a:	4628      	mov	r0, r5
  40687c:	b003      	add	sp, #12
  40687e:	e8bd 83f0 	ldmia.w	sp!, {r4, r5, r6, r7, r8, r9, pc}
  406882:	60a6      	str	r6, [r4, #8]
  406884:	e7f0      	b.n	406868 <setvbuf+0x140>
  406886:	4628      	mov	r0, r5
  406888:	f001 f93e 	bl	407b08 <__sinit>
  40688c:	e7c7      	b.n	40681e <setvbuf+0xf6>
  40688e:	f04f 35ff 	mov.w	r5, #4294967295
  406892:	e7b0      	b.n	4067f6 <setvbuf+0xce>
  406894:	f8dd 9000 	ldr.w	r9, [sp]
  406898:	45b1      	cmp	r9, r6
  40689a:	d004      	beq.n	4068a6 <setvbuf+0x17e>
  40689c:	4648      	mov	r0, r9
  40689e:	f001 fd6f 	bl	408380 <malloc>
  4068a2:	4607      	mov	r7, r0
  4068a4:	b920      	cbnz	r0, 4068b0 <setvbuf+0x188>
  4068a6:	f9b4 300c 	ldrsh.w	r3, [r4, #12]
  4068aa:	f04f 35ff 	mov.w	r5, #4294967295
  4068ae:	e792      	b.n	4067d6 <setvbuf+0xae>
  4068b0:	464e      	mov	r6, r9
  4068b2:	e783      	b.n	4067bc <setvbuf+0x94>
  4068b4:	20400034 	.word	0x20400034

004068b8 <strcat>:
  4068b8:	0783      	lsls	r3, r0, #30
  4068ba:	b510      	push	{r4, lr}
  4068bc:	4604      	mov	r4, r0
  4068be:	d110      	bne.n	4068e2 <strcat+0x2a>
  4068c0:	6802      	ldr	r2, [r0, #0]
  4068c2:	f1a2 3301 	sub.w	r3, r2, #16843009	; 0x1010101
  4068c6:	ea23 0302 	bic.w	r3, r3, r2
  4068ca:	f013 3f80 	tst.w	r3, #2155905152	; 0x80808080
  4068ce:	d108      	bne.n	4068e2 <strcat+0x2a>
  4068d0:	f850 2f04 	ldr.w	r2, [r0, #4]!
  4068d4:	f1a2 3301 	sub.w	r3, r2, #16843009	; 0x1010101
  4068d8:	ea23 0302 	bic.w	r3, r3, r2
  4068dc:	f013 3f80 	tst.w	r3, #2155905152	; 0x80808080
  4068e0:	d0f6      	beq.n	4068d0 <strcat+0x18>
  4068e2:	7803      	ldrb	r3, [r0, #0]
  4068e4:	b11b      	cbz	r3, 4068ee <strcat+0x36>
  4068e6:	f810 3f01 	ldrb.w	r3, [r0, #1]!
  4068ea:	2b00      	cmp	r3, #0
  4068ec:	d1fb      	bne.n	4068e6 <strcat+0x2e>
  4068ee:	f000 f803 	bl	4068f8 <strcpy>
  4068f2:	4620      	mov	r0, r4
  4068f4:	bd10      	pop	{r4, pc}
  4068f6:	bf00      	nop

004068f8 <strcpy>:
  4068f8:	ea80 0201 	eor.w	r2, r0, r1
  4068fc:	4684      	mov	ip, r0
  4068fe:	f012 0f03 	tst.w	r2, #3
  406902:	d14f      	bne.n	4069a4 <strcpy+0xac>
  406904:	f011 0f03 	tst.w	r1, #3
  406908:	d132      	bne.n	406970 <strcpy+0x78>
  40690a:	f84d 4d04 	str.w	r4, [sp, #-4]!
  40690e:	f011 0f04 	tst.w	r1, #4
  406912:	f851 3b04 	ldr.w	r3, [r1], #4
  406916:	d00b      	beq.n	406930 <strcpy+0x38>
  406918:	f1a3 3201 	sub.w	r2, r3, #16843009	; 0x1010101
  40691c:	439a      	bics	r2, r3
  40691e:	f012 3f80 	tst.w	r2, #2155905152	; 0x80808080
  406922:	bf04      	itt	eq
  406924:	f84c 3b04 	streq.w	r3, [ip], #4
  406928:	f851 3b04 	ldreq.w	r3, [r1], #4
  40692c:	d116      	bne.n	40695c <strcpy+0x64>
  40692e:	bf00      	nop
  406930:	f851 4b04 	ldr.w	r4, [r1], #4
  406934:	f1a3 3201 	sub.w	r2, r3, #16843009	; 0x1010101
  406938:	439a      	bics	r2, r3
  40693a:	f012 3f80 	tst.w	r2, #2155905152	; 0x80808080
  40693e:	f1a4 3201 	sub.w	r2, r4, #16843009	; 0x1010101
  406942:	d10b      	bne.n	40695c <strcpy+0x64>
  406944:	f84c 3b04 	str.w	r3, [ip], #4
  406948:	43a2      	bics	r2, r4
  40694a:	f012 3f80 	tst.w	r2, #2155905152	; 0x80808080
  40694e:	bf04      	itt	eq
  406950:	f851 3b04 	ldreq.w	r3, [r1], #4
  406954:	f84c 4b04 	streq.w	r4, [ip], #4
  406958:	d0ea      	beq.n	406930 <strcpy+0x38>
  40695a:	4623      	mov	r3, r4
  40695c:	f80c 3b01 	strb.w	r3, [ip], #1
  406960:	f013 0fff 	tst.w	r3, #255	; 0xff
  406964:	ea4f 2333 	mov.w	r3, r3, ror #8
  406968:	d1f8      	bne.n	40695c <strcpy+0x64>
  40696a:	f85d 4b04 	ldr.w	r4, [sp], #4
  40696e:	4770      	bx	lr
  406970:	f011 0f01 	tst.w	r1, #1
  406974:	d006      	beq.n	406984 <strcpy+0x8c>
  406976:	f811 2b01 	ldrb.w	r2, [r1], #1
  40697a:	f80c 2b01 	strb.w	r2, [ip], #1
  40697e:	2a00      	cmp	r2, #0
  406980:	bf08      	it	eq
  406982:	4770      	bxeq	lr
  406984:	f011 0f02 	tst.w	r1, #2
  406988:	d0bf      	beq.n	40690a <strcpy+0x12>
  40698a:	f831 2b02 	ldrh.w	r2, [r1], #2
  40698e:	f012 0fff 	tst.w	r2, #255	; 0xff
  406992:	bf16      	itet	ne
  406994:	f82c 2b02 	strhne.w	r2, [ip], #2
  406998:	f88c 2000 	strbeq.w	r2, [ip]
  40699c:	f412 4f7f 	tstne.w	r2, #65280	; 0xff00
  4069a0:	d1b3      	bne.n	40690a <strcpy+0x12>
  4069a2:	4770      	bx	lr
  4069a4:	f811 2b01 	ldrb.w	r2, [r1], #1
  4069a8:	f80c 2b01 	strb.w	r2, [ip], #1
  4069ac:	2a00      	cmp	r2, #0
  4069ae:	d1f9      	bne.n	4069a4 <strcpy+0xac>
  4069b0:	4770      	bx	lr
  4069b2:	bf00      	nop
	...

004069c0 <strlen>:
  4069c0:	f890 f000 	pld	[r0]
  4069c4:	e96d 4502 	strd	r4, r5, [sp, #-8]!
  4069c8:	f020 0107 	bic.w	r1, r0, #7
  4069cc:	f06f 0c00 	mvn.w	ip, #0
  4069d0:	f010 0407 	ands.w	r4, r0, #7
  4069d4:	f891 f020 	pld	[r1, #32]
  4069d8:	f040 8049 	bne.w	406a6e <strlen+0xae>
  4069dc:	f04f 0400 	mov.w	r4, #0
  4069e0:	f06f 0007 	mvn.w	r0, #7
  4069e4:	e9d1 2300 	ldrd	r2, r3, [r1]
  4069e8:	f891 f040 	pld	[r1, #64]	; 0x40
  4069ec:	f100 0008 	add.w	r0, r0, #8
  4069f0:	fa82 f24c 	uadd8	r2, r2, ip
  4069f4:	faa4 f28c 	sel	r2, r4, ip
  4069f8:	fa83 f34c 	uadd8	r3, r3, ip
  4069fc:	faa2 f38c 	sel	r3, r2, ip
  406a00:	bb4b      	cbnz	r3, 406a56 <strlen+0x96>
  406a02:	e9d1 2302 	ldrd	r2, r3, [r1, #8]
  406a06:	fa82 f24c 	uadd8	r2, r2, ip
  406a0a:	f100 0008 	add.w	r0, r0, #8
  406a0e:	faa4 f28c 	sel	r2, r4, ip
  406a12:	fa83 f34c 	uadd8	r3, r3, ip
  406a16:	faa2 f38c 	sel	r3, r2, ip
  406a1a:	b9e3      	cbnz	r3, 406a56 <strlen+0x96>
  406a1c:	e9d1 2304 	ldrd	r2, r3, [r1, #16]
  406a20:	fa82 f24c 	uadd8	r2, r2, ip
  406a24:	f100 0008 	add.w	r0, r0, #8
  406a28:	faa4 f28c 	sel	r2, r4, ip
  406a2c:	fa83 f34c 	uadd8	r3, r3, ip
  406a30:	faa2 f38c 	sel	r3, r2, ip
  406a34:	b97b      	cbnz	r3, 406a56 <strlen+0x96>
  406a36:	e9d1 2306 	ldrd	r2, r3, [r1, #24]
  406a3a:	f101 0120 	add.w	r1, r1, #32
  406a3e:	fa82 f24c 	uadd8	r2, r2, ip
  406a42:	f100 0008 	add.w	r0, r0, #8
  406a46:	faa4 f28c 	sel	r2, r4, ip
  406a4a:	fa83 f34c 	uadd8	r3, r3, ip
  406a4e:	faa2 f38c 	sel	r3, r2, ip
  406a52:	2b00      	cmp	r3, #0
  406a54:	d0c6      	beq.n	4069e4 <strlen+0x24>
  406a56:	2a00      	cmp	r2, #0
  406a58:	bf04      	itt	eq
  406a5a:	3004      	addeq	r0, #4
  406a5c:	461a      	moveq	r2, r3
  406a5e:	ba12      	rev	r2, r2
  406a60:	fab2 f282 	clz	r2, r2
  406a64:	e8fd 4502 	ldrd	r4, r5, [sp], #8
  406a68:	eb00 00d2 	add.w	r0, r0, r2, lsr #3
  406a6c:	4770      	bx	lr
  406a6e:	e9d1 2300 	ldrd	r2, r3, [r1]
  406a72:	f004 0503 	and.w	r5, r4, #3
  406a76:	f1c4 0000 	rsb	r0, r4, #0
  406a7a:	ea4f 05c5 	mov.w	r5, r5, lsl #3
  406a7e:	f014 0f04 	tst.w	r4, #4
  406a82:	f891 f040 	pld	[r1, #64]	; 0x40
  406a86:	fa0c f505 	lsl.w	r5, ip, r5
  406a8a:	ea62 0205 	orn	r2, r2, r5
  406a8e:	bf1c      	itt	ne
  406a90:	ea63 0305 	ornne	r3, r3, r5
  406a94:	4662      	movne	r2, ip
  406a96:	f04f 0400 	mov.w	r4, #0
  406a9a:	e7a9      	b.n	4069f0 <strlen+0x30>

00406a9c <__sprint_r.part.0>:
  406a9c:	e92d 4ff8 	stmdb	sp!, {r3, r4, r5, r6, r7, r8, r9, sl, fp, lr}
  406aa0:	6e4b      	ldr	r3, [r1, #100]	; 0x64
  406aa2:	049c      	lsls	r4, r3, #18
  406aa4:	4693      	mov	fp, r2
  406aa6:	d52f      	bpl.n	406b08 <__sprint_r.part.0+0x6c>
  406aa8:	6893      	ldr	r3, [r2, #8]
  406aaa:	6812      	ldr	r2, [r2, #0]
  406aac:	b353      	cbz	r3, 406b04 <__sprint_r.part.0+0x68>
  406aae:	460e      	mov	r6, r1
  406ab0:	4607      	mov	r7, r0
  406ab2:	f102 0908 	add.w	r9, r2, #8
  406ab6:	e919 0420 	ldmdb	r9, {r5, sl}
  406aba:	ea5f 089a 	movs.w	r8, sl, lsr #2
  406abe:	d017      	beq.n	406af0 <__sprint_r.part.0+0x54>
  406ac0:	3d04      	subs	r5, #4
  406ac2:	2400      	movs	r4, #0
  406ac4:	e001      	b.n	406aca <__sprint_r.part.0+0x2e>
  406ac6:	45a0      	cmp	r8, r4
  406ac8:	d010      	beq.n	406aec <__sprint_r.part.0+0x50>
  406aca:	4632      	mov	r2, r6
  406acc:	f855 1f04 	ldr.w	r1, [r5, #4]!
  406ad0:	4638      	mov	r0, r7
  406ad2:	f001 f8bb 	bl	407c4c <_fputwc_r>
  406ad6:	1c43      	adds	r3, r0, #1
  406ad8:	f104 0401 	add.w	r4, r4, #1
  406adc:	d1f3      	bne.n	406ac6 <__sprint_r.part.0+0x2a>
  406ade:	2300      	movs	r3, #0
  406ae0:	f8cb 3008 	str.w	r3, [fp, #8]
  406ae4:	f8cb 3004 	str.w	r3, [fp, #4]
  406ae8:	e8bd 8ff8 	ldmia.w	sp!, {r3, r4, r5, r6, r7, r8, r9, sl, fp, pc}
  406aec:	f8db 3008 	ldr.w	r3, [fp, #8]
  406af0:	f02a 0a03 	bic.w	sl, sl, #3
  406af4:	eba3 030a 	sub.w	r3, r3, sl
  406af8:	f8cb 3008 	str.w	r3, [fp, #8]
  406afc:	f109 0908 	add.w	r9, r9, #8
  406b00:	2b00      	cmp	r3, #0
  406b02:	d1d8      	bne.n	406ab6 <__sprint_r.part.0+0x1a>
  406b04:	2000      	movs	r0, #0
  406b06:	e7ea      	b.n	406ade <__sprint_r.part.0+0x42>
  406b08:	f001 fa0a 	bl	407f20 <__sfvwrite_r>
  406b0c:	2300      	movs	r3, #0
  406b0e:	f8cb 3008 	str.w	r3, [fp, #8]
  406b12:	f8cb 3004 	str.w	r3, [fp, #4]
  406b16:	e8bd 8ff8 	ldmia.w	sp!, {r3, r4, r5, r6, r7, r8, r9, sl, fp, pc}
  406b1a:	bf00      	nop

00406b1c <_vfiprintf_r>:
  406b1c:	e92d 4ff0 	stmdb	sp!, {r4, r5, r6, r7, r8, r9, sl, fp, lr}
  406b20:	b0ad      	sub	sp, #180	; 0xb4
  406b22:	461d      	mov	r5, r3
  406b24:	468b      	mov	fp, r1
  406b26:	4690      	mov	r8, r2
  406b28:	9307      	str	r3, [sp, #28]
  406b2a:	9006      	str	r0, [sp, #24]
  406b2c:	b118      	cbz	r0, 406b36 <_vfiprintf_r+0x1a>
  406b2e:	6b83      	ldr	r3, [r0, #56]	; 0x38
  406b30:	2b00      	cmp	r3, #0
  406b32:	f000 80f3 	beq.w	406d1c <_vfiprintf_r+0x200>
  406b36:	f8db 3064 	ldr.w	r3, [fp, #100]	; 0x64
  406b3a:	f9bb 000c 	ldrsh.w	r0, [fp, #12]
  406b3e:	07df      	lsls	r7, r3, #31
  406b40:	b281      	uxth	r1, r0
  406b42:	d402      	bmi.n	406b4a <_vfiprintf_r+0x2e>
  406b44:	058e      	lsls	r6, r1, #22
  406b46:	f140 80fc 	bpl.w	406d42 <_vfiprintf_r+0x226>
  406b4a:	048c      	lsls	r4, r1, #18
  406b4c:	d40a      	bmi.n	406b64 <_vfiprintf_r+0x48>
  406b4e:	f8db 3064 	ldr.w	r3, [fp, #100]	; 0x64
  406b52:	f440 5100 	orr.w	r1, r0, #8192	; 0x2000
  406b56:	f423 5300 	bic.w	r3, r3, #8192	; 0x2000
  406b5a:	f8ab 100c 	strh.w	r1, [fp, #12]
  406b5e:	f8cb 3064 	str.w	r3, [fp, #100]	; 0x64
  406b62:	b289      	uxth	r1, r1
  406b64:	0708      	lsls	r0, r1, #28
  406b66:	f140 80b3 	bpl.w	406cd0 <_vfiprintf_r+0x1b4>
  406b6a:	f8db 3010 	ldr.w	r3, [fp, #16]
  406b6e:	2b00      	cmp	r3, #0
  406b70:	f000 80ae 	beq.w	406cd0 <_vfiprintf_r+0x1b4>
  406b74:	f001 031a 	and.w	r3, r1, #26
  406b78:	2b0a      	cmp	r3, #10
  406b7a:	f000 80b5 	beq.w	406ce8 <_vfiprintf_r+0x1cc>
  406b7e:	2300      	movs	r3, #0
  406b80:	f10d 0970 	add.w	r9, sp, #112	; 0x70
  406b84:	930b      	str	r3, [sp, #44]	; 0x2c
  406b86:	9311      	str	r3, [sp, #68]	; 0x44
  406b88:	9310      	str	r3, [sp, #64]	; 0x40
  406b8a:	9303      	str	r3, [sp, #12]
  406b8c:	f8cd 903c 	str.w	r9, [sp, #60]	; 0x3c
  406b90:	46ca      	mov	sl, r9
  406b92:	f8cd b010 	str.w	fp, [sp, #16]
  406b96:	f898 3000 	ldrb.w	r3, [r8]
  406b9a:	4644      	mov	r4, r8
  406b9c:	b1fb      	cbz	r3, 406bde <_vfiprintf_r+0xc2>
  406b9e:	2b25      	cmp	r3, #37	; 0x25
  406ba0:	d102      	bne.n	406ba8 <_vfiprintf_r+0x8c>
  406ba2:	e01c      	b.n	406bde <_vfiprintf_r+0xc2>
  406ba4:	2b25      	cmp	r3, #37	; 0x25
  406ba6:	d003      	beq.n	406bb0 <_vfiprintf_r+0x94>
  406ba8:	f814 3f01 	ldrb.w	r3, [r4, #1]!
  406bac:	2b00      	cmp	r3, #0
  406bae:	d1f9      	bne.n	406ba4 <_vfiprintf_r+0x88>
  406bb0:	eba4 0508 	sub.w	r5, r4, r8
  406bb4:	b19d      	cbz	r5, 406bde <_vfiprintf_r+0xc2>
  406bb6:	9b10      	ldr	r3, [sp, #64]	; 0x40
  406bb8:	9a11      	ldr	r2, [sp, #68]	; 0x44
  406bba:	f8ca 8000 	str.w	r8, [sl]
  406bbe:	3301      	adds	r3, #1
  406bc0:	442a      	add	r2, r5
  406bc2:	2b07      	cmp	r3, #7
  406bc4:	f8ca 5004 	str.w	r5, [sl, #4]
  406bc8:	9211      	str	r2, [sp, #68]	; 0x44
  406bca:	9310      	str	r3, [sp, #64]	; 0x40
  406bcc:	dd7a      	ble.n	406cc4 <_vfiprintf_r+0x1a8>
  406bce:	2a00      	cmp	r2, #0
  406bd0:	f040 84b0 	bne.w	407534 <_vfiprintf_r+0xa18>
  406bd4:	9b03      	ldr	r3, [sp, #12]
  406bd6:	9210      	str	r2, [sp, #64]	; 0x40
  406bd8:	442b      	add	r3, r5
  406bda:	46ca      	mov	sl, r9
  406bdc:	9303      	str	r3, [sp, #12]
  406bde:	7823      	ldrb	r3, [r4, #0]
  406be0:	2b00      	cmp	r3, #0
  406be2:	f000 83e0 	beq.w	4073a6 <_vfiprintf_r+0x88a>
  406be6:	2000      	movs	r0, #0
  406be8:	f04f 0300 	mov.w	r3, #0
  406bec:	f88d 3037 	strb.w	r3, [sp, #55]	; 0x37
  406bf0:	f104 0801 	add.w	r8, r4, #1
  406bf4:	7862      	ldrb	r2, [r4, #1]
  406bf6:	4605      	mov	r5, r0
  406bf8:	4606      	mov	r6, r0
  406bfa:	4603      	mov	r3, r0
  406bfc:	f04f 34ff 	mov.w	r4, #4294967295
  406c00:	f108 0801 	add.w	r8, r8, #1
  406c04:	f1a2 0120 	sub.w	r1, r2, #32
  406c08:	2958      	cmp	r1, #88	; 0x58
  406c0a:	f200 82de 	bhi.w	4071ca <_vfiprintf_r+0x6ae>
  406c0e:	e8df f011 	tbh	[pc, r1, lsl #1]
  406c12:	0221      	.short	0x0221
  406c14:	02dc02dc 	.word	0x02dc02dc
  406c18:	02dc0229 	.word	0x02dc0229
  406c1c:	02dc02dc 	.word	0x02dc02dc
  406c20:	02dc02dc 	.word	0x02dc02dc
  406c24:	028902dc 	.word	0x028902dc
  406c28:	02dc0295 	.word	0x02dc0295
  406c2c:	02bd00a2 	.word	0x02bd00a2
  406c30:	019f02dc 	.word	0x019f02dc
  406c34:	01a401a4 	.word	0x01a401a4
  406c38:	01a401a4 	.word	0x01a401a4
  406c3c:	01a401a4 	.word	0x01a401a4
  406c40:	01a401a4 	.word	0x01a401a4
  406c44:	02dc01a4 	.word	0x02dc01a4
  406c48:	02dc02dc 	.word	0x02dc02dc
  406c4c:	02dc02dc 	.word	0x02dc02dc
  406c50:	02dc02dc 	.word	0x02dc02dc
  406c54:	02dc02dc 	.word	0x02dc02dc
  406c58:	01b202dc 	.word	0x01b202dc
  406c5c:	02dc02dc 	.word	0x02dc02dc
  406c60:	02dc02dc 	.word	0x02dc02dc
  406c64:	02dc02dc 	.word	0x02dc02dc
  406c68:	02dc02dc 	.word	0x02dc02dc
  406c6c:	02dc02dc 	.word	0x02dc02dc
  406c70:	02dc0197 	.word	0x02dc0197
  406c74:	02dc02dc 	.word	0x02dc02dc
  406c78:	02dc02dc 	.word	0x02dc02dc
  406c7c:	02dc019b 	.word	0x02dc019b
  406c80:	025302dc 	.word	0x025302dc
  406c84:	02dc02dc 	.word	0x02dc02dc
  406c88:	02dc02dc 	.word	0x02dc02dc
  406c8c:	02dc02dc 	.word	0x02dc02dc
  406c90:	02dc02dc 	.word	0x02dc02dc
  406c94:	02dc02dc 	.word	0x02dc02dc
  406c98:	021b025a 	.word	0x021b025a
  406c9c:	02dc02dc 	.word	0x02dc02dc
  406ca0:	026e02dc 	.word	0x026e02dc
  406ca4:	02dc021b 	.word	0x02dc021b
  406ca8:	027302dc 	.word	0x027302dc
  406cac:	01f502dc 	.word	0x01f502dc
  406cb0:	02090182 	.word	0x02090182
  406cb4:	02dc02d7 	.word	0x02dc02d7
  406cb8:	02dc029a 	.word	0x02dc029a
  406cbc:	02dc00a7 	.word	0x02dc00a7
  406cc0:	022e02dc 	.word	0x022e02dc
  406cc4:	f10a 0a08 	add.w	sl, sl, #8
  406cc8:	9b03      	ldr	r3, [sp, #12]
  406cca:	442b      	add	r3, r5
  406ccc:	9303      	str	r3, [sp, #12]
  406cce:	e786      	b.n	406bde <_vfiprintf_r+0xc2>
  406cd0:	4659      	mov	r1, fp
  406cd2:	9806      	ldr	r0, [sp, #24]
  406cd4:	f000 fdac 	bl	407830 <__swsetup_r>
  406cd8:	bb18      	cbnz	r0, 406d22 <_vfiprintf_r+0x206>
  406cda:	f8bb 100c 	ldrh.w	r1, [fp, #12]
  406cde:	f001 031a 	and.w	r3, r1, #26
  406ce2:	2b0a      	cmp	r3, #10
  406ce4:	f47f af4b 	bne.w	406b7e <_vfiprintf_r+0x62>
  406ce8:	f9bb 300e 	ldrsh.w	r3, [fp, #14]
  406cec:	2b00      	cmp	r3, #0
  406cee:	f6ff af46 	blt.w	406b7e <_vfiprintf_r+0x62>
  406cf2:	f8db 3064 	ldr.w	r3, [fp, #100]	; 0x64
  406cf6:	07db      	lsls	r3, r3, #31
  406cf8:	d405      	bmi.n	406d06 <_vfiprintf_r+0x1ea>
  406cfa:	058f      	lsls	r7, r1, #22
  406cfc:	d403      	bmi.n	406d06 <_vfiprintf_r+0x1ea>
  406cfe:	f8db 0058 	ldr.w	r0, [fp, #88]	; 0x58
  406d02:	f001 fac3 	bl	40828c <__retarget_lock_release_recursive>
  406d06:	462b      	mov	r3, r5
  406d08:	4642      	mov	r2, r8
  406d0a:	4659      	mov	r1, fp
  406d0c:	9806      	ldr	r0, [sp, #24]
  406d0e:	f000 fd4d 	bl	4077ac <__sbprintf>
  406d12:	9003      	str	r0, [sp, #12]
  406d14:	9803      	ldr	r0, [sp, #12]
  406d16:	b02d      	add	sp, #180	; 0xb4
  406d18:	e8bd 8ff0 	ldmia.w	sp!, {r4, r5, r6, r7, r8, r9, sl, fp, pc}
  406d1c:	f000 fef4 	bl	407b08 <__sinit>
  406d20:	e709      	b.n	406b36 <_vfiprintf_r+0x1a>
  406d22:	f8db 3064 	ldr.w	r3, [fp, #100]	; 0x64
  406d26:	07d9      	lsls	r1, r3, #31
  406d28:	d404      	bmi.n	406d34 <_vfiprintf_r+0x218>
  406d2a:	f8bb 300c 	ldrh.w	r3, [fp, #12]
  406d2e:	059a      	lsls	r2, r3, #22
  406d30:	f140 84aa 	bpl.w	407688 <_vfiprintf_r+0xb6c>
  406d34:	f04f 33ff 	mov.w	r3, #4294967295
  406d38:	9303      	str	r3, [sp, #12]
  406d3a:	9803      	ldr	r0, [sp, #12]
  406d3c:	b02d      	add	sp, #180	; 0xb4
  406d3e:	e8bd 8ff0 	ldmia.w	sp!, {r4, r5, r6, r7, r8, r9, sl, fp, pc}
  406d42:	f8db 0058 	ldr.w	r0, [fp, #88]	; 0x58
  406d46:	f001 fa9f 	bl	408288 <__retarget_lock_acquire_recursive>
  406d4a:	f9bb 000c 	ldrsh.w	r0, [fp, #12]
  406d4e:	b281      	uxth	r1, r0
  406d50:	e6fb      	b.n	406b4a <_vfiprintf_r+0x2e>
  406d52:	4276      	negs	r6, r6
  406d54:	9207      	str	r2, [sp, #28]
  406d56:	f043 0304 	orr.w	r3, r3, #4
  406d5a:	f898 2000 	ldrb.w	r2, [r8]
  406d5e:	e74f      	b.n	406c00 <_vfiprintf_r+0xe4>
  406d60:	9608      	str	r6, [sp, #32]
  406d62:	069e      	lsls	r6, r3, #26
  406d64:	f100 8450 	bmi.w	407608 <_vfiprintf_r+0xaec>
  406d68:	9907      	ldr	r1, [sp, #28]
  406d6a:	06dd      	lsls	r5, r3, #27
  406d6c:	460a      	mov	r2, r1
  406d6e:	f100 83ef 	bmi.w	407550 <_vfiprintf_r+0xa34>
  406d72:	0658      	lsls	r0, r3, #25
  406d74:	f140 83ec 	bpl.w	407550 <_vfiprintf_r+0xa34>
  406d78:	880e      	ldrh	r6, [r1, #0]
  406d7a:	3104      	adds	r1, #4
  406d7c:	2700      	movs	r7, #0
  406d7e:	2201      	movs	r2, #1
  406d80:	9107      	str	r1, [sp, #28]
  406d82:	f04f 0100 	mov.w	r1, #0
  406d86:	f88d 1037 	strb.w	r1, [sp, #55]	; 0x37
  406d8a:	2500      	movs	r5, #0
  406d8c:	1c61      	adds	r1, r4, #1
  406d8e:	f000 8116 	beq.w	406fbe <_vfiprintf_r+0x4a2>
  406d92:	f023 0180 	bic.w	r1, r3, #128	; 0x80
  406d96:	9102      	str	r1, [sp, #8]
  406d98:	ea56 0107 	orrs.w	r1, r6, r7
  406d9c:	f040 8114 	bne.w	406fc8 <_vfiprintf_r+0x4ac>
  406da0:	2c00      	cmp	r4, #0
  406da2:	f040 835c 	bne.w	40745e <_vfiprintf_r+0x942>
  406da6:	2a00      	cmp	r2, #0
  406da8:	f040 83b7 	bne.w	40751a <_vfiprintf_r+0x9fe>
  406dac:	f013 0301 	ands.w	r3, r3, #1
  406db0:	9305      	str	r3, [sp, #20]
  406db2:	f000 8457 	beq.w	407664 <_vfiprintf_r+0xb48>
  406db6:	f10d 0bb0 	add.w	fp, sp, #176	; 0xb0
  406dba:	2330      	movs	r3, #48	; 0x30
  406dbc:	f80b 3d41 	strb.w	r3, [fp, #-65]!
  406dc0:	9b05      	ldr	r3, [sp, #20]
  406dc2:	42a3      	cmp	r3, r4
  406dc4:	bfb8      	it	lt
  406dc6:	4623      	movlt	r3, r4
  406dc8:	9301      	str	r3, [sp, #4]
  406dca:	b10d      	cbz	r5, 406dd0 <_vfiprintf_r+0x2b4>
  406dcc:	3301      	adds	r3, #1
  406dce:	9301      	str	r3, [sp, #4]
  406dd0:	9b02      	ldr	r3, [sp, #8]
  406dd2:	f013 0302 	ands.w	r3, r3, #2
  406dd6:	9309      	str	r3, [sp, #36]	; 0x24
  406dd8:	d002      	beq.n	406de0 <_vfiprintf_r+0x2c4>
  406dda:	9b01      	ldr	r3, [sp, #4]
  406ddc:	3302      	adds	r3, #2
  406dde:	9301      	str	r3, [sp, #4]
  406de0:	9b02      	ldr	r3, [sp, #8]
  406de2:	f013 0384 	ands.w	r3, r3, #132	; 0x84
  406de6:	930a      	str	r3, [sp, #40]	; 0x28
  406de8:	f040 8217 	bne.w	40721a <_vfiprintf_r+0x6fe>
  406dec:	9b08      	ldr	r3, [sp, #32]
  406dee:	9a01      	ldr	r2, [sp, #4]
  406df0:	1a9d      	subs	r5, r3, r2
  406df2:	2d00      	cmp	r5, #0
  406df4:	f340 8211 	ble.w	40721a <_vfiprintf_r+0x6fe>
  406df8:	2d10      	cmp	r5, #16
  406dfa:	f340 8490 	ble.w	40771e <_vfiprintf_r+0xc02>
  406dfe:	9b10      	ldr	r3, [sp, #64]	; 0x40
  406e00:	9a11      	ldr	r2, [sp, #68]	; 0x44
  406e02:	4ec4      	ldr	r6, [pc, #784]	; (407114 <_vfiprintf_r+0x5f8>)
  406e04:	46d6      	mov	lr, sl
  406e06:	2710      	movs	r7, #16
  406e08:	46a2      	mov	sl, r4
  406e0a:	4619      	mov	r1, r3
  406e0c:	9c06      	ldr	r4, [sp, #24]
  406e0e:	e007      	b.n	406e20 <_vfiprintf_r+0x304>
  406e10:	f101 0c02 	add.w	ip, r1, #2
  406e14:	f10e 0e08 	add.w	lr, lr, #8
  406e18:	4601      	mov	r1, r0
  406e1a:	3d10      	subs	r5, #16
  406e1c:	2d10      	cmp	r5, #16
  406e1e:	dd11      	ble.n	406e44 <_vfiprintf_r+0x328>
  406e20:	1c48      	adds	r0, r1, #1
  406e22:	3210      	adds	r2, #16
  406e24:	2807      	cmp	r0, #7
  406e26:	9211      	str	r2, [sp, #68]	; 0x44
  406e28:	e88e 00c0 	stmia.w	lr, {r6, r7}
  406e2c:	9010      	str	r0, [sp, #64]	; 0x40
  406e2e:	ddef      	ble.n	406e10 <_vfiprintf_r+0x2f4>
  406e30:	2a00      	cmp	r2, #0
  406e32:	f040 81e4 	bne.w	4071fe <_vfiprintf_r+0x6e2>
  406e36:	3d10      	subs	r5, #16
  406e38:	2d10      	cmp	r5, #16
  406e3a:	4611      	mov	r1, r2
  406e3c:	f04f 0c01 	mov.w	ip, #1
  406e40:	46ce      	mov	lr, r9
  406e42:	dced      	bgt.n	406e20 <_vfiprintf_r+0x304>
  406e44:	4654      	mov	r4, sl
  406e46:	4661      	mov	r1, ip
  406e48:	46f2      	mov	sl, lr
  406e4a:	442a      	add	r2, r5
  406e4c:	2907      	cmp	r1, #7
  406e4e:	9211      	str	r2, [sp, #68]	; 0x44
  406e50:	f8ca 6000 	str.w	r6, [sl]
  406e54:	f8ca 5004 	str.w	r5, [sl, #4]
  406e58:	9110      	str	r1, [sp, #64]	; 0x40
  406e5a:	f300 82ec 	bgt.w	407436 <_vfiprintf_r+0x91a>
  406e5e:	f89d 5037 	ldrb.w	r5, [sp, #55]	; 0x37
  406e62:	f10a 0a08 	add.w	sl, sl, #8
  406e66:	1c48      	adds	r0, r1, #1
  406e68:	2d00      	cmp	r5, #0
  406e6a:	f040 81de 	bne.w	40722a <_vfiprintf_r+0x70e>
  406e6e:	9b09      	ldr	r3, [sp, #36]	; 0x24
  406e70:	2b00      	cmp	r3, #0
  406e72:	f000 81f8 	beq.w	407266 <_vfiprintf_r+0x74a>
  406e76:	3202      	adds	r2, #2
  406e78:	a90e      	add	r1, sp, #56	; 0x38
  406e7a:	2302      	movs	r3, #2
  406e7c:	2807      	cmp	r0, #7
  406e7e:	9211      	str	r2, [sp, #68]	; 0x44
  406e80:	9010      	str	r0, [sp, #64]	; 0x40
  406e82:	e88a 000a 	stmia.w	sl, {r1, r3}
  406e86:	f340 81ea 	ble.w	40725e <_vfiprintf_r+0x742>
  406e8a:	2a00      	cmp	r2, #0
  406e8c:	f040 838c 	bne.w	4075a8 <_vfiprintf_r+0xa8c>
  406e90:	9b0a      	ldr	r3, [sp, #40]	; 0x28
  406e92:	2b80      	cmp	r3, #128	; 0x80
  406e94:	f04f 0001 	mov.w	r0, #1
  406e98:	4611      	mov	r1, r2
  406e9a:	46ca      	mov	sl, r9
  406e9c:	f040 81e7 	bne.w	40726e <_vfiprintf_r+0x752>
  406ea0:	9b08      	ldr	r3, [sp, #32]
  406ea2:	9d01      	ldr	r5, [sp, #4]
  406ea4:	1b5e      	subs	r6, r3, r5
  406ea6:	2e00      	cmp	r6, #0
  406ea8:	f340 81e1 	ble.w	40726e <_vfiprintf_r+0x752>
  406eac:	2e10      	cmp	r6, #16
  406eae:	4d9a      	ldr	r5, [pc, #616]	; (407118 <_vfiprintf_r+0x5fc>)
  406eb0:	f340 8450 	ble.w	407754 <_vfiprintf_r+0xc38>
  406eb4:	46d4      	mov	ip, sl
  406eb6:	2710      	movs	r7, #16
  406eb8:	46a2      	mov	sl, r4
  406eba:	9c06      	ldr	r4, [sp, #24]
  406ebc:	e007      	b.n	406ece <_vfiprintf_r+0x3b2>
  406ebe:	f101 0e02 	add.w	lr, r1, #2
  406ec2:	f10c 0c08 	add.w	ip, ip, #8
  406ec6:	4601      	mov	r1, r0
  406ec8:	3e10      	subs	r6, #16
  406eca:	2e10      	cmp	r6, #16
  406ecc:	dd11      	ble.n	406ef2 <_vfiprintf_r+0x3d6>
  406ece:	1c48      	adds	r0, r1, #1
  406ed0:	3210      	adds	r2, #16
  406ed2:	2807      	cmp	r0, #7
  406ed4:	9211      	str	r2, [sp, #68]	; 0x44
  406ed6:	e88c 00a0 	stmia.w	ip, {r5, r7}
  406eda:	9010      	str	r0, [sp, #64]	; 0x40
  406edc:	ddef      	ble.n	406ebe <_vfiprintf_r+0x3a2>
  406ede:	2a00      	cmp	r2, #0
  406ee0:	f040 829d 	bne.w	40741e <_vfiprintf_r+0x902>
  406ee4:	3e10      	subs	r6, #16
  406ee6:	2e10      	cmp	r6, #16
  406ee8:	f04f 0e01 	mov.w	lr, #1
  406eec:	4611      	mov	r1, r2
  406eee:	46cc      	mov	ip, r9
  406ef0:	dced      	bgt.n	406ece <_vfiprintf_r+0x3b2>
  406ef2:	4654      	mov	r4, sl
  406ef4:	46e2      	mov	sl, ip
  406ef6:	4432      	add	r2, r6
  406ef8:	f1be 0f07 	cmp.w	lr, #7
  406efc:	9211      	str	r2, [sp, #68]	; 0x44
  406efe:	e88a 0060 	stmia.w	sl, {r5, r6}
  406f02:	f8cd e040 	str.w	lr, [sp, #64]	; 0x40
  406f06:	f300 8369 	bgt.w	4075dc <_vfiprintf_r+0xac0>
  406f0a:	f10a 0a08 	add.w	sl, sl, #8
  406f0e:	f10e 0001 	add.w	r0, lr, #1
  406f12:	4671      	mov	r1, lr
  406f14:	e1ab      	b.n	40726e <_vfiprintf_r+0x752>
  406f16:	9608      	str	r6, [sp, #32]
  406f18:	f013 0220 	ands.w	r2, r3, #32
  406f1c:	f040 838c 	bne.w	407638 <_vfiprintf_r+0xb1c>
  406f20:	f013 0110 	ands.w	r1, r3, #16
  406f24:	f040 831a 	bne.w	40755c <_vfiprintf_r+0xa40>
  406f28:	f013 0240 	ands.w	r2, r3, #64	; 0x40
  406f2c:	f000 8316 	beq.w	40755c <_vfiprintf_r+0xa40>
  406f30:	9807      	ldr	r0, [sp, #28]
  406f32:	460a      	mov	r2, r1
  406f34:	4601      	mov	r1, r0
  406f36:	3104      	adds	r1, #4
  406f38:	8806      	ldrh	r6, [r0, #0]
  406f3a:	9107      	str	r1, [sp, #28]
  406f3c:	2700      	movs	r7, #0
  406f3e:	e720      	b.n	406d82 <_vfiprintf_r+0x266>
  406f40:	9608      	str	r6, [sp, #32]
  406f42:	f043 0310 	orr.w	r3, r3, #16
  406f46:	e7e7      	b.n	406f18 <_vfiprintf_r+0x3fc>
  406f48:	9608      	str	r6, [sp, #32]
  406f4a:	f043 0310 	orr.w	r3, r3, #16
  406f4e:	e708      	b.n	406d62 <_vfiprintf_r+0x246>
  406f50:	f043 0380 	orr.w	r3, r3, #128	; 0x80
  406f54:	f898 2000 	ldrb.w	r2, [r8]
  406f58:	e652      	b.n	406c00 <_vfiprintf_r+0xe4>
  406f5a:	f1a2 0130 	sub.w	r1, r2, #48	; 0x30
  406f5e:	2600      	movs	r6, #0
  406f60:	f818 2b01 	ldrb.w	r2, [r8], #1
  406f64:	eb06 0686 	add.w	r6, r6, r6, lsl #2
  406f68:	eb01 0646 	add.w	r6, r1, r6, lsl #1
  406f6c:	f1a2 0130 	sub.w	r1, r2, #48	; 0x30
  406f70:	2909      	cmp	r1, #9
  406f72:	d9f5      	bls.n	406f60 <_vfiprintf_r+0x444>
  406f74:	e646      	b.n	406c04 <_vfiprintf_r+0xe8>
  406f76:	9608      	str	r6, [sp, #32]
  406f78:	2800      	cmp	r0, #0
  406f7a:	f040 8408 	bne.w	40778e <_vfiprintf_r+0xc72>
  406f7e:	f043 0310 	orr.w	r3, r3, #16
  406f82:	069e      	lsls	r6, r3, #26
  406f84:	f100 834c 	bmi.w	407620 <_vfiprintf_r+0xb04>
  406f88:	06dd      	lsls	r5, r3, #27
  406f8a:	f100 82f3 	bmi.w	407574 <_vfiprintf_r+0xa58>
  406f8e:	0658      	lsls	r0, r3, #25
  406f90:	f140 82f0 	bpl.w	407574 <_vfiprintf_r+0xa58>
  406f94:	9d07      	ldr	r5, [sp, #28]
  406f96:	f9b5 6000 	ldrsh.w	r6, [r5]
  406f9a:	462a      	mov	r2, r5
  406f9c:	17f7      	asrs	r7, r6, #31
  406f9e:	3204      	adds	r2, #4
  406fa0:	4630      	mov	r0, r6
  406fa2:	4639      	mov	r1, r7
  406fa4:	9207      	str	r2, [sp, #28]
  406fa6:	2800      	cmp	r0, #0
  406fa8:	f171 0200 	sbcs.w	r2, r1, #0
  406fac:	f2c0 835d 	blt.w	40766a <_vfiprintf_r+0xb4e>
  406fb0:	1c61      	adds	r1, r4, #1
  406fb2:	f89d 5037 	ldrb.w	r5, [sp, #55]	; 0x37
  406fb6:	f04f 0201 	mov.w	r2, #1
  406fba:	f47f aeea 	bne.w	406d92 <_vfiprintf_r+0x276>
  406fbe:	ea56 0107 	orrs.w	r1, r6, r7
  406fc2:	f000 824d 	beq.w	407460 <_vfiprintf_r+0x944>
  406fc6:	9302      	str	r3, [sp, #8]
  406fc8:	2a01      	cmp	r2, #1
  406fca:	f000 828c 	beq.w	4074e6 <_vfiprintf_r+0x9ca>
  406fce:	2a02      	cmp	r2, #2
  406fd0:	f040 825c 	bne.w	40748c <_vfiprintf_r+0x970>
  406fd4:	980b      	ldr	r0, [sp, #44]	; 0x2c
  406fd6:	46cb      	mov	fp, r9
  406fd8:	0933      	lsrs	r3, r6, #4
  406fda:	f006 010f 	and.w	r1, r6, #15
  406fde:	ea43 7307 	orr.w	r3, r3, r7, lsl #28
  406fe2:	093a      	lsrs	r2, r7, #4
  406fe4:	461e      	mov	r6, r3
  406fe6:	4617      	mov	r7, r2
  406fe8:	5c43      	ldrb	r3, [r0, r1]
  406fea:	f80b 3d01 	strb.w	r3, [fp, #-1]!
  406fee:	ea56 0307 	orrs.w	r3, r6, r7
  406ff2:	d1f1      	bne.n	406fd8 <_vfiprintf_r+0x4bc>
  406ff4:	eba9 030b 	sub.w	r3, r9, fp
  406ff8:	9305      	str	r3, [sp, #20]
  406ffa:	e6e1      	b.n	406dc0 <_vfiprintf_r+0x2a4>
  406ffc:	2800      	cmp	r0, #0
  406ffe:	f040 83c0 	bne.w	407782 <_vfiprintf_r+0xc66>
  407002:	0699      	lsls	r1, r3, #26
  407004:	f100 8367 	bmi.w	4076d6 <_vfiprintf_r+0xbba>
  407008:	06da      	lsls	r2, r3, #27
  40700a:	f100 80f1 	bmi.w	4071f0 <_vfiprintf_r+0x6d4>
  40700e:	065b      	lsls	r3, r3, #25
  407010:	f140 80ee 	bpl.w	4071f0 <_vfiprintf_r+0x6d4>
  407014:	9a07      	ldr	r2, [sp, #28]
  407016:	6813      	ldr	r3, [r2, #0]
  407018:	3204      	adds	r2, #4
  40701a:	9207      	str	r2, [sp, #28]
  40701c:	f8bd 200c 	ldrh.w	r2, [sp, #12]
  407020:	801a      	strh	r2, [r3, #0]
  407022:	e5b8      	b.n	406b96 <_vfiprintf_r+0x7a>
  407024:	9807      	ldr	r0, [sp, #28]
  407026:	4a3d      	ldr	r2, [pc, #244]	; (40711c <_vfiprintf_r+0x600>)
  407028:	9608      	str	r6, [sp, #32]
  40702a:	920b      	str	r2, [sp, #44]	; 0x2c
  40702c:	6806      	ldr	r6, [r0, #0]
  40702e:	2278      	movs	r2, #120	; 0x78
  407030:	2130      	movs	r1, #48	; 0x30
  407032:	3004      	adds	r0, #4
  407034:	f88d 2039 	strb.w	r2, [sp, #57]	; 0x39
  407038:	f043 0302 	orr.w	r3, r3, #2
  40703c:	9007      	str	r0, [sp, #28]
  40703e:	2700      	movs	r7, #0
  407040:	f88d 1038 	strb.w	r1, [sp, #56]	; 0x38
  407044:	2202      	movs	r2, #2
  407046:	e69c      	b.n	406d82 <_vfiprintf_r+0x266>
  407048:	9608      	str	r6, [sp, #32]
  40704a:	2800      	cmp	r0, #0
  40704c:	d099      	beq.n	406f82 <_vfiprintf_r+0x466>
  40704e:	f88d 5037 	strb.w	r5, [sp, #55]	; 0x37
  407052:	e796      	b.n	406f82 <_vfiprintf_r+0x466>
  407054:	f898 2000 	ldrb.w	r2, [r8]
  407058:	2d00      	cmp	r5, #0
  40705a:	f47f add1 	bne.w	406c00 <_vfiprintf_r+0xe4>
  40705e:	2001      	movs	r0, #1
  407060:	2520      	movs	r5, #32
  407062:	e5cd      	b.n	406c00 <_vfiprintf_r+0xe4>
  407064:	f043 0301 	orr.w	r3, r3, #1
  407068:	f898 2000 	ldrb.w	r2, [r8]
  40706c:	e5c8      	b.n	406c00 <_vfiprintf_r+0xe4>
  40706e:	9608      	str	r6, [sp, #32]
  407070:	2800      	cmp	r0, #0
  407072:	f040 8393 	bne.w	40779c <_vfiprintf_r+0xc80>
  407076:	4929      	ldr	r1, [pc, #164]	; (40711c <_vfiprintf_r+0x600>)
  407078:	910b      	str	r1, [sp, #44]	; 0x2c
  40707a:	069f      	lsls	r7, r3, #26
  40707c:	f100 82e8 	bmi.w	407650 <_vfiprintf_r+0xb34>
  407080:	9807      	ldr	r0, [sp, #28]
  407082:	06de      	lsls	r6, r3, #27
  407084:	4601      	mov	r1, r0
  407086:	f100 8270 	bmi.w	40756a <_vfiprintf_r+0xa4e>
  40708a:	065d      	lsls	r5, r3, #25
  40708c:	f140 826d 	bpl.w	40756a <_vfiprintf_r+0xa4e>
  407090:	3104      	adds	r1, #4
  407092:	8806      	ldrh	r6, [r0, #0]
  407094:	9107      	str	r1, [sp, #28]
  407096:	2700      	movs	r7, #0
  407098:	07d8      	lsls	r0, r3, #31
  40709a:	f140 8222 	bpl.w	4074e2 <_vfiprintf_r+0x9c6>
  40709e:	ea56 0107 	orrs.w	r1, r6, r7
  4070a2:	f000 821e 	beq.w	4074e2 <_vfiprintf_r+0x9c6>
  4070a6:	2130      	movs	r1, #48	; 0x30
  4070a8:	f88d 2039 	strb.w	r2, [sp, #57]	; 0x39
  4070ac:	f043 0302 	orr.w	r3, r3, #2
  4070b0:	f88d 1038 	strb.w	r1, [sp, #56]	; 0x38
  4070b4:	2202      	movs	r2, #2
  4070b6:	e664      	b.n	406d82 <_vfiprintf_r+0x266>
  4070b8:	9608      	str	r6, [sp, #32]
  4070ba:	2800      	cmp	r0, #0
  4070bc:	f040 836b 	bne.w	407796 <_vfiprintf_r+0xc7a>
  4070c0:	4917      	ldr	r1, [pc, #92]	; (407120 <_vfiprintf_r+0x604>)
  4070c2:	910b      	str	r1, [sp, #44]	; 0x2c
  4070c4:	e7d9      	b.n	40707a <_vfiprintf_r+0x55e>
  4070c6:	9907      	ldr	r1, [sp, #28]
  4070c8:	9608      	str	r6, [sp, #32]
  4070ca:	680a      	ldr	r2, [r1, #0]
  4070cc:	f88d 2048 	strb.w	r2, [sp, #72]	; 0x48
  4070d0:	f04f 0000 	mov.w	r0, #0
  4070d4:	460a      	mov	r2, r1
  4070d6:	f88d 0037 	strb.w	r0, [sp, #55]	; 0x37
  4070da:	3204      	adds	r2, #4
  4070dc:	2001      	movs	r0, #1
  4070de:	9001      	str	r0, [sp, #4]
  4070e0:	9207      	str	r2, [sp, #28]
  4070e2:	9005      	str	r0, [sp, #20]
  4070e4:	f10d 0b48 	add.w	fp, sp, #72	; 0x48
  4070e8:	9302      	str	r3, [sp, #8]
  4070ea:	2400      	movs	r4, #0
  4070ec:	e670      	b.n	406dd0 <_vfiprintf_r+0x2b4>
  4070ee:	f043 0340 	orr.w	r3, r3, #64	; 0x40
  4070f2:	f898 2000 	ldrb.w	r2, [r8]
  4070f6:	e583      	b.n	406c00 <_vfiprintf_r+0xe4>
  4070f8:	f898 2000 	ldrb.w	r2, [r8]
  4070fc:	2a6c      	cmp	r2, #108	; 0x6c
  4070fe:	bf03      	ittte	eq
  407100:	f898 2001 	ldrbeq.w	r2, [r8, #1]
  407104:	f043 0320 	orreq.w	r3, r3, #32
  407108:	f108 0801 	addeq.w	r8, r8, #1
  40710c:	f043 0310 	orrne.w	r3, r3, #16
  407110:	e576      	b.n	406c00 <_vfiprintf_r+0xe4>
  407112:	bf00      	nop
  407114:	0040a1f8 	.word	0x0040a1f8
  407118:	0040a208 	.word	0x0040a208
  40711c:	0040a1dc 	.word	0x0040a1dc
  407120:	0040a1c8 	.word	0x0040a1c8
  407124:	9907      	ldr	r1, [sp, #28]
  407126:	680e      	ldr	r6, [r1, #0]
  407128:	460a      	mov	r2, r1
  40712a:	2e00      	cmp	r6, #0
  40712c:	f102 0204 	add.w	r2, r2, #4
  407130:	f6ff ae0f 	blt.w	406d52 <_vfiprintf_r+0x236>
  407134:	9207      	str	r2, [sp, #28]
  407136:	f898 2000 	ldrb.w	r2, [r8]
  40713a:	e561      	b.n	406c00 <_vfiprintf_r+0xe4>
  40713c:	f898 2000 	ldrb.w	r2, [r8]
  407140:	2001      	movs	r0, #1
  407142:	252b      	movs	r5, #43	; 0x2b
  407144:	e55c      	b.n	406c00 <_vfiprintf_r+0xe4>
  407146:	9907      	ldr	r1, [sp, #28]
  407148:	9608      	str	r6, [sp, #32]
  40714a:	f8d1 b000 	ldr.w	fp, [r1]
  40714e:	f04f 0200 	mov.w	r2, #0
  407152:	f88d 2037 	strb.w	r2, [sp, #55]	; 0x37
  407156:	1d0e      	adds	r6, r1, #4
  407158:	f1bb 0f00 	cmp.w	fp, #0
  40715c:	f000 82e5 	beq.w	40772a <_vfiprintf_r+0xc0e>
  407160:	1c67      	adds	r7, r4, #1
  407162:	f000 82c4 	beq.w	4076ee <_vfiprintf_r+0xbd2>
  407166:	4622      	mov	r2, r4
  407168:	2100      	movs	r1, #0
  40716a:	4658      	mov	r0, fp
  40716c:	9301      	str	r3, [sp, #4]
  40716e:	f001 fbd7 	bl	408920 <memchr>
  407172:	9b01      	ldr	r3, [sp, #4]
  407174:	2800      	cmp	r0, #0
  407176:	f000 82e5 	beq.w	407744 <_vfiprintf_r+0xc28>
  40717a:	eba0 020b 	sub.w	r2, r0, fp
  40717e:	9205      	str	r2, [sp, #20]
  407180:	9607      	str	r6, [sp, #28]
  407182:	9302      	str	r3, [sp, #8]
  407184:	f89d 5037 	ldrb.w	r5, [sp, #55]	; 0x37
  407188:	2400      	movs	r4, #0
  40718a:	e619      	b.n	406dc0 <_vfiprintf_r+0x2a4>
  40718c:	f898 2000 	ldrb.w	r2, [r8]
  407190:	2a2a      	cmp	r2, #42	; 0x2a
  407192:	f108 0701 	add.w	r7, r8, #1
  407196:	f000 82e9 	beq.w	40776c <_vfiprintf_r+0xc50>
  40719a:	f1a2 0130 	sub.w	r1, r2, #48	; 0x30
  40719e:	2909      	cmp	r1, #9
  4071a0:	46b8      	mov	r8, r7
  4071a2:	f04f 0400 	mov.w	r4, #0
  4071a6:	f63f ad2d 	bhi.w	406c04 <_vfiprintf_r+0xe8>
  4071aa:	f818 2b01 	ldrb.w	r2, [r8], #1
  4071ae:	eb04 0484 	add.w	r4, r4, r4, lsl #2
  4071b2:	eb01 0444 	add.w	r4, r1, r4, lsl #1
  4071b6:	f1a2 0130 	sub.w	r1, r2, #48	; 0x30
  4071ba:	2909      	cmp	r1, #9
  4071bc:	d9f5      	bls.n	4071aa <_vfiprintf_r+0x68e>
  4071be:	e521      	b.n	406c04 <_vfiprintf_r+0xe8>
  4071c0:	f043 0320 	orr.w	r3, r3, #32
  4071c4:	f898 2000 	ldrb.w	r2, [r8]
  4071c8:	e51a      	b.n	406c00 <_vfiprintf_r+0xe4>
  4071ca:	9608      	str	r6, [sp, #32]
  4071cc:	2800      	cmp	r0, #0
  4071ce:	f040 82db 	bne.w	407788 <_vfiprintf_r+0xc6c>
  4071d2:	2a00      	cmp	r2, #0
  4071d4:	f000 80e7 	beq.w	4073a6 <_vfiprintf_r+0x88a>
  4071d8:	2101      	movs	r1, #1
  4071da:	f88d 2048 	strb.w	r2, [sp, #72]	; 0x48
  4071de:	f04f 0200 	mov.w	r2, #0
  4071e2:	9101      	str	r1, [sp, #4]
  4071e4:	f88d 2037 	strb.w	r2, [sp, #55]	; 0x37
  4071e8:	9105      	str	r1, [sp, #20]
  4071ea:	f10d 0b48 	add.w	fp, sp, #72	; 0x48
  4071ee:	e77b      	b.n	4070e8 <_vfiprintf_r+0x5cc>
  4071f0:	9a07      	ldr	r2, [sp, #28]
  4071f2:	6813      	ldr	r3, [r2, #0]
  4071f4:	3204      	adds	r2, #4
  4071f6:	9207      	str	r2, [sp, #28]
  4071f8:	9a03      	ldr	r2, [sp, #12]
  4071fa:	601a      	str	r2, [r3, #0]
  4071fc:	e4cb      	b.n	406b96 <_vfiprintf_r+0x7a>
  4071fe:	aa0f      	add	r2, sp, #60	; 0x3c
  407200:	9904      	ldr	r1, [sp, #16]
  407202:	4620      	mov	r0, r4
  407204:	f7ff fc4a 	bl	406a9c <__sprint_r.part.0>
  407208:	2800      	cmp	r0, #0
  40720a:	f040 8139 	bne.w	407480 <_vfiprintf_r+0x964>
  40720e:	9910      	ldr	r1, [sp, #64]	; 0x40
  407210:	9a11      	ldr	r2, [sp, #68]	; 0x44
  407212:	f101 0c01 	add.w	ip, r1, #1
  407216:	46ce      	mov	lr, r9
  407218:	e5ff      	b.n	406e1a <_vfiprintf_r+0x2fe>
  40721a:	9910      	ldr	r1, [sp, #64]	; 0x40
  40721c:	9a11      	ldr	r2, [sp, #68]	; 0x44
  40721e:	1c48      	adds	r0, r1, #1
  407220:	f89d 5037 	ldrb.w	r5, [sp, #55]	; 0x37
  407224:	2d00      	cmp	r5, #0
  407226:	f43f ae22 	beq.w	406e6e <_vfiprintf_r+0x352>
  40722a:	3201      	adds	r2, #1
  40722c:	f10d 0537 	add.w	r5, sp, #55	; 0x37
  407230:	2101      	movs	r1, #1
  407232:	2807      	cmp	r0, #7
  407234:	9211      	str	r2, [sp, #68]	; 0x44
  407236:	9010      	str	r0, [sp, #64]	; 0x40
  407238:	f8ca 5000 	str.w	r5, [sl]
  40723c:	f8ca 1004 	str.w	r1, [sl, #4]
  407240:	f340 8108 	ble.w	407454 <_vfiprintf_r+0x938>
  407244:	2a00      	cmp	r2, #0
  407246:	f040 81bc 	bne.w	4075c2 <_vfiprintf_r+0xaa6>
  40724a:	9b09      	ldr	r3, [sp, #36]	; 0x24
  40724c:	2b00      	cmp	r3, #0
  40724e:	f43f ae1f 	beq.w	406e90 <_vfiprintf_r+0x374>
  407252:	ab0e      	add	r3, sp, #56	; 0x38
  407254:	2202      	movs	r2, #2
  407256:	4608      	mov	r0, r1
  407258:	931c      	str	r3, [sp, #112]	; 0x70
  40725a:	921d      	str	r2, [sp, #116]	; 0x74
  40725c:	46ca      	mov	sl, r9
  40725e:	4601      	mov	r1, r0
  407260:	f10a 0a08 	add.w	sl, sl, #8
  407264:	3001      	adds	r0, #1
  407266:	9b0a      	ldr	r3, [sp, #40]	; 0x28
  407268:	2b80      	cmp	r3, #128	; 0x80
  40726a:	f43f ae19 	beq.w	406ea0 <_vfiprintf_r+0x384>
  40726e:	9b05      	ldr	r3, [sp, #20]
  407270:	1ae4      	subs	r4, r4, r3
  407272:	2c00      	cmp	r4, #0
  407274:	dd2e      	ble.n	4072d4 <_vfiprintf_r+0x7b8>
  407276:	2c10      	cmp	r4, #16
  407278:	4db3      	ldr	r5, [pc, #716]	; (407548 <_vfiprintf_r+0xa2c>)
  40727a:	dd1e      	ble.n	4072ba <_vfiprintf_r+0x79e>
  40727c:	46d6      	mov	lr, sl
  40727e:	2610      	movs	r6, #16
  407280:	9f06      	ldr	r7, [sp, #24]
  407282:	f8dd a010 	ldr.w	sl, [sp, #16]
  407286:	e006      	b.n	407296 <_vfiprintf_r+0x77a>
  407288:	1c88      	adds	r0, r1, #2
  40728a:	f10e 0e08 	add.w	lr, lr, #8
  40728e:	4619      	mov	r1, r3
  407290:	3c10      	subs	r4, #16
  407292:	2c10      	cmp	r4, #16
  407294:	dd10      	ble.n	4072b8 <_vfiprintf_r+0x79c>
  407296:	1c4b      	adds	r3, r1, #1
  407298:	3210      	adds	r2, #16
  40729a:	2b07      	cmp	r3, #7
  40729c:	9211      	str	r2, [sp, #68]	; 0x44
  40729e:	e88e 0060 	stmia.w	lr, {r5, r6}
  4072a2:	9310      	str	r3, [sp, #64]	; 0x40
  4072a4:	ddf0      	ble.n	407288 <_vfiprintf_r+0x76c>
  4072a6:	2a00      	cmp	r2, #0
  4072a8:	d165      	bne.n	407376 <_vfiprintf_r+0x85a>
  4072aa:	3c10      	subs	r4, #16
  4072ac:	2c10      	cmp	r4, #16
  4072ae:	f04f 0001 	mov.w	r0, #1
  4072b2:	4611      	mov	r1, r2
  4072b4:	46ce      	mov	lr, r9
  4072b6:	dcee      	bgt.n	407296 <_vfiprintf_r+0x77a>
  4072b8:	46f2      	mov	sl, lr
  4072ba:	4422      	add	r2, r4
  4072bc:	2807      	cmp	r0, #7
  4072be:	9211      	str	r2, [sp, #68]	; 0x44
  4072c0:	f8ca 5000 	str.w	r5, [sl]
  4072c4:	f8ca 4004 	str.w	r4, [sl, #4]
  4072c8:	9010      	str	r0, [sp, #64]	; 0x40
  4072ca:	f300 8085 	bgt.w	4073d8 <_vfiprintf_r+0x8bc>
  4072ce:	f10a 0a08 	add.w	sl, sl, #8
  4072d2:	3001      	adds	r0, #1
  4072d4:	9905      	ldr	r1, [sp, #20]
  4072d6:	f8ca b000 	str.w	fp, [sl]
  4072da:	440a      	add	r2, r1
  4072dc:	2807      	cmp	r0, #7
  4072de:	9211      	str	r2, [sp, #68]	; 0x44
  4072e0:	f8ca 1004 	str.w	r1, [sl, #4]
  4072e4:	9010      	str	r0, [sp, #64]	; 0x40
  4072e6:	f340 8082 	ble.w	4073ee <_vfiprintf_r+0x8d2>
  4072ea:	2a00      	cmp	r2, #0
  4072ec:	f040 8118 	bne.w	407520 <_vfiprintf_r+0xa04>
  4072f0:	9b02      	ldr	r3, [sp, #8]
  4072f2:	9210      	str	r2, [sp, #64]	; 0x40
  4072f4:	0758      	lsls	r0, r3, #29
  4072f6:	d535      	bpl.n	407364 <_vfiprintf_r+0x848>
  4072f8:	9b08      	ldr	r3, [sp, #32]
  4072fa:	9901      	ldr	r1, [sp, #4]
  4072fc:	1a5c      	subs	r4, r3, r1
  4072fe:	2c00      	cmp	r4, #0
  407300:	f340 80e7 	ble.w	4074d2 <_vfiprintf_r+0x9b6>
  407304:	46ca      	mov	sl, r9
  407306:	2c10      	cmp	r4, #16
  407308:	f340 8218 	ble.w	40773c <_vfiprintf_r+0xc20>
  40730c:	9910      	ldr	r1, [sp, #64]	; 0x40
  40730e:	4e8f      	ldr	r6, [pc, #572]	; (40754c <_vfiprintf_r+0xa30>)
  407310:	9f06      	ldr	r7, [sp, #24]
  407312:	f8dd b010 	ldr.w	fp, [sp, #16]
  407316:	2510      	movs	r5, #16
  407318:	e006      	b.n	407328 <_vfiprintf_r+0x80c>
  40731a:	1c88      	adds	r0, r1, #2
  40731c:	f10a 0a08 	add.w	sl, sl, #8
  407320:	4619      	mov	r1, r3
  407322:	3c10      	subs	r4, #16
  407324:	2c10      	cmp	r4, #16
  407326:	dd11      	ble.n	40734c <_vfiprintf_r+0x830>
  407328:	1c4b      	adds	r3, r1, #1
  40732a:	3210      	adds	r2, #16
  40732c:	2b07      	cmp	r3, #7
  40732e:	9211      	str	r2, [sp, #68]	; 0x44
  407330:	f8ca 6000 	str.w	r6, [sl]
  407334:	f8ca 5004 	str.w	r5, [sl, #4]
  407338:	9310      	str	r3, [sp, #64]	; 0x40
  40733a:	ddee      	ble.n	40731a <_vfiprintf_r+0x7fe>
  40733c:	bb42      	cbnz	r2, 407390 <_vfiprintf_r+0x874>
  40733e:	3c10      	subs	r4, #16
  407340:	2c10      	cmp	r4, #16
  407342:	f04f 0001 	mov.w	r0, #1
  407346:	4611      	mov	r1, r2
  407348:	46ca      	mov	sl, r9
  40734a:	dced      	bgt.n	407328 <_vfiprintf_r+0x80c>
  40734c:	4422      	add	r2, r4
  40734e:	2807      	cmp	r0, #7
  407350:	9211      	str	r2, [sp, #68]	; 0x44
  407352:	f8ca 6000 	str.w	r6, [sl]
  407356:	f8ca 4004 	str.w	r4, [sl, #4]
  40735a:	9010      	str	r0, [sp, #64]	; 0x40
  40735c:	dd51      	ble.n	407402 <_vfiprintf_r+0x8e6>
  40735e:	2a00      	cmp	r2, #0
  407360:	f040 819b 	bne.w	40769a <_vfiprintf_r+0xb7e>
  407364:	9b03      	ldr	r3, [sp, #12]
  407366:	9a08      	ldr	r2, [sp, #32]
  407368:	9901      	ldr	r1, [sp, #4]
  40736a:	428a      	cmp	r2, r1
  40736c:	bfac      	ite	ge
  40736e:	189b      	addge	r3, r3, r2
  407370:	185b      	addlt	r3, r3, r1
  407372:	9303      	str	r3, [sp, #12]
  407374:	e04e      	b.n	407414 <_vfiprintf_r+0x8f8>
  407376:	aa0f      	add	r2, sp, #60	; 0x3c
  407378:	4651      	mov	r1, sl
  40737a:	4638      	mov	r0, r7
  40737c:	f7ff fb8e 	bl	406a9c <__sprint_r.part.0>
  407380:	2800      	cmp	r0, #0
  407382:	f040 813f 	bne.w	407604 <_vfiprintf_r+0xae8>
  407386:	9910      	ldr	r1, [sp, #64]	; 0x40
  407388:	9a11      	ldr	r2, [sp, #68]	; 0x44
  40738a:	1c48      	adds	r0, r1, #1
  40738c:	46ce      	mov	lr, r9
  40738e:	e77f      	b.n	407290 <_vfiprintf_r+0x774>
  407390:	aa0f      	add	r2, sp, #60	; 0x3c
  407392:	4659      	mov	r1, fp
  407394:	4638      	mov	r0, r7
  407396:	f7ff fb81 	bl	406a9c <__sprint_r.part.0>
  40739a:	b960      	cbnz	r0, 4073b6 <_vfiprintf_r+0x89a>
  40739c:	9910      	ldr	r1, [sp, #64]	; 0x40
  40739e:	9a11      	ldr	r2, [sp, #68]	; 0x44
  4073a0:	1c48      	adds	r0, r1, #1
  4073a2:	46ca      	mov	sl, r9
  4073a4:	e7bd      	b.n	407322 <_vfiprintf_r+0x806>
  4073a6:	9b11      	ldr	r3, [sp, #68]	; 0x44
  4073a8:	f8dd b010 	ldr.w	fp, [sp, #16]
  4073ac:	2b00      	cmp	r3, #0
  4073ae:	f040 81d4 	bne.w	40775a <_vfiprintf_r+0xc3e>
  4073b2:	2300      	movs	r3, #0
  4073b4:	9310      	str	r3, [sp, #64]	; 0x40
  4073b6:	f8db 3064 	ldr.w	r3, [fp, #100]	; 0x64
  4073ba:	f013 0f01 	tst.w	r3, #1
  4073be:	f8bb 300c 	ldrh.w	r3, [fp, #12]
  4073c2:	d102      	bne.n	4073ca <_vfiprintf_r+0x8ae>
  4073c4:	059a      	lsls	r2, r3, #22
  4073c6:	f140 80de 	bpl.w	407586 <_vfiprintf_r+0xa6a>
  4073ca:	065b      	lsls	r3, r3, #25
  4073cc:	f53f acb2 	bmi.w	406d34 <_vfiprintf_r+0x218>
  4073d0:	9803      	ldr	r0, [sp, #12]
  4073d2:	b02d      	add	sp, #180	; 0xb4
  4073d4:	e8bd 8ff0 	ldmia.w	sp!, {r4, r5, r6, r7, r8, r9, sl, fp, pc}
  4073d8:	2a00      	cmp	r2, #0
  4073da:	f040 8106 	bne.w	4075ea <_vfiprintf_r+0xace>
  4073de:	9a05      	ldr	r2, [sp, #20]
  4073e0:	921d      	str	r2, [sp, #116]	; 0x74
  4073e2:	2301      	movs	r3, #1
  4073e4:	9211      	str	r2, [sp, #68]	; 0x44
  4073e6:	f8cd b070 	str.w	fp, [sp, #112]	; 0x70
  4073ea:	9310      	str	r3, [sp, #64]	; 0x40
  4073ec:	46ca      	mov	sl, r9
  4073ee:	f10a 0a08 	add.w	sl, sl, #8
  4073f2:	9b02      	ldr	r3, [sp, #8]
  4073f4:	0759      	lsls	r1, r3, #29
  4073f6:	d504      	bpl.n	407402 <_vfiprintf_r+0x8e6>
  4073f8:	9b08      	ldr	r3, [sp, #32]
  4073fa:	9901      	ldr	r1, [sp, #4]
  4073fc:	1a5c      	subs	r4, r3, r1
  4073fe:	2c00      	cmp	r4, #0
  407400:	dc81      	bgt.n	407306 <_vfiprintf_r+0x7ea>
  407402:	9b03      	ldr	r3, [sp, #12]
  407404:	9908      	ldr	r1, [sp, #32]
  407406:	9801      	ldr	r0, [sp, #4]
  407408:	4281      	cmp	r1, r0
  40740a:	bfac      	ite	ge
  40740c:	185b      	addge	r3, r3, r1
  40740e:	181b      	addlt	r3, r3, r0
  407410:	9303      	str	r3, [sp, #12]
  407412:	bb72      	cbnz	r2, 407472 <_vfiprintf_r+0x956>
  407414:	2300      	movs	r3, #0
  407416:	9310      	str	r3, [sp, #64]	; 0x40
  407418:	46ca      	mov	sl, r9
  40741a:	f7ff bbbc 	b.w	406b96 <_vfiprintf_r+0x7a>
  40741e:	aa0f      	add	r2, sp, #60	; 0x3c
  407420:	9904      	ldr	r1, [sp, #16]
  407422:	4620      	mov	r0, r4
  407424:	f7ff fb3a 	bl	406a9c <__sprint_r.part.0>
  407428:	bb50      	cbnz	r0, 407480 <_vfiprintf_r+0x964>
  40742a:	9910      	ldr	r1, [sp, #64]	; 0x40
  40742c:	9a11      	ldr	r2, [sp, #68]	; 0x44
  40742e:	f101 0e01 	add.w	lr, r1, #1
  407432:	46cc      	mov	ip, r9
  407434:	e548      	b.n	406ec8 <_vfiprintf_r+0x3ac>
  407436:	2a00      	cmp	r2, #0
  407438:	f040 8140 	bne.w	4076bc <_vfiprintf_r+0xba0>
  40743c:	f89d 1037 	ldrb.w	r1, [sp, #55]	; 0x37
  407440:	2900      	cmp	r1, #0
  407442:	f000 811b 	beq.w	40767c <_vfiprintf_r+0xb60>
  407446:	2201      	movs	r2, #1
  407448:	f10d 0137 	add.w	r1, sp, #55	; 0x37
  40744c:	4610      	mov	r0, r2
  40744e:	921d      	str	r2, [sp, #116]	; 0x74
  407450:	911c      	str	r1, [sp, #112]	; 0x70
  407452:	46ca      	mov	sl, r9
  407454:	4601      	mov	r1, r0
  407456:	f10a 0a08 	add.w	sl, sl, #8
  40745a:	3001      	adds	r0, #1
  40745c:	e507      	b.n	406e6e <_vfiprintf_r+0x352>
  40745e:	9b02      	ldr	r3, [sp, #8]
  407460:	2a01      	cmp	r2, #1
  407462:	f000 8098 	beq.w	407596 <_vfiprintf_r+0xa7a>
  407466:	2a02      	cmp	r2, #2
  407468:	d10d      	bne.n	407486 <_vfiprintf_r+0x96a>
  40746a:	9302      	str	r3, [sp, #8]
  40746c:	2600      	movs	r6, #0
  40746e:	2700      	movs	r7, #0
  407470:	e5b0      	b.n	406fd4 <_vfiprintf_r+0x4b8>
  407472:	aa0f      	add	r2, sp, #60	; 0x3c
  407474:	9904      	ldr	r1, [sp, #16]
  407476:	9806      	ldr	r0, [sp, #24]
  407478:	f7ff fb10 	bl	406a9c <__sprint_r.part.0>
  40747c:	2800      	cmp	r0, #0
  40747e:	d0c9      	beq.n	407414 <_vfiprintf_r+0x8f8>
  407480:	f8dd b010 	ldr.w	fp, [sp, #16]
  407484:	e797      	b.n	4073b6 <_vfiprintf_r+0x89a>
  407486:	9302      	str	r3, [sp, #8]
  407488:	2600      	movs	r6, #0
  40748a:	2700      	movs	r7, #0
  40748c:	4649      	mov	r1, r9
  40748e:	e000      	b.n	407492 <_vfiprintf_r+0x976>
  407490:	4659      	mov	r1, fp
  407492:	08f2      	lsrs	r2, r6, #3
  407494:	ea42 7247 	orr.w	r2, r2, r7, lsl #29
  407498:	08f8      	lsrs	r0, r7, #3
  40749a:	f006 0307 	and.w	r3, r6, #7
  40749e:	4607      	mov	r7, r0
  4074a0:	4616      	mov	r6, r2
  4074a2:	3330      	adds	r3, #48	; 0x30
  4074a4:	ea56 0207 	orrs.w	r2, r6, r7
  4074a8:	f801 3c01 	strb.w	r3, [r1, #-1]
  4074ac:	f101 3bff 	add.w	fp, r1, #4294967295
  4074b0:	d1ee      	bne.n	407490 <_vfiprintf_r+0x974>
  4074b2:	9a02      	ldr	r2, [sp, #8]
  4074b4:	07d6      	lsls	r6, r2, #31
  4074b6:	f57f ad9d 	bpl.w	406ff4 <_vfiprintf_r+0x4d8>
  4074ba:	2b30      	cmp	r3, #48	; 0x30
  4074bc:	f43f ad9a 	beq.w	406ff4 <_vfiprintf_r+0x4d8>
  4074c0:	3902      	subs	r1, #2
  4074c2:	2330      	movs	r3, #48	; 0x30
  4074c4:	f80b 3c01 	strb.w	r3, [fp, #-1]
  4074c8:	eba9 0301 	sub.w	r3, r9, r1
  4074cc:	9305      	str	r3, [sp, #20]
  4074ce:	468b      	mov	fp, r1
  4074d0:	e476      	b.n	406dc0 <_vfiprintf_r+0x2a4>
  4074d2:	9b03      	ldr	r3, [sp, #12]
  4074d4:	9a08      	ldr	r2, [sp, #32]
  4074d6:	428a      	cmp	r2, r1
  4074d8:	bfac      	ite	ge
  4074da:	189b      	addge	r3, r3, r2
  4074dc:	185b      	addlt	r3, r3, r1
  4074de:	9303      	str	r3, [sp, #12]
  4074e0:	e798      	b.n	407414 <_vfiprintf_r+0x8f8>
  4074e2:	2202      	movs	r2, #2
  4074e4:	e44d      	b.n	406d82 <_vfiprintf_r+0x266>
  4074e6:	2f00      	cmp	r7, #0
  4074e8:	bf08      	it	eq
  4074ea:	2e0a      	cmpeq	r6, #10
  4074ec:	d352      	bcc.n	407594 <_vfiprintf_r+0xa78>
  4074ee:	46cb      	mov	fp, r9
  4074f0:	4630      	mov	r0, r6
  4074f2:	4639      	mov	r1, r7
  4074f4:	220a      	movs	r2, #10
  4074f6:	2300      	movs	r3, #0
  4074f8:	f001 fe9c 	bl	409234 <__aeabi_uldivmod>
  4074fc:	3230      	adds	r2, #48	; 0x30
  4074fe:	f80b 2d01 	strb.w	r2, [fp, #-1]!
  407502:	4630      	mov	r0, r6
  407504:	4639      	mov	r1, r7
  407506:	2300      	movs	r3, #0
  407508:	220a      	movs	r2, #10
  40750a:	f001 fe93 	bl	409234 <__aeabi_uldivmod>
  40750e:	4606      	mov	r6, r0
  407510:	460f      	mov	r7, r1
  407512:	ea56 0307 	orrs.w	r3, r6, r7
  407516:	d1eb      	bne.n	4074f0 <_vfiprintf_r+0x9d4>
  407518:	e56c      	b.n	406ff4 <_vfiprintf_r+0x4d8>
  40751a:	9405      	str	r4, [sp, #20]
  40751c:	46cb      	mov	fp, r9
  40751e:	e44f      	b.n	406dc0 <_vfiprintf_r+0x2a4>
  407520:	aa0f      	add	r2, sp, #60	; 0x3c
  407522:	9904      	ldr	r1, [sp, #16]
  407524:	9806      	ldr	r0, [sp, #24]
  407526:	f7ff fab9 	bl	406a9c <__sprint_r.part.0>
  40752a:	2800      	cmp	r0, #0
  40752c:	d1a8      	bne.n	407480 <_vfiprintf_r+0x964>
  40752e:	9a11      	ldr	r2, [sp, #68]	; 0x44
  407530:	46ca      	mov	sl, r9
  407532:	e75e      	b.n	4073f2 <_vfiprintf_r+0x8d6>
  407534:	aa0f      	add	r2, sp, #60	; 0x3c
  407536:	9904      	ldr	r1, [sp, #16]
  407538:	9806      	ldr	r0, [sp, #24]
  40753a:	f7ff faaf 	bl	406a9c <__sprint_r.part.0>
  40753e:	2800      	cmp	r0, #0
  407540:	d19e      	bne.n	407480 <_vfiprintf_r+0x964>
  407542:	46ca      	mov	sl, r9
  407544:	f7ff bbc0 	b.w	406cc8 <_vfiprintf_r+0x1ac>
  407548:	0040a208 	.word	0x0040a208
  40754c:	0040a1f8 	.word	0x0040a1f8
  407550:	3104      	adds	r1, #4
  407552:	6816      	ldr	r6, [r2, #0]
  407554:	9107      	str	r1, [sp, #28]
  407556:	2201      	movs	r2, #1
  407558:	2700      	movs	r7, #0
  40755a:	e412      	b.n	406d82 <_vfiprintf_r+0x266>
  40755c:	9807      	ldr	r0, [sp, #28]
  40755e:	4601      	mov	r1, r0
  407560:	3104      	adds	r1, #4
  407562:	6806      	ldr	r6, [r0, #0]
  407564:	9107      	str	r1, [sp, #28]
  407566:	2700      	movs	r7, #0
  407568:	e40b      	b.n	406d82 <_vfiprintf_r+0x266>
  40756a:	680e      	ldr	r6, [r1, #0]
  40756c:	3104      	adds	r1, #4
  40756e:	9107      	str	r1, [sp, #28]
  407570:	2700      	movs	r7, #0
  407572:	e591      	b.n	407098 <_vfiprintf_r+0x57c>
  407574:	9907      	ldr	r1, [sp, #28]
  407576:	680e      	ldr	r6, [r1, #0]
  407578:	460a      	mov	r2, r1
  40757a:	17f7      	asrs	r7, r6, #31
  40757c:	3204      	adds	r2, #4
  40757e:	9207      	str	r2, [sp, #28]
  407580:	4630      	mov	r0, r6
  407582:	4639      	mov	r1, r7
  407584:	e50f      	b.n	406fa6 <_vfiprintf_r+0x48a>
  407586:	f8db 0058 	ldr.w	r0, [fp, #88]	; 0x58
  40758a:	f000 fe7f 	bl	40828c <__retarget_lock_release_recursive>
  40758e:	f8bb 300c 	ldrh.w	r3, [fp, #12]
  407592:	e71a      	b.n	4073ca <_vfiprintf_r+0x8ae>
  407594:	9b02      	ldr	r3, [sp, #8]
  407596:	9302      	str	r3, [sp, #8]
  407598:	f10d 0bb0 	add.w	fp, sp, #176	; 0xb0
  40759c:	3630      	adds	r6, #48	; 0x30
  40759e:	2301      	movs	r3, #1
  4075a0:	f80b 6d41 	strb.w	r6, [fp, #-65]!
  4075a4:	9305      	str	r3, [sp, #20]
  4075a6:	e40b      	b.n	406dc0 <_vfiprintf_r+0x2a4>
  4075a8:	aa0f      	add	r2, sp, #60	; 0x3c
  4075aa:	9904      	ldr	r1, [sp, #16]
  4075ac:	9806      	ldr	r0, [sp, #24]
  4075ae:	f7ff fa75 	bl	406a9c <__sprint_r.part.0>
  4075b2:	2800      	cmp	r0, #0
  4075b4:	f47f af64 	bne.w	407480 <_vfiprintf_r+0x964>
  4075b8:	9910      	ldr	r1, [sp, #64]	; 0x40
  4075ba:	9a11      	ldr	r2, [sp, #68]	; 0x44
  4075bc:	1c48      	adds	r0, r1, #1
  4075be:	46ca      	mov	sl, r9
  4075c0:	e651      	b.n	407266 <_vfiprintf_r+0x74a>
  4075c2:	aa0f      	add	r2, sp, #60	; 0x3c
  4075c4:	9904      	ldr	r1, [sp, #16]
  4075c6:	9806      	ldr	r0, [sp, #24]
  4075c8:	f7ff fa68 	bl	406a9c <__sprint_r.part.0>
  4075cc:	2800      	cmp	r0, #0
  4075ce:	f47f af57 	bne.w	407480 <_vfiprintf_r+0x964>
  4075d2:	9910      	ldr	r1, [sp, #64]	; 0x40
  4075d4:	9a11      	ldr	r2, [sp, #68]	; 0x44
  4075d6:	1c48      	adds	r0, r1, #1
  4075d8:	46ca      	mov	sl, r9
  4075da:	e448      	b.n	406e6e <_vfiprintf_r+0x352>
  4075dc:	2a00      	cmp	r2, #0
  4075de:	f040 8091 	bne.w	407704 <_vfiprintf_r+0xbe8>
  4075e2:	2001      	movs	r0, #1
  4075e4:	4611      	mov	r1, r2
  4075e6:	46ca      	mov	sl, r9
  4075e8:	e641      	b.n	40726e <_vfiprintf_r+0x752>
  4075ea:	aa0f      	add	r2, sp, #60	; 0x3c
  4075ec:	9904      	ldr	r1, [sp, #16]
  4075ee:	9806      	ldr	r0, [sp, #24]
  4075f0:	f7ff fa54 	bl	406a9c <__sprint_r.part.0>
  4075f4:	2800      	cmp	r0, #0
  4075f6:	f47f af43 	bne.w	407480 <_vfiprintf_r+0x964>
  4075fa:	9810      	ldr	r0, [sp, #64]	; 0x40
  4075fc:	9a11      	ldr	r2, [sp, #68]	; 0x44
  4075fe:	3001      	adds	r0, #1
  407600:	46ca      	mov	sl, r9
  407602:	e667      	b.n	4072d4 <_vfiprintf_r+0x7b8>
  407604:	46d3      	mov	fp, sl
  407606:	e6d6      	b.n	4073b6 <_vfiprintf_r+0x89a>
  407608:	9e07      	ldr	r6, [sp, #28]
  40760a:	3607      	adds	r6, #7
  40760c:	f026 0207 	bic.w	r2, r6, #7
  407610:	f102 0108 	add.w	r1, r2, #8
  407614:	e9d2 6700 	ldrd	r6, r7, [r2]
  407618:	9107      	str	r1, [sp, #28]
  40761a:	2201      	movs	r2, #1
  40761c:	f7ff bbb1 	b.w	406d82 <_vfiprintf_r+0x266>
  407620:	9e07      	ldr	r6, [sp, #28]
  407622:	3607      	adds	r6, #7
  407624:	f026 0607 	bic.w	r6, r6, #7
  407628:	e9d6 0100 	ldrd	r0, r1, [r6]
  40762c:	f106 0208 	add.w	r2, r6, #8
  407630:	9207      	str	r2, [sp, #28]
  407632:	4606      	mov	r6, r0
  407634:	460f      	mov	r7, r1
  407636:	e4b6      	b.n	406fa6 <_vfiprintf_r+0x48a>
  407638:	9e07      	ldr	r6, [sp, #28]
  40763a:	3607      	adds	r6, #7
  40763c:	f026 0207 	bic.w	r2, r6, #7
  407640:	f102 0108 	add.w	r1, r2, #8
  407644:	e9d2 6700 	ldrd	r6, r7, [r2]
  407648:	9107      	str	r1, [sp, #28]
  40764a:	2200      	movs	r2, #0
  40764c:	f7ff bb99 	b.w	406d82 <_vfiprintf_r+0x266>
  407650:	9e07      	ldr	r6, [sp, #28]
  407652:	3607      	adds	r6, #7
  407654:	f026 0107 	bic.w	r1, r6, #7
  407658:	f101 0008 	add.w	r0, r1, #8
  40765c:	9007      	str	r0, [sp, #28]
  40765e:	e9d1 6700 	ldrd	r6, r7, [r1]
  407662:	e519      	b.n	407098 <_vfiprintf_r+0x57c>
  407664:	46cb      	mov	fp, r9
  407666:	f7ff bbab 	b.w	406dc0 <_vfiprintf_r+0x2a4>
  40766a:	252d      	movs	r5, #45	; 0x2d
  40766c:	4276      	negs	r6, r6
  40766e:	eb67 0747 	sbc.w	r7, r7, r7, lsl #1
  407672:	f88d 5037 	strb.w	r5, [sp, #55]	; 0x37
  407676:	2201      	movs	r2, #1
  407678:	f7ff bb88 	b.w	406d8c <_vfiprintf_r+0x270>
  40767c:	9b09      	ldr	r3, [sp, #36]	; 0x24
  40767e:	b9b3      	cbnz	r3, 4076ae <_vfiprintf_r+0xb92>
  407680:	4611      	mov	r1, r2
  407682:	2001      	movs	r0, #1
  407684:	46ca      	mov	sl, r9
  407686:	e5f2      	b.n	40726e <_vfiprintf_r+0x752>
  407688:	f8db 0058 	ldr.w	r0, [fp, #88]	; 0x58
  40768c:	f000 fdfe 	bl	40828c <__retarget_lock_release_recursive>
  407690:	f04f 33ff 	mov.w	r3, #4294967295
  407694:	9303      	str	r3, [sp, #12]
  407696:	f7ff bb50 	b.w	406d3a <_vfiprintf_r+0x21e>
  40769a:	aa0f      	add	r2, sp, #60	; 0x3c
  40769c:	9904      	ldr	r1, [sp, #16]
  40769e:	9806      	ldr	r0, [sp, #24]
  4076a0:	f7ff f9fc 	bl	406a9c <__sprint_r.part.0>
  4076a4:	2800      	cmp	r0, #0
  4076a6:	f47f aeeb 	bne.w	407480 <_vfiprintf_r+0x964>
  4076aa:	9a11      	ldr	r2, [sp, #68]	; 0x44
  4076ac:	e6a9      	b.n	407402 <_vfiprintf_r+0x8e6>
  4076ae:	ab0e      	add	r3, sp, #56	; 0x38
  4076b0:	2202      	movs	r2, #2
  4076b2:	931c      	str	r3, [sp, #112]	; 0x70
  4076b4:	921d      	str	r2, [sp, #116]	; 0x74
  4076b6:	2001      	movs	r0, #1
  4076b8:	46ca      	mov	sl, r9
  4076ba:	e5d0      	b.n	40725e <_vfiprintf_r+0x742>
  4076bc:	aa0f      	add	r2, sp, #60	; 0x3c
  4076be:	9904      	ldr	r1, [sp, #16]
  4076c0:	9806      	ldr	r0, [sp, #24]
  4076c2:	f7ff f9eb 	bl	406a9c <__sprint_r.part.0>
  4076c6:	2800      	cmp	r0, #0
  4076c8:	f47f aeda 	bne.w	407480 <_vfiprintf_r+0x964>
  4076cc:	9910      	ldr	r1, [sp, #64]	; 0x40
  4076ce:	9a11      	ldr	r2, [sp, #68]	; 0x44
  4076d0:	1c48      	adds	r0, r1, #1
  4076d2:	46ca      	mov	sl, r9
  4076d4:	e5a4      	b.n	407220 <_vfiprintf_r+0x704>
  4076d6:	9a07      	ldr	r2, [sp, #28]
  4076d8:	9903      	ldr	r1, [sp, #12]
  4076da:	6813      	ldr	r3, [r2, #0]
  4076dc:	17cd      	asrs	r5, r1, #31
  4076de:	4608      	mov	r0, r1
  4076e0:	3204      	adds	r2, #4
  4076e2:	4629      	mov	r1, r5
  4076e4:	9207      	str	r2, [sp, #28]
  4076e6:	e9c3 0100 	strd	r0, r1, [r3]
  4076ea:	f7ff ba54 	b.w	406b96 <_vfiprintf_r+0x7a>
  4076ee:	4658      	mov	r0, fp
  4076f0:	9607      	str	r6, [sp, #28]
  4076f2:	9302      	str	r3, [sp, #8]
  4076f4:	f7ff f964 	bl	4069c0 <strlen>
  4076f8:	2400      	movs	r4, #0
  4076fa:	9005      	str	r0, [sp, #20]
  4076fc:	f89d 5037 	ldrb.w	r5, [sp, #55]	; 0x37
  407700:	f7ff bb5e 	b.w	406dc0 <_vfiprintf_r+0x2a4>
  407704:	aa0f      	add	r2, sp, #60	; 0x3c
  407706:	9904      	ldr	r1, [sp, #16]
  407708:	9806      	ldr	r0, [sp, #24]
  40770a:	f7ff f9c7 	bl	406a9c <__sprint_r.part.0>
  40770e:	2800      	cmp	r0, #0
  407710:	f47f aeb6 	bne.w	407480 <_vfiprintf_r+0x964>
  407714:	9910      	ldr	r1, [sp, #64]	; 0x40
  407716:	9a11      	ldr	r2, [sp, #68]	; 0x44
  407718:	1c48      	adds	r0, r1, #1
  40771a:	46ca      	mov	sl, r9
  40771c:	e5a7      	b.n	40726e <_vfiprintf_r+0x752>
  40771e:	9910      	ldr	r1, [sp, #64]	; 0x40
  407720:	9a11      	ldr	r2, [sp, #68]	; 0x44
  407722:	4e20      	ldr	r6, [pc, #128]	; (4077a4 <_vfiprintf_r+0xc88>)
  407724:	3101      	adds	r1, #1
  407726:	f7ff bb90 	b.w	406e4a <_vfiprintf_r+0x32e>
  40772a:	2c06      	cmp	r4, #6
  40772c:	bf28      	it	cs
  40772e:	2406      	movcs	r4, #6
  407730:	9405      	str	r4, [sp, #20]
  407732:	9607      	str	r6, [sp, #28]
  407734:	9401      	str	r4, [sp, #4]
  407736:	f8df b070 	ldr.w	fp, [pc, #112]	; 4077a8 <_vfiprintf_r+0xc8c>
  40773a:	e4d5      	b.n	4070e8 <_vfiprintf_r+0x5cc>
  40773c:	9810      	ldr	r0, [sp, #64]	; 0x40
  40773e:	4e19      	ldr	r6, [pc, #100]	; (4077a4 <_vfiprintf_r+0xc88>)
  407740:	3001      	adds	r0, #1
  407742:	e603      	b.n	40734c <_vfiprintf_r+0x830>
  407744:	9405      	str	r4, [sp, #20]
  407746:	f89d 5037 	ldrb.w	r5, [sp, #55]	; 0x37
  40774a:	9607      	str	r6, [sp, #28]
  40774c:	9302      	str	r3, [sp, #8]
  40774e:	4604      	mov	r4, r0
  407750:	f7ff bb36 	b.w	406dc0 <_vfiprintf_r+0x2a4>
  407754:	4686      	mov	lr, r0
  407756:	f7ff bbce 	b.w	406ef6 <_vfiprintf_r+0x3da>
  40775a:	9806      	ldr	r0, [sp, #24]
  40775c:	aa0f      	add	r2, sp, #60	; 0x3c
  40775e:	4659      	mov	r1, fp
  407760:	f7ff f99c 	bl	406a9c <__sprint_r.part.0>
  407764:	2800      	cmp	r0, #0
  407766:	f43f ae24 	beq.w	4073b2 <_vfiprintf_r+0x896>
  40776a:	e624      	b.n	4073b6 <_vfiprintf_r+0x89a>
  40776c:	9907      	ldr	r1, [sp, #28]
  40776e:	f898 2001 	ldrb.w	r2, [r8, #1]
  407772:	680c      	ldr	r4, [r1, #0]
  407774:	3104      	adds	r1, #4
  407776:	ea44 74e4 	orr.w	r4, r4, r4, asr #31
  40777a:	46b8      	mov	r8, r7
  40777c:	9107      	str	r1, [sp, #28]
  40777e:	f7ff ba3f 	b.w	406c00 <_vfiprintf_r+0xe4>
  407782:	f88d 5037 	strb.w	r5, [sp, #55]	; 0x37
  407786:	e43c      	b.n	407002 <_vfiprintf_r+0x4e6>
  407788:	f88d 5037 	strb.w	r5, [sp, #55]	; 0x37
  40778c:	e521      	b.n	4071d2 <_vfiprintf_r+0x6b6>
  40778e:	f88d 5037 	strb.w	r5, [sp, #55]	; 0x37
  407792:	f7ff bbf4 	b.w	406f7e <_vfiprintf_r+0x462>
  407796:	f88d 5037 	strb.w	r5, [sp, #55]	; 0x37
  40779a:	e491      	b.n	4070c0 <_vfiprintf_r+0x5a4>
  40779c:	f88d 5037 	strb.w	r5, [sp, #55]	; 0x37
  4077a0:	e469      	b.n	407076 <_vfiprintf_r+0x55a>
  4077a2:	bf00      	nop
  4077a4:	0040a1f8 	.word	0x0040a1f8
  4077a8:	0040a1f0 	.word	0x0040a1f0

004077ac <__sbprintf>:
  4077ac:	e92d 41f0 	stmdb	sp!, {r4, r5, r6, r7, r8, lr}
  4077b0:	460c      	mov	r4, r1
  4077b2:	f5ad 6d8d 	sub.w	sp, sp, #1128	; 0x468
  4077b6:	8989      	ldrh	r1, [r1, #12]
  4077b8:	6e66      	ldr	r6, [r4, #100]	; 0x64
  4077ba:	89e5      	ldrh	r5, [r4, #14]
  4077bc:	9619      	str	r6, [sp, #100]	; 0x64
  4077be:	f021 0102 	bic.w	r1, r1, #2
  4077c2:	4606      	mov	r6, r0
  4077c4:	69e0      	ldr	r0, [r4, #28]
  4077c6:	f8ad 100c 	strh.w	r1, [sp, #12]
  4077ca:	4617      	mov	r7, r2
  4077cc:	f44f 6180 	mov.w	r1, #1024	; 0x400
  4077d0:	6a62      	ldr	r2, [r4, #36]	; 0x24
  4077d2:	f8ad 500e 	strh.w	r5, [sp, #14]
  4077d6:	4698      	mov	r8, r3
  4077d8:	ad1a      	add	r5, sp, #104	; 0x68
  4077da:	2300      	movs	r3, #0
  4077dc:	9007      	str	r0, [sp, #28]
  4077de:	a816      	add	r0, sp, #88	; 0x58
  4077e0:	9209      	str	r2, [sp, #36]	; 0x24
  4077e2:	9306      	str	r3, [sp, #24]
  4077e4:	9500      	str	r5, [sp, #0]
  4077e6:	9504      	str	r5, [sp, #16]
  4077e8:	9102      	str	r1, [sp, #8]
  4077ea:	9105      	str	r1, [sp, #20]
  4077ec:	f000 fd48 	bl	408280 <__retarget_lock_init_recursive>
  4077f0:	4643      	mov	r3, r8
  4077f2:	463a      	mov	r2, r7
  4077f4:	4669      	mov	r1, sp
  4077f6:	4630      	mov	r0, r6
  4077f8:	f7ff f990 	bl	406b1c <_vfiprintf_r>
  4077fc:	1e05      	subs	r5, r0, #0
  4077fe:	db07      	blt.n	407810 <__sbprintf+0x64>
  407800:	4630      	mov	r0, r6
  407802:	4669      	mov	r1, sp
  407804:	f000 f928 	bl	407a58 <_fflush_r>
  407808:	2800      	cmp	r0, #0
  40780a:	bf18      	it	ne
  40780c:	f04f 35ff 	movne.w	r5, #4294967295
  407810:	f8bd 300c 	ldrh.w	r3, [sp, #12]
  407814:	065b      	lsls	r3, r3, #25
  407816:	d503      	bpl.n	407820 <__sbprintf+0x74>
  407818:	89a3      	ldrh	r3, [r4, #12]
  40781a:	f043 0340 	orr.w	r3, r3, #64	; 0x40
  40781e:	81a3      	strh	r3, [r4, #12]
  407820:	9816      	ldr	r0, [sp, #88]	; 0x58
  407822:	f000 fd2f 	bl	408284 <__retarget_lock_close_recursive>
  407826:	4628      	mov	r0, r5
  407828:	f50d 6d8d 	add.w	sp, sp, #1128	; 0x468
  40782c:	e8bd 81f0 	ldmia.w	sp!, {r4, r5, r6, r7, r8, pc}

00407830 <__swsetup_r>:
  407830:	b538      	push	{r3, r4, r5, lr}
  407832:	4b30      	ldr	r3, [pc, #192]	; (4078f4 <__swsetup_r+0xc4>)
  407834:	681b      	ldr	r3, [r3, #0]
  407836:	4605      	mov	r5, r0
  407838:	460c      	mov	r4, r1
  40783a:	b113      	cbz	r3, 407842 <__swsetup_r+0x12>
  40783c:	6b9a      	ldr	r2, [r3, #56]	; 0x38
  40783e:	2a00      	cmp	r2, #0
  407840:	d038      	beq.n	4078b4 <__swsetup_r+0x84>
  407842:	f9b4 200c 	ldrsh.w	r2, [r4, #12]
  407846:	b293      	uxth	r3, r2
  407848:	0718      	lsls	r0, r3, #28
  40784a:	d50c      	bpl.n	407866 <__swsetup_r+0x36>
  40784c:	6920      	ldr	r0, [r4, #16]
  40784e:	b1a8      	cbz	r0, 40787c <__swsetup_r+0x4c>
  407850:	f013 0201 	ands.w	r2, r3, #1
  407854:	d01e      	beq.n	407894 <__swsetup_r+0x64>
  407856:	6963      	ldr	r3, [r4, #20]
  407858:	2200      	movs	r2, #0
  40785a:	425b      	negs	r3, r3
  40785c:	61a3      	str	r3, [r4, #24]
  40785e:	60a2      	str	r2, [r4, #8]
  407860:	b1f0      	cbz	r0, 4078a0 <__swsetup_r+0x70>
  407862:	2000      	movs	r0, #0
  407864:	bd38      	pop	{r3, r4, r5, pc}
  407866:	06d9      	lsls	r1, r3, #27
  407868:	d53c      	bpl.n	4078e4 <__swsetup_r+0xb4>
  40786a:	0758      	lsls	r0, r3, #29
  40786c:	d426      	bmi.n	4078bc <__swsetup_r+0x8c>
  40786e:	6920      	ldr	r0, [r4, #16]
  407870:	f042 0308 	orr.w	r3, r2, #8
  407874:	81a3      	strh	r3, [r4, #12]
  407876:	b29b      	uxth	r3, r3
  407878:	2800      	cmp	r0, #0
  40787a:	d1e9      	bne.n	407850 <__swsetup_r+0x20>
  40787c:	f403 7220 	and.w	r2, r3, #640	; 0x280
  407880:	f5b2 7f00 	cmp.w	r2, #512	; 0x200
  407884:	d0e4      	beq.n	407850 <__swsetup_r+0x20>
  407886:	4628      	mov	r0, r5
  407888:	4621      	mov	r1, r4
  40788a:	f000 fd2f 	bl	4082ec <__smakebuf_r>
  40788e:	89a3      	ldrh	r3, [r4, #12]
  407890:	6920      	ldr	r0, [r4, #16]
  407892:	e7dd      	b.n	407850 <__swsetup_r+0x20>
  407894:	0799      	lsls	r1, r3, #30
  407896:	bf58      	it	pl
  407898:	6962      	ldrpl	r2, [r4, #20]
  40789a:	60a2      	str	r2, [r4, #8]
  40789c:	2800      	cmp	r0, #0
  40789e:	d1e0      	bne.n	407862 <__swsetup_r+0x32>
  4078a0:	f9b4 300c 	ldrsh.w	r3, [r4, #12]
  4078a4:	061a      	lsls	r2, r3, #24
  4078a6:	d5dd      	bpl.n	407864 <__swsetup_r+0x34>
  4078a8:	f043 0340 	orr.w	r3, r3, #64	; 0x40
  4078ac:	81a3      	strh	r3, [r4, #12]
  4078ae:	f04f 30ff 	mov.w	r0, #4294967295
  4078b2:	bd38      	pop	{r3, r4, r5, pc}
  4078b4:	4618      	mov	r0, r3
  4078b6:	f000 f927 	bl	407b08 <__sinit>
  4078ba:	e7c2      	b.n	407842 <__swsetup_r+0x12>
  4078bc:	6b21      	ldr	r1, [r4, #48]	; 0x30
  4078be:	b151      	cbz	r1, 4078d6 <__swsetup_r+0xa6>
  4078c0:	f104 0340 	add.w	r3, r4, #64	; 0x40
  4078c4:	4299      	cmp	r1, r3
  4078c6:	d004      	beq.n	4078d2 <__swsetup_r+0xa2>
  4078c8:	4628      	mov	r0, r5
  4078ca:	f000 fa43 	bl	407d54 <_free_r>
  4078ce:	f9b4 200c 	ldrsh.w	r2, [r4, #12]
  4078d2:	2300      	movs	r3, #0
  4078d4:	6323      	str	r3, [r4, #48]	; 0x30
  4078d6:	2300      	movs	r3, #0
  4078d8:	6920      	ldr	r0, [r4, #16]
  4078da:	6063      	str	r3, [r4, #4]
  4078dc:	f022 0224 	bic.w	r2, r2, #36	; 0x24
  4078e0:	6020      	str	r0, [r4, #0]
  4078e2:	e7c5      	b.n	407870 <__swsetup_r+0x40>
  4078e4:	f042 0240 	orr.w	r2, r2, #64	; 0x40
  4078e8:	2309      	movs	r3, #9
  4078ea:	602b      	str	r3, [r5, #0]
  4078ec:	f04f 30ff 	mov.w	r0, #4294967295
  4078f0:	81a2      	strh	r2, [r4, #12]
  4078f2:	bd38      	pop	{r3, r4, r5, pc}
  4078f4:	20400034 	.word	0x20400034

004078f8 <register_fini>:
  4078f8:	4b02      	ldr	r3, [pc, #8]	; (407904 <register_fini+0xc>)
  4078fa:	b113      	cbz	r3, 407902 <register_fini+0xa>
  4078fc:	4802      	ldr	r0, [pc, #8]	; (407908 <register_fini+0x10>)
  4078fe:	f000 b805 	b.w	40790c <atexit>
  407902:	4770      	bx	lr
  407904:	00000000 	.word	0x00000000
  407908:	00407b79 	.word	0x00407b79

0040790c <atexit>:
  40790c:	2300      	movs	r3, #0
  40790e:	4601      	mov	r1, r0
  407910:	461a      	mov	r2, r3
  407912:	4618      	mov	r0, r3
  407914:	f001 bb66 	b.w	408fe4 <__register_exitproc>

00407918 <__sflush_r>:
  407918:	f9b1 300c 	ldrsh.w	r3, [r1, #12]
  40791c:	b29a      	uxth	r2, r3
  40791e:	e92d 41f0 	stmdb	sp!, {r4, r5, r6, r7, r8, lr}
  407922:	460d      	mov	r5, r1
  407924:	0711      	lsls	r1, r2, #28
  407926:	4680      	mov	r8, r0
  407928:	d43a      	bmi.n	4079a0 <__sflush_r+0x88>
  40792a:	686a      	ldr	r2, [r5, #4]
  40792c:	f443 6300 	orr.w	r3, r3, #2048	; 0x800
  407930:	2a00      	cmp	r2, #0
  407932:	81ab      	strh	r3, [r5, #12]
  407934:	dd6f      	ble.n	407a16 <__sflush_r+0xfe>
  407936:	6aac      	ldr	r4, [r5, #40]	; 0x28
  407938:	2c00      	cmp	r4, #0
  40793a:	d049      	beq.n	4079d0 <__sflush_r+0xb8>
  40793c:	2200      	movs	r2, #0
  40793e:	b29b      	uxth	r3, r3
  407940:	f8d8 6000 	ldr.w	r6, [r8]
  407944:	f8c8 2000 	str.w	r2, [r8]
  407948:	f413 5280 	ands.w	r2, r3, #4096	; 0x1000
  40794c:	d067      	beq.n	407a1e <__sflush_r+0x106>
  40794e:	6d2a      	ldr	r2, [r5, #80]	; 0x50
  407950:	075f      	lsls	r7, r3, #29
  407952:	d505      	bpl.n	407960 <__sflush_r+0x48>
  407954:	6869      	ldr	r1, [r5, #4]
  407956:	6b2b      	ldr	r3, [r5, #48]	; 0x30
  407958:	1a52      	subs	r2, r2, r1
  40795a:	b10b      	cbz	r3, 407960 <__sflush_r+0x48>
  40795c:	6beb      	ldr	r3, [r5, #60]	; 0x3c
  40795e:	1ad2      	subs	r2, r2, r3
  407960:	2300      	movs	r3, #0
  407962:	69e9      	ldr	r1, [r5, #28]
  407964:	4640      	mov	r0, r8
  407966:	47a0      	blx	r4
  407968:	1c44      	adds	r4, r0, #1
  40796a:	d03c      	beq.n	4079e6 <__sflush_r+0xce>
  40796c:	f9b5 300c 	ldrsh.w	r3, [r5, #12]
  407970:	692a      	ldr	r2, [r5, #16]
  407972:	602a      	str	r2, [r5, #0]
  407974:	f423 6300 	bic.w	r3, r3, #2048	; 0x800
  407978:	2200      	movs	r2, #0
  40797a:	81ab      	strh	r3, [r5, #12]
  40797c:	04db      	lsls	r3, r3, #19
  40797e:	606a      	str	r2, [r5, #4]
  407980:	d447      	bmi.n	407a12 <__sflush_r+0xfa>
  407982:	6b29      	ldr	r1, [r5, #48]	; 0x30
  407984:	f8c8 6000 	str.w	r6, [r8]
  407988:	b311      	cbz	r1, 4079d0 <__sflush_r+0xb8>
  40798a:	f105 0340 	add.w	r3, r5, #64	; 0x40
  40798e:	4299      	cmp	r1, r3
  407990:	d002      	beq.n	407998 <__sflush_r+0x80>
  407992:	4640      	mov	r0, r8
  407994:	f000 f9de 	bl	407d54 <_free_r>
  407998:	2000      	movs	r0, #0
  40799a:	6328      	str	r0, [r5, #48]	; 0x30
  40799c:	e8bd 81f0 	ldmia.w	sp!, {r4, r5, r6, r7, r8, pc}
  4079a0:	692e      	ldr	r6, [r5, #16]
  4079a2:	b1ae      	cbz	r6, 4079d0 <__sflush_r+0xb8>
  4079a4:	682c      	ldr	r4, [r5, #0]
  4079a6:	602e      	str	r6, [r5, #0]
  4079a8:	0791      	lsls	r1, r2, #30
  4079aa:	bf0c      	ite	eq
  4079ac:	696b      	ldreq	r3, [r5, #20]
  4079ae:	2300      	movne	r3, #0
  4079b0:	1ba4      	subs	r4, r4, r6
  4079b2:	60ab      	str	r3, [r5, #8]
  4079b4:	e00a      	b.n	4079cc <__sflush_r+0xb4>
  4079b6:	4623      	mov	r3, r4
  4079b8:	4632      	mov	r2, r6
  4079ba:	6a6f      	ldr	r7, [r5, #36]	; 0x24
  4079bc:	69e9      	ldr	r1, [r5, #28]
  4079be:	4640      	mov	r0, r8
  4079c0:	47b8      	blx	r7
  4079c2:	2800      	cmp	r0, #0
  4079c4:	eba4 0400 	sub.w	r4, r4, r0
  4079c8:	4406      	add	r6, r0
  4079ca:	dd04      	ble.n	4079d6 <__sflush_r+0xbe>
  4079cc:	2c00      	cmp	r4, #0
  4079ce:	dcf2      	bgt.n	4079b6 <__sflush_r+0x9e>
  4079d0:	2000      	movs	r0, #0
  4079d2:	e8bd 81f0 	ldmia.w	sp!, {r4, r5, r6, r7, r8, pc}
  4079d6:	89ab      	ldrh	r3, [r5, #12]
  4079d8:	f043 0340 	orr.w	r3, r3, #64	; 0x40
  4079dc:	81ab      	strh	r3, [r5, #12]
  4079de:	f04f 30ff 	mov.w	r0, #4294967295
  4079e2:	e8bd 81f0 	ldmia.w	sp!, {r4, r5, r6, r7, r8, pc}
  4079e6:	f8d8 4000 	ldr.w	r4, [r8]
  4079ea:	2c1d      	cmp	r4, #29
  4079ec:	d8f3      	bhi.n	4079d6 <__sflush_r+0xbe>
  4079ee:	4b19      	ldr	r3, [pc, #100]	; (407a54 <__sflush_r+0x13c>)
  4079f0:	40e3      	lsrs	r3, r4
  4079f2:	43db      	mvns	r3, r3
  4079f4:	f013 0301 	ands.w	r3, r3, #1
  4079f8:	d1ed      	bne.n	4079d6 <__sflush_r+0xbe>
  4079fa:	f9b5 200c 	ldrsh.w	r2, [r5, #12]
  4079fe:	606b      	str	r3, [r5, #4]
  407a00:	f422 6300 	bic.w	r3, r2, #2048	; 0x800
  407a04:	6929      	ldr	r1, [r5, #16]
  407a06:	81ab      	strh	r3, [r5, #12]
  407a08:	04da      	lsls	r2, r3, #19
  407a0a:	6029      	str	r1, [r5, #0]
  407a0c:	d5b9      	bpl.n	407982 <__sflush_r+0x6a>
  407a0e:	2c00      	cmp	r4, #0
  407a10:	d1b7      	bne.n	407982 <__sflush_r+0x6a>
  407a12:	6528      	str	r0, [r5, #80]	; 0x50
  407a14:	e7b5      	b.n	407982 <__sflush_r+0x6a>
  407a16:	6bea      	ldr	r2, [r5, #60]	; 0x3c
  407a18:	2a00      	cmp	r2, #0
  407a1a:	dc8c      	bgt.n	407936 <__sflush_r+0x1e>
  407a1c:	e7d8      	b.n	4079d0 <__sflush_r+0xb8>
  407a1e:	2301      	movs	r3, #1
  407a20:	69e9      	ldr	r1, [r5, #28]
  407a22:	4640      	mov	r0, r8
  407a24:	47a0      	blx	r4
  407a26:	1c43      	adds	r3, r0, #1
  407a28:	4602      	mov	r2, r0
  407a2a:	d002      	beq.n	407a32 <__sflush_r+0x11a>
  407a2c:	89ab      	ldrh	r3, [r5, #12]
  407a2e:	6aac      	ldr	r4, [r5, #40]	; 0x28
  407a30:	e78e      	b.n	407950 <__sflush_r+0x38>
  407a32:	f8d8 3000 	ldr.w	r3, [r8]
  407a36:	2b00      	cmp	r3, #0
  407a38:	d0f8      	beq.n	407a2c <__sflush_r+0x114>
  407a3a:	2b1d      	cmp	r3, #29
  407a3c:	d001      	beq.n	407a42 <__sflush_r+0x12a>
  407a3e:	2b16      	cmp	r3, #22
  407a40:	d102      	bne.n	407a48 <__sflush_r+0x130>
  407a42:	f8c8 6000 	str.w	r6, [r8]
  407a46:	e7c3      	b.n	4079d0 <__sflush_r+0xb8>
  407a48:	89ab      	ldrh	r3, [r5, #12]
  407a4a:	f043 0340 	orr.w	r3, r3, #64	; 0x40
  407a4e:	81ab      	strh	r3, [r5, #12]
  407a50:	e8bd 81f0 	ldmia.w	sp!, {r4, r5, r6, r7, r8, pc}
  407a54:	20400001 	.word	0x20400001

00407a58 <_fflush_r>:
  407a58:	b538      	push	{r3, r4, r5, lr}
  407a5a:	460d      	mov	r5, r1
  407a5c:	4604      	mov	r4, r0
  407a5e:	b108      	cbz	r0, 407a64 <_fflush_r+0xc>
  407a60:	6b83      	ldr	r3, [r0, #56]	; 0x38
  407a62:	b1bb      	cbz	r3, 407a94 <_fflush_r+0x3c>
  407a64:	f9b5 000c 	ldrsh.w	r0, [r5, #12]
  407a68:	b188      	cbz	r0, 407a8e <_fflush_r+0x36>
  407a6a:	6e6b      	ldr	r3, [r5, #100]	; 0x64
  407a6c:	07db      	lsls	r3, r3, #31
  407a6e:	d401      	bmi.n	407a74 <_fflush_r+0x1c>
  407a70:	0581      	lsls	r1, r0, #22
  407a72:	d517      	bpl.n	407aa4 <_fflush_r+0x4c>
  407a74:	4620      	mov	r0, r4
  407a76:	4629      	mov	r1, r5
  407a78:	f7ff ff4e 	bl	407918 <__sflush_r>
  407a7c:	6e6b      	ldr	r3, [r5, #100]	; 0x64
  407a7e:	07da      	lsls	r2, r3, #31
  407a80:	4604      	mov	r4, r0
  407a82:	d402      	bmi.n	407a8a <_fflush_r+0x32>
  407a84:	89ab      	ldrh	r3, [r5, #12]
  407a86:	059b      	lsls	r3, r3, #22
  407a88:	d507      	bpl.n	407a9a <_fflush_r+0x42>
  407a8a:	4620      	mov	r0, r4
  407a8c:	bd38      	pop	{r3, r4, r5, pc}
  407a8e:	4604      	mov	r4, r0
  407a90:	4620      	mov	r0, r4
  407a92:	bd38      	pop	{r3, r4, r5, pc}
  407a94:	f000 f838 	bl	407b08 <__sinit>
  407a98:	e7e4      	b.n	407a64 <_fflush_r+0xc>
  407a9a:	6da8      	ldr	r0, [r5, #88]	; 0x58
  407a9c:	f000 fbf6 	bl	40828c <__retarget_lock_release_recursive>
  407aa0:	4620      	mov	r0, r4
  407aa2:	bd38      	pop	{r3, r4, r5, pc}
  407aa4:	6da8      	ldr	r0, [r5, #88]	; 0x58
  407aa6:	f000 fbef 	bl	408288 <__retarget_lock_acquire_recursive>
  407aaa:	e7e3      	b.n	407a74 <_fflush_r+0x1c>

00407aac <_cleanup_r>:
  407aac:	4901      	ldr	r1, [pc, #4]	; (407ab4 <_cleanup_r+0x8>)
  407aae:	f000 bbaf 	b.w	408210 <_fwalk_reent>
  407ab2:	bf00      	nop
  407ab4:	004090cd 	.word	0x004090cd

00407ab8 <std.isra.0>:
  407ab8:	b510      	push	{r4, lr}
  407aba:	2300      	movs	r3, #0
  407abc:	4604      	mov	r4, r0
  407abe:	8181      	strh	r1, [r0, #12]
  407ac0:	81c2      	strh	r2, [r0, #14]
  407ac2:	6003      	str	r3, [r0, #0]
  407ac4:	6043      	str	r3, [r0, #4]
  407ac6:	6083      	str	r3, [r0, #8]
  407ac8:	6643      	str	r3, [r0, #100]	; 0x64
  407aca:	6103      	str	r3, [r0, #16]
  407acc:	6143      	str	r3, [r0, #20]
  407ace:	6183      	str	r3, [r0, #24]
  407ad0:	4619      	mov	r1, r3
  407ad2:	2208      	movs	r2, #8
  407ad4:	305c      	adds	r0, #92	; 0x5c
  407ad6:	f7fe fd7b 	bl	4065d0 <memset>
  407ada:	4807      	ldr	r0, [pc, #28]	; (407af8 <std.isra.0+0x40>)
  407adc:	4907      	ldr	r1, [pc, #28]	; (407afc <std.isra.0+0x44>)
  407ade:	4a08      	ldr	r2, [pc, #32]	; (407b00 <std.isra.0+0x48>)
  407ae0:	4b08      	ldr	r3, [pc, #32]	; (407b04 <std.isra.0+0x4c>)
  407ae2:	6220      	str	r0, [r4, #32]
  407ae4:	61e4      	str	r4, [r4, #28]
  407ae6:	6261      	str	r1, [r4, #36]	; 0x24
  407ae8:	62a2      	str	r2, [r4, #40]	; 0x28
  407aea:	62e3      	str	r3, [r4, #44]	; 0x2c
  407aec:	f104 0058 	add.w	r0, r4, #88	; 0x58
  407af0:	e8bd 4010 	ldmia.w	sp!, {r4, lr}
  407af4:	f000 bbc4 	b.w	408280 <__retarget_lock_init_recursive>
  407af8:	00408e11 	.word	0x00408e11
  407afc:	00408e35 	.word	0x00408e35
  407b00:	00408e71 	.word	0x00408e71
  407b04:	00408e91 	.word	0x00408e91

00407b08 <__sinit>:
  407b08:	b510      	push	{r4, lr}
  407b0a:	4604      	mov	r4, r0
  407b0c:	4812      	ldr	r0, [pc, #72]	; (407b58 <__sinit+0x50>)
  407b0e:	f000 fbbb 	bl	408288 <__retarget_lock_acquire_recursive>
  407b12:	6ba2      	ldr	r2, [r4, #56]	; 0x38
  407b14:	b9d2      	cbnz	r2, 407b4c <__sinit+0x44>
  407b16:	f504 733b 	add.w	r3, r4, #748	; 0x2ec
  407b1a:	4810      	ldr	r0, [pc, #64]	; (407b5c <__sinit+0x54>)
  407b1c:	f8c4 32e8 	str.w	r3, [r4, #744]	; 0x2e8
  407b20:	2103      	movs	r1, #3
  407b22:	f8c4 22e0 	str.w	r2, [r4, #736]	; 0x2e0
  407b26:	63e0      	str	r0, [r4, #60]	; 0x3c
  407b28:	f8c4 12e4 	str.w	r1, [r4, #740]	; 0x2e4
  407b2c:	6860      	ldr	r0, [r4, #4]
  407b2e:	2104      	movs	r1, #4
  407b30:	f7ff ffc2 	bl	407ab8 <std.isra.0>
  407b34:	2201      	movs	r2, #1
  407b36:	2109      	movs	r1, #9
  407b38:	68a0      	ldr	r0, [r4, #8]
  407b3a:	f7ff ffbd 	bl	407ab8 <std.isra.0>
  407b3e:	2202      	movs	r2, #2
  407b40:	2112      	movs	r1, #18
  407b42:	68e0      	ldr	r0, [r4, #12]
  407b44:	f7ff ffb8 	bl	407ab8 <std.isra.0>
  407b48:	2301      	movs	r3, #1
  407b4a:	63a3      	str	r3, [r4, #56]	; 0x38
  407b4c:	4802      	ldr	r0, [pc, #8]	; (407b58 <__sinit+0x50>)
  407b4e:	e8bd 4010 	ldmia.w	sp!, {r4, lr}
  407b52:	f000 bb9b 	b.w	40828c <__retarget_lock_release_recursive>
  407b56:	bf00      	nop
  407b58:	20404a2c 	.word	0x20404a2c
  407b5c:	00407aad 	.word	0x00407aad

00407b60 <__sfp_lock_acquire>:
  407b60:	4801      	ldr	r0, [pc, #4]	; (407b68 <__sfp_lock_acquire+0x8>)
  407b62:	f000 bb91 	b.w	408288 <__retarget_lock_acquire_recursive>
  407b66:	bf00      	nop
  407b68:	20404a40 	.word	0x20404a40

00407b6c <__sfp_lock_release>:
  407b6c:	4801      	ldr	r0, [pc, #4]	; (407b74 <__sfp_lock_release+0x8>)
  407b6e:	f000 bb8d 	b.w	40828c <__retarget_lock_release_recursive>
  407b72:	bf00      	nop
  407b74:	20404a40 	.word	0x20404a40

00407b78 <__libc_fini_array>:
  407b78:	b538      	push	{r3, r4, r5, lr}
  407b7a:	4c0a      	ldr	r4, [pc, #40]	; (407ba4 <__libc_fini_array+0x2c>)
  407b7c:	4d0a      	ldr	r5, [pc, #40]	; (407ba8 <__libc_fini_array+0x30>)
  407b7e:	1b64      	subs	r4, r4, r5
  407b80:	10a4      	asrs	r4, r4, #2
  407b82:	d00a      	beq.n	407b9a <__libc_fini_array+0x22>
  407b84:	f104 4380 	add.w	r3, r4, #1073741824	; 0x40000000
  407b88:	3b01      	subs	r3, #1
  407b8a:	eb05 0583 	add.w	r5, r5, r3, lsl #2
  407b8e:	3c01      	subs	r4, #1
  407b90:	f855 3904 	ldr.w	r3, [r5], #-4
  407b94:	4798      	blx	r3
  407b96:	2c00      	cmp	r4, #0
  407b98:	d1f9      	bne.n	407b8e <__libc_fini_array+0x16>
  407b9a:	e8bd 4038 	ldmia.w	sp!, {r3, r4, r5, lr}
  407b9e:	f002 bbcf 	b.w	40a340 <_fini>
  407ba2:	bf00      	nop
  407ba4:	0040a350 	.word	0x0040a350
  407ba8:	0040a34c 	.word	0x0040a34c

00407bac <__fputwc>:
  407bac:	e92d 47f0 	stmdb	sp!, {r4, r5, r6, r7, r8, r9, sl, lr}
  407bb0:	b082      	sub	sp, #8
  407bb2:	4680      	mov	r8, r0
  407bb4:	4689      	mov	r9, r1
  407bb6:	4614      	mov	r4, r2
  407bb8:	f000 fb54 	bl	408264 <__locale_mb_cur_max>
  407bbc:	2801      	cmp	r0, #1
  407bbe:	d036      	beq.n	407c2e <__fputwc+0x82>
  407bc0:	464a      	mov	r2, r9
  407bc2:	f104 035c 	add.w	r3, r4, #92	; 0x5c
  407bc6:	a901      	add	r1, sp, #4
  407bc8:	4640      	mov	r0, r8
  407bca:	f001 f9bd 	bl	408f48 <_wcrtomb_r>
  407bce:	1c42      	adds	r2, r0, #1
  407bd0:	4606      	mov	r6, r0
  407bd2:	d025      	beq.n	407c20 <__fputwc+0x74>
  407bd4:	b3a8      	cbz	r0, 407c42 <__fputwc+0x96>
  407bd6:	f89d e004 	ldrb.w	lr, [sp, #4]
  407bda:	2500      	movs	r5, #0
  407bdc:	f10d 0a04 	add.w	sl, sp, #4
  407be0:	e009      	b.n	407bf6 <__fputwc+0x4a>
  407be2:	6823      	ldr	r3, [r4, #0]
  407be4:	1c5a      	adds	r2, r3, #1
  407be6:	6022      	str	r2, [r4, #0]
  407be8:	f883 e000 	strb.w	lr, [r3]
  407bec:	3501      	adds	r5, #1
  407bee:	42b5      	cmp	r5, r6
  407bf0:	d227      	bcs.n	407c42 <__fputwc+0x96>
  407bf2:	f815 e00a 	ldrb.w	lr, [r5, sl]
  407bf6:	68a3      	ldr	r3, [r4, #8]
  407bf8:	3b01      	subs	r3, #1
  407bfa:	2b00      	cmp	r3, #0
  407bfc:	60a3      	str	r3, [r4, #8]
  407bfe:	daf0      	bge.n	407be2 <__fputwc+0x36>
  407c00:	69a7      	ldr	r7, [r4, #24]
  407c02:	42bb      	cmp	r3, r7
  407c04:	4671      	mov	r1, lr
  407c06:	4622      	mov	r2, r4
  407c08:	4640      	mov	r0, r8
  407c0a:	db02      	blt.n	407c12 <__fputwc+0x66>
  407c0c:	f1be 0f0a 	cmp.w	lr, #10
  407c10:	d1e7      	bne.n	407be2 <__fputwc+0x36>
  407c12:	f001 f941 	bl	408e98 <__swbuf_r>
  407c16:	1c43      	adds	r3, r0, #1
  407c18:	d1e8      	bne.n	407bec <__fputwc+0x40>
  407c1a:	b002      	add	sp, #8
  407c1c:	e8bd 87f0 	ldmia.w	sp!, {r4, r5, r6, r7, r8, r9, sl, pc}
  407c20:	89a3      	ldrh	r3, [r4, #12]
  407c22:	f043 0340 	orr.w	r3, r3, #64	; 0x40
  407c26:	81a3      	strh	r3, [r4, #12]
  407c28:	b002      	add	sp, #8
  407c2a:	e8bd 87f0 	ldmia.w	sp!, {r4, r5, r6, r7, r8, r9, sl, pc}
  407c2e:	f109 33ff 	add.w	r3, r9, #4294967295
  407c32:	2bfe      	cmp	r3, #254	; 0xfe
  407c34:	d8c4      	bhi.n	407bc0 <__fputwc+0x14>
  407c36:	fa5f fe89 	uxtb.w	lr, r9
  407c3a:	4606      	mov	r6, r0
  407c3c:	f88d e004 	strb.w	lr, [sp, #4]
  407c40:	e7cb      	b.n	407bda <__fputwc+0x2e>
  407c42:	4648      	mov	r0, r9
  407c44:	b002      	add	sp, #8
  407c46:	e8bd 87f0 	ldmia.w	sp!, {r4, r5, r6, r7, r8, r9, sl, pc}
  407c4a:	bf00      	nop

00407c4c <_fputwc_r>:
  407c4c:	b530      	push	{r4, r5, lr}
  407c4e:	6e53      	ldr	r3, [r2, #100]	; 0x64
  407c50:	f013 0f01 	tst.w	r3, #1
  407c54:	f9b2 300c 	ldrsh.w	r3, [r2, #12]
  407c58:	4614      	mov	r4, r2
  407c5a:	b083      	sub	sp, #12
  407c5c:	4605      	mov	r5, r0
  407c5e:	b29a      	uxth	r2, r3
  407c60:	d101      	bne.n	407c66 <_fputwc_r+0x1a>
  407c62:	0590      	lsls	r0, r2, #22
  407c64:	d51c      	bpl.n	407ca0 <_fputwc_r+0x54>
  407c66:	0490      	lsls	r0, r2, #18
  407c68:	d406      	bmi.n	407c78 <_fputwc_r+0x2c>
  407c6a:	6e62      	ldr	r2, [r4, #100]	; 0x64
  407c6c:	f443 5300 	orr.w	r3, r3, #8192	; 0x2000
  407c70:	f442 5200 	orr.w	r2, r2, #8192	; 0x2000
  407c74:	81a3      	strh	r3, [r4, #12]
  407c76:	6662      	str	r2, [r4, #100]	; 0x64
  407c78:	4628      	mov	r0, r5
  407c7a:	4622      	mov	r2, r4
  407c7c:	f7ff ff96 	bl	407bac <__fputwc>
  407c80:	6e63      	ldr	r3, [r4, #100]	; 0x64
  407c82:	07da      	lsls	r2, r3, #31
  407c84:	4605      	mov	r5, r0
  407c86:	d402      	bmi.n	407c8e <_fputwc_r+0x42>
  407c88:	89a3      	ldrh	r3, [r4, #12]
  407c8a:	059b      	lsls	r3, r3, #22
  407c8c:	d502      	bpl.n	407c94 <_fputwc_r+0x48>
  407c8e:	4628      	mov	r0, r5
  407c90:	b003      	add	sp, #12
  407c92:	bd30      	pop	{r4, r5, pc}
  407c94:	6da0      	ldr	r0, [r4, #88]	; 0x58
  407c96:	f000 faf9 	bl	40828c <__retarget_lock_release_recursive>
  407c9a:	4628      	mov	r0, r5
  407c9c:	b003      	add	sp, #12
  407c9e:	bd30      	pop	{r4, r5, pc}
  407ca0:	6da0      	ldr	r0, [r4, #88]	; 0x58
  407ca2:	9101      	str	r1, [sp, #4]
  407ca4:	f000 faf0 	bl	408288 <__retarget_lock_acquire_recursive>
  407ca8:	f9b4 300c 	ldrsh.w	r3, [r4, #12]
  407cac:	9901      	ldr	r1, [sp, #4]
  407cae:	b29a      	uxth	r2, r3
  407cb0:	e7d9      	b.n	407c66 <_fputwc_r+0x1a>
  407cb2:	bf00      	nop

00407cb4 <_malloc_trim_r>:
  407cb4:	b5f8      	push	{r3, r4, r5, r6, r7, lr}
  407cb6:	4f24      	ldr	r7, [pc, #144]	; (407d48 <_malloc_trim_r+0x94>)
  407cb8:	460c      	mov	r4, r1
  407cba:	4606      	mov	r6, r0
  407cbc:	f000 fee4 	bl	408a88 <__malloc_lock>
  407cc0:	68bb      	ldr	r3, [r7, #8]
  407cc2:	685d      	ldr	r5, [r3, #4]
  407cc4:	f5c4 617e 	rsb	r1, r4, #4064	; 0xfe0
  407cc8:	310f      	adds	r1, #15
  407cca:	f025 0503 	bic.w	r5, r5, #3
  407cce:	4429      	add	r1, r5
  407cd0:	f421 617f 	bic.w	r1, r1, #4080	; 0xff0
  407cd4:	f021 010f 	bic.w	r1, r1, #15
  407cd8:	f5a1 5480 	sub.w	r4, r1, #4096	; 0x1000
  407cdc:	f5b4 5f80 	cmp.w	r4, #4096	; 0x1000
  407ce0:	db07      	blt.n	407cf2 <_malloc_trim_r+0x3e>
  407ce2:	2100      	movs	r1, #0
  407ce4:	4630      	mov	r0, r6
  407ce6:	f001 f881 	bl	408dec <_sbrk_r>
  407cea:	68bb      	ldr	r3, [r7, #8]
  407cec:	442b      	add	r3, r5
  407cee:	4298      	cmp	r0, r3
  407cf0:	d004      	beq.n	407cfc <_malloc_trim_r+0x48>
  407cf2:	4630      	mov	r0, r6
  407cf4:	f000 fece 	bl	408a94 <__malloc_unlock>
  407cf8:	2000      	movs	r0, #0
  407cfa:	bdf8      	pop	{r3, r4, r5, r6, r7, pc}
  407cfc:	4261      	negs	r1, r4
  407cfe:	4630      	mov	r0, r6
  407d00:	f001 f874 	bl	408dec <_sbrk_r>
  407d04:	3001      	adds	r0, #1
  407d06:	d00d      	beq.n	407d24 <_malloc_trim_r+0x70>
  407d08:	4b10      	ldr	r3, [pc, #64]	; (407d4c <_malloc_trim_r+0x98>)
  407d0a:	68ba      	ldr	r2, [r7, #8]
  407d0c:	6819      	ldr	r1, [r3, #0]
  407d0e:	1b2d      	subs	r5, r5, r4
  407d10:	f045 0501 	orr.w	r5, r5, #1
  407d14:	4630      	mov	r0, r6
  407d16:	1b09      	subs	r1, r1, r4
  407d18:	6055      	str	r5, [r2, #4]
  407d1a:	6019      	str	r1, [r3, #0]
  407d1c:	f000 feba 	bl	408a94 <__malloc_unlock>
  407d20:	2001      	movs	r0, #1
  407d22:	bdf8      	pop	{r3, r4, r5, r6, r7, pc}
  407d24:	2100      	movs	r1, #0
  407d26:	4630      	mov	r0, r6
  407d28:	f001 f860 	bl	408dec <_sbrk_r>
  407d2c:	68ba      	ldr	r2, [r7, #8]
  407d2e:	1a83      	subs	r3, r0, r2
  407d30:	2b0f      	cmp	r3, #15
  407d32:	ddde      	ble.n	407cf2 <_malloc_trim_r+0x3e>
  407d34:	4c06      	ldr	r4, [pc, #24]	; (407d50 <_malloc_trim_r+0x9c>)
  407d36:	4905      	ldr	r1, [pc, #20]	; (407d4c <_malloc_trim_r+0x98>)
  407d38:	6824      	ldr	r4, [r4, #0]
  407d3a:	f043 0301 	orr.w	r3, r3, #1
  407d3e:	1b00      	subs	r0, r0, r4
  407d40:	6053      	str	r3, [r2, #4]
  407d42:	6008      	str	r0, [r1, #0]
  407d44:	e7d5      	b.n	407cf2 <_malloc_trim_r+0x3e>
  407d46:	bf00      	nop
  407d48:	204005d0 	.word	0x204005d0
  407d4c:	20403958 	.word	0x20403958
  407d50:	204009d8 	.word	0x204009d8

00407d54 <_free_r>:
  407d54:	2900      	cmp	r1, #0
  407d56:	d044      	beq.n	407de2 <_free_r+0x8e>
  407d58:	e92d 41f0 	stmdb	sp!, {r4, r5, r6, r7, r8, lr}
  407d5c:	460d      	mov	r5, r1
  407d5e:	4680      	mov	r8, r0
  407d60:	f000 fe92 	bl	408a88 <__malloc_lock>
  407d64:	f855 7c04 	ldr.w	r7, [r5, #-4]
  407d68:	4969      	ldr	r1, [pc, #420]	; (407f10 <_free_r+0x1bc>)
  407d6a:	f027 0301 	bic.w	r3, r7, #1
  407d6e:	f1a5 0408 	sub.w	r4, r5, #8
  407d72:	18e2      	adds	r2, r4, r3
  407d74:	688e      	ldr	r6, [r1, #8]
  407d76:	6850      	ldr	r0, [r2, #4]
  407d78:	42b2      	cmp	r2, r6
  407d7a:	f020 0003 	bic.w	r0, r0, #3
  407d7e:	d05e      	beq.n	407e3e <_free_r+0xea>
  407d80:	07fe      	lsls	r6, r7, #31
  407d82:	6050      	str	r0, [r2, #4]
  407d84:	d40b      	bmi.n	407d9e <_free_r+0x4a>
  407d86:	f855 7c08 	ldr.w	r7, [r5, #-8]
  407d8a:	1be4      	subs	r4, r4, r7
  407d8c:	f101 0e08 	add.w	lr, r1, #8
  407d90:	68a5      	ldr	r5, [r4, #8]
  407d92:	4575      	cmp	r5, lr
  407d94:	443b      	add	r3, r7
  407d96:	d06d      	beq.n	407e74 <_free_r+0x120>
  407d98:	68e7      	ldr	r7, [r4, #12]
  407d9a:	60ef      	str	r7, [r5, #12]
  407d9c:	60bd      	str	r5, [r7, #8]
  407d9e:	1815      	adds	r5, r2, r0
  407da0:	686d      	ldr	r5, [r5, #4]
  407da2:	07ed      	lsls	r5, r5, #31
  407da4:	d53e      	bpl.n	407e24 <_free_r+0xd0>
  407da6:	f043 0201 	orr.w	r2, r3, #1
  407daa:	6062      	str	r2, [r4, #4]
  407dac:	50e3      	str	r3, [r4, r3]
  407dae:	f5b3 7f00 	cmp.w	r3, #512	; 0x200
  407db2:	d217      	bcs.n	407de4 <_free_r+0x90>
  407db4:	08db      	lsrs	r3, r3, #3
  407db6:	1c58      	adds	r0, r3, #1
  407db8:	109a      	asrs	r2, r3, #2
  407dba:	684d      	ldr	r5, [r1, #4]
  407dbc:	f851 7030 	ldr.w	r7, [r1, r0, lsl #3]
  407dc0:	60a7      	str	r7, [r4, #8]
  407dc2:	2301      	movs	r3, #1
  407dc4:	4093      	lsls	r3, r2
  407dc6:	eb01 02c0 	add.w	r2, r1, r0, lsl #3
  407dca:	432b      	orrs	r3, r5
  407dcc:	3a08      	subs	r2, #8
  407dce:	60e2      	str	r2, [r4, #12]
  407dd0:	604b      	str	r3, [r1, #4]
  407dd2:	f841 4030 	str.w	r4, [r1, r0, lsl #3]
  407dd6:	60fc      	str	r4, [r7, #12]
  407dd8:	4640      	mov	r0, r8
  407dda:	e8bd 41f0 	ldmia.w	sp!, {r4, r5, r6, r7, r8, lr}
  407dde:	f000 be59 	b.w	408a94 <__malloc_unlock>
  407de2:	4770      	bx	lr
  407de4:	0a5a      	lsrs	r2, r3, #9
  407de6:	2a04      	cmp	r2, #4
  407de8:	d852      	bhi.n	407e90 <_free_r+0x13c>
  407dea:	099a      	lsrs	r2, r3, #6
  407dec:	f102 0739 	add.w	r7, r2, #57	; 0x39
  407df0:	00ff      	lsls	r7, r7, #3
  407df2:	f102 0538 	add.w	r5, r2, #56	; 0x38
  407df6:	19c8      	adds	r0, r1, r7
  407df8:	59ca      	ldr	r2, [r1, r7]
  407dfa:	3808      	subs	r0, #8
  407dfc:	4290      	cmp	r0, r2
  407dfe:	d04f      	beq.n	407ea0 <_free_r+0x14c>
  407e00:	6851      	ldr	r1, [r2, #4]
  407e02:	f021 0103 	bic.w	r1, r1, #3
  407e06:	428b      	cmp	r3, r1
  407e08:	d232      	bcs.n	407e70 <_free_r+0x11c>
  407e0a:	6892      	ldr	r2, [r2, #8]
  407e0c:	4290      	cmp	r0, r2
  407e0e:	d1f7      	bne.n	407e00 <_free_r+0xac>
  407e10:	68c3      	ldr	r3, [r0, #12]
  407e12:	60a0      	str	r0, [r4, #8]
  407e14:	60e3      	str	r3, [r4, #12]
  407e16:	609c      	str	r4, [r3, #8]
  407e18:	60c4      	str	r4, [r0, #12]
  407e1a:	4640      	mov	r0, r8
  407e1c:	e8bd 41f0 	ldmia.w	sp!, {r4, r5, r6, r7, r8, lr}
  407e20:	f000 be38 	b.w	408a94 <__malloc_unlock>
  407e24:	6895      	ldr	r5, [r2, #8]
  407e26:	4f3b      	ldr	r7, [pc, #236]	; (407f14 <_free_r+0x1c0>)
  407e28:	42bd      	cmp	r5, r7
  407e2a:	4403      	add	r3, r0
  407e2c:	d040      	beq.n	407eb0 <_free_r+0x15c>
  407e2e:	68d0      	ldr	r0, [r2, #12]
  407e30:	60e8      	str	r0, [r5, #12]
  407e32:	f043 0201 	orr.w	r2, r3, #1
  407e36:	6085      	str	r5, [r0, #8]
  407e38:	6062      	str	r2, [r4, #4]
  407e3a:	50e3      	str	r3, [r4, r3]
  407e3c:	e7b7      	b.n	407dae <_free_r+0x5a>
  407e3e:	07ff      	lsls	r7, r7, #31
  407e40:	4403      	add	r3, r0
  407e42:	d407      	bmi.n	407e54 <_free_r+0x100>
  407e44:	f855 2c08 	ldr.w	r2, [r5, #-8]
  407e48:	1aa4      	subs	r4, r4, r2
  407e4a:	4413      	add	r3, r2
  407e4c:	68a0      	ldr	r0, [r4, #8]
  407e4e:	68e2      	ldr	r2, [r4, #12]
  407e50:	60c2      	str	r2, [r0, #12]
  407e52:	6090      	str	r0, [r2, #8]
  407e54:	4a30      	ldr	r2, [pc, #192]	; (407f18 <_free_r+0x1c4>)
  407e56:	6812      	ldr	r2, [r2, #0]
  407e58:	f043 0001 	orr.w	r0, r3, #1
  407e5c:	4293      	cmp	r3, r2
  407e5e:	6060      	str	r0, [r4, #4]
  407e60:	608c      	str	r4, [r1, #8]
  407e62:	d3b9      	bcc.n	407dd8 <_free_r+0x84>
  407e64:	4b2d      	ldr	r3, [pc, #180]	; (407f1c <_free_r+0x1c8>)
  407e66:	4640      	mov	r0, r8
  407e68:	6819      	ldr	r1, [r3, #0]
  407e6a:	f7ff ff23 	bl	407cb4 <_malloc_trim_r>
  407e6e:	e7b3      	b.n	407dd8 <_free_r+0x84>
  407e70:	4610      	mov	r0, r2
  407e72:	e7cd      	b.n	407e10 <_free_r+0xbc>
  407e74:	1811      	adds	r1, r2, r0
  407e76:	6849      	ldr	r1, [r1, #4]
  407e78:	07c9      	lsls	r1, r1, #31
  407e7a:	d444      	bmi.n	407f06 <_free_r+0x1b2>
  407e7c:	6891      	ldr	r1, [r2, #8]
  407e7e:	68d2      	ldr	r2, [r2, #12]
  407e80:	60ca      	str	r2, [r1, #12]
  407e82:	4403      	add	r3, r0
  407e84:	f043 0001 	orr.w	r0, r3, #1
  407e88:	6091      	str	r1, [r2, #8]
  407e8a:	6060      	str	r0, [r4, #4]
  407e8c:	50e3      	str	r3, [r4, r3]
  407e8e:	e7a3      	b.n	407dd8 <_free_r+0x84>
  407e90:	2a14      	cmp	r2, #20
  407e92:	d816      	bhi.n	407ec2 <_free_r+0x16e>
  407e94:	f102 075c 	add.w	r7, r2, #92	; 0x5c
  407e98:	00ff      	lsls	r7, r7, #3
  407e9a:	f102 055b 	add.w	r5, r2, #91	; 0x5b
  407e9e:	e7aa      	b.n	407df6 <_free_r+0xa2>
  407ea0:	10aa      	asrs	r2, r5, #2
  407ea2:	2301      	movs	r3, #1
  407ea4:	684d      	ldr	r5, [r1, #4]
  407ea6:	4093      	lsls	r3, r2
  407ea8:	432b      	orrs	r3, r5
  407eaa:	604b      	str	r3, [r1, #4]
  407eac:	4603      	mov	r3, r0
  407eae:	e7b0      	b.n	407e12 <_free_r+0xbe>
  407eb0:	f043 0201 	orr.w	r2, r3, #1
  407eb4:	614c      	str	r4, [r1, #20]
  407eb6:	610c      	str	r4, [r1, #16]
  407eb8:	60e5      	str	r5, [r4, #12]
  407eba:	60a5      	str	r5, [r4, #8]
  407ebc:	6062      	str	r2, [r4, #4]
  407ebe:	50e3      	str	r3, [r4, r3]
  407ec0:	e78a      	b.n	407dd8 <_free_r+0x84>
  407ec2:	2a54      	cmp	r2, #84	; 0x54
  407ec4:	d806      	bhi.n	407ed4 <_free_r+0x180>
  407ec6:	0b1a      	lsrs	r2, r3, #12
  407ec8:	f102 076f 	add.w	r7, r2, #111	; 0x6f
  407ecc:	00ff      	lsls	r7, r7, #3
  407ece:	f102 056e 	add.w	r5, r2, #110	; 0x6e
  407ed2:	e790      	b.n	407df6 <_free_r+0xa2>
  407ed4:	f5b2 7faa 	cmp.w	r2, #340	; 0x154
  407ed8:	d806      	bhi.n	407ee8 <_free_r+0x194>
  407eda:	0bda      	lsrs	r2, r3, #15
  407edc:	f102 0778 	add.w	r7, r2, #120	; 0x78
  407ee0:	00ff      	lsls	r7, r7, #3
  407ee2:	f102 0577 	add.w	r5, r2, #119	; 0x77
  407ee6:	e786      	b.n	407df6 <_free_r+0xa2>
  407ee8:	f240 5054 	movw	r0, #1364	; 0x554
  407eec:	4282      	cmp	r2, r0
  407eee:	d806      	bhi.n	407efe <_free_r+0x1aa>
  407ef0:	0c9a      	lsrs	r2, r3, #18
  407ef2:	f102 077d 	add.w	r7, r2, #125	; 0x7d
  407ef6:	00ff      	lsls	r7, r7, #3
  407ef8:	f102 057c 	add.w	r5, r2, #124	; 0x7c
  407efc:	e77b      	b.n	407df6 <_free_r+0xa2>
  407efe:	f44f 777e 	mov.w	r7, #1016	; 0x3f8
  407f02:	257e      	movs	r5, #126	; 0x7e
  407f04:	e777      	b.n	407df6 <_free_r+0xa2>
  407f06:	f043 0101 	orr.w	r1, r3, #1
  407f0a:	6061      	str	r1, [r4, #4]
  407f0c:	6013      	str	r3, [r2, #0]
  407f0e:	e763      	b.n	407dd8 <_free_r+0x84>
  407f10:	204005d0 	.word	0x204005d0
  407f14:	204005d8 	.word	0x204005d8
  407f18:	204009dc 	.word	0x204009dc
  407f1c:	20403988 	.word	0x20403988

00407f20 <__sfvwrite_r>:
  407f20:	6893      	ldr	r3, [r2, #8]
  407f22:	2b00      	cmp	r3, #0
  407f24:	d073      	beq.n	40800e <__sfvwrite_r+0xee>
  407f26:	e92d 4ff0 	stmdb	sp!, {r4, r5, r6, r7, r8, r9, sl, fp, lr}
  407f2a:	898b      	ldrh	r3, [r1, #12]
  407f2c:	b083      	sub	sp, #12
  407f2e:	460c      	mov	r4, r1
  407f30:	0719      	lsls	r1, r3, #28
  407f32:	9000      	str	r0, [sp, #0]
  407f34:	4616      	mov	r6, r2
  407f36:	d526      	bpl.n	407f86 <__sfvwrite_r+0x66>
  407f38:	6922      	ldr	r2, [r4, #16]
  407f3a:	b322      	cbz	r2, 407f86 <__sfvwrite_r+0x66>
  407f3c:	f013 0002 	ands.w	r0, r3, #2
  407f40:	6835      	ldr	r5, [r6, #0]
  407f42:	d02c      	beq.n	407f9e <__sfvwrite_r+0x7e>
  407f44:	f04f 0900 	mov.w	r9, #0
  407f48:	4fb0      	ldr	r7, [pc, #704]	; (40820c <__sfvwrite_r+0x2ec>)
  407f4a:	46c8      	mov	r8, r9
  407f4c:	46b2      	mov	sl, r6
  407f4e:	45b8      	cmp	r8, r7
  407f50:	4643      	mov	r3, r8
  407f52:	464a      	mov	r2, r9
  407f54:	bf28      	it	cs
  407f56:	463b      	movcs	r3, r7
  407f58:	9800      	ldr	r0, [sp, #0]
  407f5a:	f1b8 0f00 	cmp.w	r8, #0
  407f5e:	d050      	beq.n	408002 <__sfvwrite_r+0xe2>
  407f60:	69e1      	ldr	r1, [r4, #28]
  407f62:	6a66      	ldr	r6, [r4, #36]	; 0x24
  407f64:	47b0      	blx	r6
  407f66:	2800      	cmp	r0, #0
  407f68:	dd58      	ble.n	40801c <__sfvwrite_r+0xfc>
  407f6a:	f8da 3008 	ldr.w	r3, [sl, #8]
  407f6e:	1a1b      	subs	r3, r3, r0
  407f70:	4481      	add	r9, r0
  407f72:	eba8 0800 	sub.w	r8, r8, r0
  407f76:	f8ca 3008 	str.w	r3, [sl, #8]
  407f7a:	2b00      	cmp	r3, #0
  407f7c:	d1e7      	bne.n	407f4e <__sfvwrite_r+0x2e>
  407f7e:	2000      	movs	r0, #0
  407f80:	b003      	add	sp, #12
  407f82:	e8bd 8ff0 	ldmia.w	sp!, {r4, r5, r6, r7, r8, r9, sl, fp, pc}
  407f86:	4621      	mov	r1, r4
  407f88:	9800      	ldr	r0, [sp, #0]
  407f8a:	f7ff fc51 	bl	407830 <__swsetup_r>
  407f8e:	2800      	cmp	r0, #0
  407f90:	f040 8133 	bne.w	4081fa <__sfvwrite_r+0x2da>
  407f94:	89a3      	ldrh	r3, [r4, #12]
  407f96:	6835      	ldr	r5, [r6, #0]
  407f98:	f013 0002 	ands.w	r0, r3, #2
  407f9c:	d1d2      	bne.n	407f44 <__sfvwrite_r+0x24>
  407f9e:	f013 0901 	ands.w	r9, r3, #1
  407fa2:	d145      	bne.n	408030 <__sfvwrite_r+0x110>
  407fa4:	464f      	mov	r7, r9
  407fa6:	9601      	str	r6, [sp, #4]
  407fa8:	b337      	cbz	r7, 407ff8 <__sfvwrite_r+0xd8>
  407faa:	059a      	lsls	r2, r3, #22
  407fac:	f8d4 8008 	ldr.w	r8, [r4, #8]
  407fb0:	f140 8083 	bpl.w	4080ba <__sfvwrite_r+0x19a>
  407fb4:	4547      	cmp	r7, r8
  407fb6:	46c3      	mov	fp, r8
  407fb8:	f0c0 80ab 	bcc.w	408112 <__sfvwrite_r+0x1f2>
  407fbc:	f413 6f90 	tst.w	r3, #1152	; 0x480
  407fc0:	f040 80ac 	bne.w	40811c <__sfvwrite_r+0x1fc>
  407fc4:	6820      	ldr	r0, [r4, #0]
  407fc6:	46ba      	mov	sl, r7
  407fc8:	465a      	mov	r2, fp
  407fca:	4649      	mov	r1, r9
  407fcc:	f000 fcf8 	bl	4089c0 <memmove>
  407fd0:	68a2      	ldr	r2, [r4, #8]
  407fd2:	6823      	ldr	r3, [r4, #0]
  407fd4:	eba2 0208 	sub.w	r2, r2, r8
  407fd8:	445b      	add	r3, fp
  407fda:	60a2      	str	r2, [r4, #8]
  407fdc:	6023      	str	r3, [r4, #0]
  407fde:	9a01      	ldr	r2, [sp, #4]
  407fe0:	6893      	ldr	r3, [r2, #8]
  407fe2:	eba3 030a 	sub.w	r3, r3, sl
  407fe6:	44d1      	add	r9, sl
  407fe8:	eba7 070a 	sub.w	r7, r7, sl
  407fec:	6093      	str	r3, [r2, #8]
  407fee:	2b00      	cmp	r3, #0
  407ff0:	d0c5      	beq.n	407f7e <__sfvwrite_r+0x5e>
  407ff2:	89a3      	ldrh	r3, [r4, #12]
  407ff4:	2f00      	cmp	r7, #0
  407ff6:	d1d8      	bne.n	407faa <__sfvwrite_r+0x8a>
  407ff8:	f8d5 9000 	ldr.w	r9, [r5]
  407ffc:	686f      	ldr	r7, [r5, #4]
  407ffe:	3508      	adds	r5, #8
  408000:	e7d2      	b.n	407fa8 <__sfvwrite_r+0x88>
  408002:	f8d5 9000 	ldr.w	r9, [r5]
  408006:	f8d5 8004 	ldr.w	r8, [r5, #4]
  40800a:	3508      	adds	r5, #8
  40800c:	e79f      	b.n	407f4e <__sfvwrite_r+0x2e>
  40800e:	2000      	movs	r0, #0
  408010:	4770      	bx	lr
  408012:	4621      	mov	r1, r4
  408014:	9800      	ldr	r0, [sp, #0]
  408016:	f7ff fd1f 	bl	407a58 <_fflush_r>
  40801a:	b370      	cbz	r0, 40807a <__sfvwrite_r+0x15a>
  40801c:	f9b4 300c 	ldrsh.w	r3, [r4, #12]
  408020:	f043 0340 	orr.w	r3, r3, #64	; 0x40
  408024:	f04f 30ff 	mov.w	r0, #4294967295
  408028:	81a3      	strh	r3, [r4, #12]
  40802a:	b003      	add	sp, #12
  40802c:	e8bd 8ff0 	ldmia.w	sp!, {r4, r5, r6, r7, r8, r9, sl, fp, pc}
  408030:	4681      	mov	r9, r0
  408032:	4633      	mov	r3, r6
  408034:	464e      	mov	r6, r9
  408036:	46a8      	mov	r8, r5
  408038:	469a      	mov	sl, r3
  40803a:	464d      	mov	r5, r9
  40803c:	b34e      	cbz	r6, 408092 <__sfvwrite_r+0x172>
  40803e:	b380      	cbz	r0, 4080a2 <__sfvwrite_r+0x182>
  408040:	6820      	ldr	r0, [r4, #0]
  408042:	6923      	ldr	r3, [r4, #16]
  408044:	6962      	ldr	r2, [r4, #20]
  408046:	45b1      	cmp	r9, r6
  408048:	46cb      	mov	fp, r9
  40804a:	bf28      	it	cs
  40804c:	46b3      	movcs	fp, r6
  40804e:	4298      	cmp	r0, r3
  408050:	465f      	mov	r7, fp
  408052:	d904      	bls.n	40805e <__sfvwrite_r+0x13e>
  408054:	68a3      	ldr	r3, [r4, #8]
  408056:	4413      	add	r3, r2
  408058:	459b      	cmp	fp, r3
  40805a:	f300 80a6 	bgt.w	4081aa <__sfvwrite_r+0x28a>
  40805e:	4593      	cmp	fp, r2
  408060:	db4b      	blt.n	4080fa <__sfvwrite_r+0x1da>
  408062:	4613      	mov	r3, r2
  408064:	6a67      	ldr	r7, [r4, #36]	; 0x24
  408066:	69e1      	ldr	r1, [r4, #28]
  408068:	9800      	ldr	r0, [sp, #0]
  40806a:	462a      	mov	r2, r5
  40806c:	47b8      	blx	r7
  40806e:	1e07      	subs	r7, r0, #0
  408070:	ddd4      	ble.n	40801c <__sfvwrite_r+0xfc>
  408072:	ebb9 0907 	subs.w	r9, r9, r7
  408076:	d0cc      	beq.n	408012 <__sfvwrite_r+0xf2>
  408078:	2001      	movs	r0, #1
  40807a:	f8da 3008 	ldr.w	r3, [sl, #8]
  40807e:	1bdb      	subs	r3, r3, r7
  408080:	443d      	add	r5, r7
  408082:	1bf6      	subs	r6, r6, r7
  408084:	f8ca 3008 	str.w	r3, [sl, #8]
  408088:	2b00      	cmp	r3, #0
  40808a:	f43f af78 	beq.w	407f7e <__sfvwrite_r+0x5e>
  40808e:	2e00      	cmp	r6, #0
  408090:	d1d5      	bne.n	40803e <__sfvwrite_r+0x11e>
  408092:	f108 0308 	add.w	r3, r8, #8
  408096:	e913 0060 	ldmdb	r3, {r5, r6}
  40809a:	4698      	mov	r8, r3
  40809c:	3308      	adds	r3, #8
  40809e:	2e00      	cmp	r6, #0
  4080a0:	d0f9      	beq.n	408096 <__sfvwrite_r+0x176>
  4080a2:	4632      	mov	r2, r6
  4080a4:	210a      	movs	r1, #10
  4080a6:	4628      	mov	r0, r5
  4080a8:	f000 fc3a 	bl	408920 <memchr>
  4080ac:	2800      	cmp	r0, #0
  4080ae:	f000 80a1 	beq.w	4081f4 <__sfvwrite_r+0x2d4>
  4080b2:	3001      	adds	r0, #1
  4080b4:	eba0 0905 	sub.w	r9, r0, r5
  4080b8:	e7c2      	b.n	408040 <__sfvwrite_r+0x120>
  4080ba:	6820      	ldr	r0, [r4, #0]
  4080bc:	6923      	ldr	r3, [r4, #16]
  4080be:	4298      	cmp	r0, r3
  4080c0:	d802      	bhi.n	4080c8 <__sfvwrite_r+0x1a8>
  4080c2:	6963      	ldr	r3, [r4, #20]
  4080c4:	429f      	cmp	r7, r3
  4080c6:	d25d      	bcs.n	408184 <__sfvwrite_r+0x264>
  4080c8:	45b8      	cmp	r8, r7
  4080ca:	bf28      	it	cs
  4080cc:	46b8      	movcs	r8, r7
  4080ce:	4642      	mov	r2, r8
  4080d0:	4649      	mov	r1, r9
  4080d2:	f000 fc75 	bl	4089c0 <memmove>
  4080d6:	68a3      	ldr	r3, [r4, #8]
  4080d8:	6822      	ldr	r2, [r4, #0]
  4080da:	eba3 0308 	sub.w	r3, r3, r8
  4080de:	4442      	add	r2, r8
  4080e0:	60a3      	str	r3, [r4, #8]
  4080e2:	6022      	str	r2, [r4, #0]
  4080e4:	b10b      	cbz	r3, 4080ea <__sfvwrite_r+0x1ca>
  4080e6:	46c2      	mov	sl, r8
  4080e8:	e779      	b.n	407fde <__sfvwrite_r+0xbe>
  4080ea:	4621      	mov	r1, r4
  4080ec:	9800      	ldr	r0, [sp, #0]
  4080ee:	f7ff fcb3 	bl	407a58 <_fflush_r>
  4080f2:	2800      	cmp	r0, #0
  4080f4:	d192      	bne.n	40801c <__sfvwrite_r+0xfc>
  4080f6:	46c2      	mov	sl, r8
  4080f8:	e771      	b.n	407fde <__sfvwrite_r+0xbe>
  4080fa:	465a      	mov	r2, fp
  4080fc:	4629      	mov	r1, r5
  4080fe:	f000 fc5f 	bl	4089c0 <memmove>
  408102:	68a2      	ldr	r2, [r4, #8]
  408104:	6823      	ldr	r3, [r4, #0]
  408106:	eba2 020b 	sub.w	r2, r2, fp
  40810a:	445b      	add	r3, fp
  40810c:	60a2      	str	r2, [r4, #8]
  40810e:	6023      	str	r3, [r4, #0]
  408110:	e7af      	b.n	408072 <__sfvwrite_r+0x152>
  408112:	6820      	ldr	r0, [r4, #0]
  408114:	46b8      	mov	r8, r7
  408116:	46ba      	mov	sl, r7
  408118:	46bb      	mov	fp, r7
  40811a:	e755      	b.n	407fc8 <__sfvwrite_r+0xa8>
  40811c:	6962      	ldr	r2, [r4, #20]
  40811e:	6820      	ldr	r0, [r4, #0]
  408120:	6921      	ldr	r1, [r4, #16]
  408122:	eb02 0842 	add.w	r8, r2, r2, lsl #1
  408126:	eba0 0a01 	sub.w	sl, r0, r1
  40812a:	eb08 78d8 	add.w	r8, r8, r8, lsr #31
  40812e:	f10a 0001 	add.w	r0, sl, #1
  408132:	ea4f 0868 	mov.w	r8, r8, asr #1
  408136:	4438      	add	r0, r7
  408138:	4540      	cmp	r0, r8
  40813a:	4642      	mov	r2, r8
  40813c:	bf84      	itt	hi
  40813e:	4680      	movhi	r8, r0
  408140:	4642      	movhi	r2, r8
  408142:	055b      	lsls	r3, r3, #21
  408144:	d544      	bpl.n	4081d0 <__sfvwrite_r+0x2b0>
  408146:	4611      	mov	r1, r2
  408148:	9800      	ldr	r0, [sp, #0]
  40814a:	f000 f921 	bl	408390 <_malloc_r>
  40814e:	4683      	mov	fp, r0
  408150:	2800      	cmp	r0, #0
  408152:	d055      	beq.n	408200 <__sfvwrite_r+0x2e0>
  408154:	4652      	mov	r2, sl
  408156:	6921      	ldr	r1, [r4, #16]
  408158:	f7fe f9a0 	bl	40649c <memcpy>
  40815c:	89a3      	ldrh	r3, [r4, #12]
  40815e:	f423 6390 	bic.w	r3, r3, #1152	; 0x480
  408162:	f043 0380 	orr.w	r3, r3, #128	; 0x80
  408166:	81a3      	strh	r3, [r4, #12]
  408168:	eb0b 000a 	add.w	r0, fp, sl
  40816c:	eba8 030a 	sub.w	r3, r8, sl
  408170:	f8c4 b010 	str.w	fp, [r4, #16]
  408174:	f8c4 8014 	str.w	r8, [r4, #20]
  408178:	6020      	str	r0, [r4, #0]
  40817a:	60a3      	str	r3, [r4, #8]
  40817c:	46b8      	mov	r8, r7
  40817e:	46ba      	mov	sl, r7
  408180:	46bb      	mov	fp, r7
  408182:	e721      	b.n	407fc8 <__sfvwrite_r+0xa8>
  408184:	f06f 4100 	mvn.w	r1, #2147483648	; 0x80000000
  408188:	42b9      	cmp	r1, r7
  40818a:	bf28      	it	cs
  40818c:	4639      	movcs	r1, r7
  40818e:	464a      	mov	r2, r9
  408190:	fb91 f1f3 	sdiv	r1, r1, r3
  408194:	9800      	ldr	r0, [sp, #0]
  408196:	6a66      	ldr	r6, [r4, #36]	; 0x24
  408198:	fb03 f301 	mul.w	r3, r3, r1
  40819c:	69e1      	ldr	r1, [r4, #28]
  40819e:	47b0      	blx	r6
  4081a0:	f1b0 0a00 	subs.w	sl, r0, #0
  4081a4:	f73f af1b 	bgt.w	407fde <__sfvwrite_r+0xbe>
  4081a8:	e738      	b.n	40801c <__sfvwrite_r+0xfc>
  4081aa:	461a      	mov	r2, r3
  4081ac:	4629      	mov	r1, r5
  4081ae:	9301      	str	r3, [sp, #4]
  4081b0:	f000 fc06 	bl	4089c0 <memmove>
  4081b4:	6822      	ldr	r2, [r4, #0]
  4081b6:	9b01      	ldr	r3, [sp, #4]
  4081b8:	9800      	ldr	r0, [sp, #0]
  4081ba:	441a      	add	r2, r3
  4081bc:	6022      	str	r2, [r4, #0]
  4081be:	4621      	mov	r1, r4
  4081c0:	f7ff fc4a 	bl	407a58 <_fflush_r>
  4081c4:	9b01      	ldr	r3, [sp, #4]
  4081c6:	2800      	cmp	r0, #0
  4081c8:	f47f af28 	bne.w	40801c <__sfvwrite_r+0xfc>
  4081cc:	461f      	mov	r7, r3
  4081ce:	e750      	b.n	408072 <__sfvwrite_r+0x152>
  4081d0:	9800      	ldr	r0, [sp, #0]
  4081d2:	f000 fc65 	bl	408aa0 <_realloc_r>
  4081d6:	4683      	mov	fp, r0
  4081d8:	2800      	cmp	r0, #0
  4081da:	d1c5      	bne.n	408168 <__sfvwrite_r+0x248>
  4081dc:	9d00      	ldr	r5, [sp, #0]
  4081de:	6921      	ldr	r1, [r4, #16]
  4081e0:	4628      	mov	r0, r5
  4081e2:	f7ff fdb7 	bl	407d54 <_free_r>
  4081e6:	f9b4 300c 	ldrsh.w	r3, [r4, #12]
  4081ea:	220c      	movs	r2, #12
  4081ec:	f023 0380 	bic.w	r3, r3, #128	; 0x80
  4081f0:	602a      	str	r2, [r5, #0]
  4081f2:	e715      	b.n	408020 <__sfvwrite_r+0x100>
  4081f4:	f106 0901 	add.w	r9, r6, #1
  4081f8:	e722      	b.n	408040 <__sfvwrite_r+0x120>
  4081fa:	f04f 30ff 	mov.w	r0, #4294967295
  4081fe:	e6bf      	b.n	407f80 <__sfvwrite_r+0x60>
  408200:	9a00      	ldr	r2, [sp, #0]
  408202:	230c      	movs	r3, #12
  408204:	6013      	str	r3, [r2, #0]
  408206:	f9b4 300c 	ldrsh.w	r3, [r4, #12]
  40820a:	e709      	b.n	408020 <__sfvwrite_r+0x100>
  40820c:	7ffffc00 	.word	0x7ffffc00

00408210 <_fwalk_reent>:
  408210:	e92d 43f8 	stmdb	sp!, {r3, r4, r5, r6, r7, r8, r9, lr}
  408214:	f510 7738 	adds.w	r7, r0, #736	; 0x2e0
  408218:	d01f      	beq.n	40825a <_fwalk_reent+0x4a>
  40821a:	4688      	mov	r8, r1
  40821c:	4606      	mov	r6, r0
  40821e:	f04f 0900 	mov.w	r9, #0
  408222:	687d      	ldr	r5, [r7, #4]
  408224:	68bc      	ldr	r4, [r7, #8]
  408226:	3d01      	subs	r5, #1
  408228:	d411      	bmi.n	40824e <_fwalk_reent+0x3e>
  40822a:	89a3      	ldrh	r3, [r4, #12]
  40822c:	2b01      	cmp	r3, #1
  40822e:	f105 35ff 	add.w	r5, r5, #4294967295
  408232:	d908      	bls.n	408246 <_fwalk_reent+0x36>
  408234:	f9b4 300e 	ldrsh.w	r3, [r4, #14]
  408238:	3301      	adds	r3, #1
  40823a:	4621      	mov	r1, r4
  40823c:	4630      	mov	r0, r6
  40823e:	d002      	beq.n	408246 <_fwalk_reent+0x36>
  408240:	47c0      	blx	r8
  408242:	ea49 0900 	orr.w	r9, r9, r0
  408246:	1c6b      	adds	r3, r5, #1
  408248:	f104 0468 	add.w	r4, r4, #104	; 0x68
  40824c:	d1ed      	bne.n	40822a <_fwalk_reent+0x1a>
  40824e:	683f      	ldr	r7, [r7, #0]
  408250:	2f00      	cmp	r7, #0
  408252:	d1e6      	bne.n	408222 <_fwalk_reent+0x12>
  408254:	4648      	mov	r0, r9
  408256:	e8bd 83f8 	ldmia.w	sp!, {r3, r4, r5, r6, r7, r8, r9, pc}
  40825a:	46b9      	mov	r9, r7
  40825c:	4648      	mov	r0, r9
  40825e:	e8bd 83f8 	ldmia.w	sp!, {r3, r4, r5, r6, r7, r8, r9, pc}
  408262:	bf00      	nop

00408264 <__locale_mb_cur_max>:
  408264:	4b04      	ldr	r3, [pc, #16]	; (408278 <__locale_mb_cur_max+0x14>)
  408266:	4a05      	ldr	r2, [pc, #20]	; (40827c <__locale_mb_cur_max+0x18>)
  408268:	681b      	ldr	r3, [r3, #0]
  40826a:	6b5b      	ldr	r3, [r3, #52]	; 0x34
  40826c:	2b00      	cmp	r3, #0
  40826e:	bf08      	it	eq
  408270:	4613      	moveq	r3, r2
  408272:	f893 0128 	ldrb.w	r0, [r3, #296]	; 0x128
  408276:	4770      	bx	lr
  408278:	20400034 	.word	0x20400034
  40827c:	20400464 	.word	0x20400464

00408280 <__retarget_lock_init_recursive>:
  408280:	4770      	bx	lr
  408282:	bf00      	nop

00408284 <__retarget_lock_close_recursive>:
  408284:	4770      	bx	lr
  408286:	bf00      	nop

00408288 <__retarget_lock_acquire_recursive>:
  408288:	4770      	bx	lr
  40828a:	bf00      	nop

0040828c <__retarget_lock_release_recursive>:
  40828c:	4770      	bx	lr
  40828e:	bf00      	nop

00408290 <__swhatbuf_r>:
  408290:	b570      	push	{r4, r5, r6, lr}
  408292:	460c      	mov	r4, r1
  408294:	f9b1 100e 	ldrsh.w	r1, [r1, #14]
  408298:	2900      	cmp	r1, #0
  40829a:	b090      	sub	sp, #64	; 0x40
  40829c:	4615      	mov	r5, r2
  40829e:	461e      	mov	r6, r3
  4082a0:	db14      	blt.n	4082cc <__swhatbuf_r+0x3c>
  4082a2:	aa01      	add	r2, sp, #4
  4082a4:	f000 ff74 	bl	409190 <_fstat_r>
  4082a8:	2800      	cmp	r0, #0
  4082aa:	db0f      	blt.n	4082cc <__swhatbuf_r+0x3c>
  4082ac:	9a02      	ldr	r2, [sp, #8]
  4082ae:	f402 4270 	and.w	r2, r2, #61440	; 0xf000
  4082b2:	f5a2 5200 	sub.w	r2, r2, #8192	; 0x2000
  4082b6:	fab2 f282 	clz	r2, r2
  4082ba:	0952      	lsrs	r2, r2, #5
  4082bc:	f44f 6380 	mov.w	r3, #1024	; 0x400
  4082c0:	f44f 6000 	mov.w	r0, #2048	; 0x800
  4082c4:	6032      	str	r2, [r6, #0]
  4082c6:	602b      	str	r3, [r5, #0]
  4082c8:	b010      	add	sp, #64	; 0x40
  4082ca:	bd70      	pop	{r4, r5, r6, pc}
  4082cc:	89a2      	ldrh	r2, [r4, #12]
  4082ce:	2300      	movs	r3, #0
  4082d0:	f012 0080 	ands.w	r0, r2, #128	; 0x80
  4082d4:	6033      	str	r3, [r6, #0]
  4082d6:	d004      	beq.n	4082e2 <__swhatbuf_r+0x52>
  4082d8:	2240      	movs	r2, #64	; 0x40
  4082da:	4618      	mov	r0, r3
  4082dc:	602a      	str	r2, [r5, #0]
  4082de:	b010      	add	sp, #64	; 0x40
  4082e0:	bd70      	pop	{r4, r5, r6, pc}
  4082e2:	f44f 6380 	mov.w	r3, #1024	; 0x400
  4082e6:	602b      	str	r3, [r5, #0]
  4082e8:	b010      	add	sp, #64	; 0x40
  4082ea:	bd70      	pop	{r4, r5, r6, pc}

004082ec <__smakebuf_r>:
  4082ec:	898a      	ldrh	r2, [r1, #12]
  4082ee:	0792      	lsls	r2, r2, #30
  4082f0:	460b      	mov	r3, r1
  4082f2:	d506      	bpl.n	408302 <__smakebuf_r+0x16>
  4082f4:	f101 0243 	add.w	r2, r1, #67	; 0x43
  4082f8:	2101      	movs	r1, #1
  4082fa:	601a      	str	r2, [r3, #0]
  4082fc:	611a      	str	r2, [r3, #16]
  4082fe:	6159      	str	r1, [r3, #20]
  408300:	4770      	bx	lr
  408302:	b5f0      	push	{r4, r5, r6, r7, lr}
  408304:	b083      	sub	sp, #12
  408306:	ab01      	add	r3, sp, #4
  408308:	466a      	mov	r2, sp
  40830a:	460c      	mov	r4, r1
  40830c:	4606      	mov	r6, r0
  40830e:	f7ff ffbf 	bl	408290 <__swhatbuf_r>
  408312:	9900      	ldr	r1, [sp, #0]
  408314:	4605      	mov	r5, r0
  408316:	4630      	mov	r0, r6
  408318:	f000 f83a 	bl	408390 <_malloc_r>
  40831c:	f9b4 300c 	ldrsh.w	r3, [r4, #12]
  408320:	b1d8      	cbz	r0, 40835a <__smakebuf_r+0x6e>
  408322:	9a01      	ldr	r2, [sp, #4]
  408324:	4f15      	ldr	r7, [pc, #84]	; (40837c <__smakebuf_r+0x90>)
  408326:	9900      	ldr	r1, [sp, #0]
  408328:	63f7      	str	r7, [r6, #60]	; 0x3c
  40832a:	f043 0380 	orr.w	r3, r3, #128	; 0x80
  40832e:	81a3      	strh	r3, [r4, #12]
  408330:	6020      	str	r0, [r4, #0]
  408332:	6120      	str	r0, [r4, #16]
  408334:	6161      	str	r1, [r4, #20]
  408336:	b91a      	cbnz	r2, 408340 <__smakebuf_r+0x54>
  408338:	432b      	orrs	r3, r5
  40833a:	81a3      	strh	r3, [r4, #12]
  40833c:	b003      	add	sp, #12
  40833e:	bdf0      	pop	{r4, r5, r6, r7, pc}
  408340:	4630      	mov	r0, r6
  408342:	f9b4 100e 	ldrsh.w	r1, [r4, #14]
  408346:	f000 ff37 	bl	4091b8 <_isatty_r>
  40834a:	b1a0      	cbz	r0, 408376 <__smakebuf_r+0x8a>
  40834c:	89a3      	ldrh	r3, [r4, #12]
  40834e:	f023 0303 	bic.w	r3, r3, #3
  408352:	f043 0301 	orr.w	r3, r3, #1
  408356:	b21b      	sxth	r3, r3
  408358:	e7ee      	b.n	408338 <__smakebuf_r+0x4c>
  40835a:	059a      	lsls	r2, r3, #22
  40835c:	d4ee      	bmi.n	40833c <__smakebuf_r+0x50>
  40835e:	f023 0303 	bic.w	r3, r3, #3
  408362:	f104 0243 	add.w	r2, r4, #67	; 0x43
  408366:	f043 0302 	orr.w	r3, r3, #2
  40836a:	2101      	movs	r1, #1
  40836c:	81a3      	strh	r3, [r4, #12]
  40836e:	6022      	str	r2, [r4, #0]
  408370:	6122      	str	r2, [r4, #16]
  408372:	6161      	str	r1, [r4, #20]
  408374:	e7e2      	b.n	40833c <__smakebuf_r+0x50>
  408376:	f9b4 300c 	ldrsh.w	r3, [r4, #12]
  40837a:	e7dd      	b.n	408338 <__smakebuf_r+0x4c>
  40837c:	00407aad 	.word	0x00407aad

00408380 <malloc>:
  408380:	4b02      	ldr	r3, [pc, #8]	; (40838c <malloc+0xc>)
  408382:	4601      	mov	r1, r0
  408384:	6818      	ldr	r0, [r3, #0]
  408386:	f000 b803 	b.w	408390 <_malloc_r>
  40838a:	bf00      	nop
  40838c:	20400034 	.word	0x20400034

00408390 <_malloc_r>:
  408390:	e92d 4ff0 	stmdb	sp!, {r4, r5, r6, r7, r8, r9, sl, fp, lr}
  408394:	f101 060b 	add.w	r6, r1, #11
  408398:	2e16      	cmp	r6, #22
  40839a:	b083      	sub	sp, #12
  40839c:	4605      	mov	r5, r0
  40839e:	f240 809e 	bls.w	4084de <_malloc_r+0x14e>
  4083a2:	f036 0607 	bics.w	r6, r6, #7
  4083a6:	f100 80bd 	bmi.w	408524 <_malloc_r+0x194>
  4083aa:	42b1      	cmp	r1, r6
  4083ac:	f200 80ba 	bhi.w	408524 <_malloc_r+0x194>
  4083b0:	f000 fb6a 	bl	408a88 <__malloc_lock>
  4083b4:	f5b6 7ffc 	cmp.w	r6, #504	; 0x1f8
  4083b8:	f0c0 8293 	bcc.w	4088e2 <_malloc_r+0x552>
  4083bc:	0a73      	lsrs	r3, r6, #9
  4083be:	f000 80b8 	beq.w	408532 <_malloc_r+0x1a2>
  4083c2:	2b04      	cmp	r3, #4
  4083c4:	f200 8179 	bhi.w	4086ba <_malloc_r+0x32a>
  4083c8:	09b3      	lsrs	r3, r6, #6
  4083ca:	f103 0039 	add.w	r0, r3, #57	; 0x39
  4083ce:	f103 0e38 	add.w	lr, r3, #56	; 0x38
  4083d2:	00c3      	lsls	r3, r0, #3
  4083d4:	4fbf      	ldr	r7, [pc, #764]	; (4086d4 <_malloc_r+0x344>)
  4083d6:	443b      	add	r3, r7
  4083d8:	f1a3 0108 	sub.w	r1, r3, #8
  4083dc:	685c      	ldr	r4, [r3, #4]
  4083de:	42a1      	cmp	r1, r4
  4083e0:	d106      	bne.n	4083f0 <_malloc_r+0x60>
  4083e2:	e00c      	b.n	4083fe <_malloc_r+0x6e>
  4083e4:	2a00      	cmp	r2, #0
  4083e6:	f280 80aa 	bge.w	40853e <_malloc_r+0x1ae>
  4083ea:	68e4      	ldr	r4, [r4, #12]
  4083ec:	42a1      	cmp	r1, r4
  4083ee:	d006      	beq.n	4083fe <_malloc_r+0x6e>
  4083f0:	6863      	ldr	r3, [r4, #4]
  4083f2:	f023 0303 	bic.w	r3, r3, #3
  4083f6:	1b9a      	subs	r2, r3, r6
  4083f8:	2a0f      	cmp	r2, #15
  4083fa:	ddf3      	ble.n	4083e4 <_malloc_r+0x54>
  4083fc:	4670      	mov	r0, lr
  4083fe:	693c      	ldr	r4, [r7, #16]
  408400:	f8df e2e4 	ldr.w	lr, [pc, #740]	; 4086e8 <_malloc_r+0x358>
  408404:	4574      	cmp	r4, lr
  408406:	f000 81ab 	beq.w	408760 <_malloc_r+0x3d0>
  40840a:	6863      	ldr	r3, [r4, #4]
  40840c:	f023 0303 	bic.w	r3, r3, #3
  408410:	1b9a      	subs	r2, r3, r6
  408412:	2a0f      	cmp	r2, #15
  408414:	f300 8190 	bgt.w	408738 <_malloc_r+0x3a8>
  408418:	2a00      	cmp	r2, #0
  40841a:	f8c7 e014 	str.w	lr, [r7, #20]
  40841e:	f8c7 e010 	str.w	lr, [r7, #16]
  408422:	f280 809d 	bge.w	408560 <_malloc_r+0x1d0>
  408426:	f5b3 7f00 	cmp.w	r3, #512	; 0x200
  40842a:	f080 8161 	bcs.w	4086f0 <_malloc_r+0x360>
  40842e:	08db      	lsrs	r3, r3, #3
  408430:	f103 0c01 	add.w	ip, r3, #1
  408434:	1099      	asrs	r1, r3, #2
  408436:	687a      	ldr	r2, [r7, #4]
  408438:	f857 803c 	ldr.w	r8, [r7, ip, lsl #3]
  40843c:	f8c4 8008 	str.w	r8, [r4, #8]
  408440:	2301      	movs	r3, #1
  408442:	408b      	lsls	r3, r1
  408444:	eb07 01cc 	add.w	r1, r7, ip, lsl #3
  408448:	4313      	orrs	r3, r2
  40844a:	3908      	subs	r1, #8
  40844c:	60e1      	str	r1, [r4, #12]
  40844e:	607b      	str	r3, [r7, #4]
  408450:	f847 403c 	str.w	r4, [r7, ip, lsl #3]
  408454:	f8c8 400c 	str.w	r4, [r8, #12]
  408458:	1082      	asrs	r2, r0, #2
  40845a:	2401      	movs	r4, #1
  40845c:	4094      	lsls	r4, r2
  40845e:	429c      	cmp	r4, r3
  408460:	f200 808b 	bhi.w	40857a <_malloc_r+0x1ea>
  408464:	421c      	tst	r4, r3
  408466:	d106      	bne.n	408476 <_malloc_r+0xe6>
  408468:	f020 0003 	bic.w	r0, r0, #3
  40846c:	0064      	lsls	r4, r4, #1
  40846e:	421c      	tst	r4, r3
  408470:	f100 0004 	add.w	r0, r0, #4
  408474:	d0fa      	beq.n	40846c <_malloc_r+0xdc>
  408476:	eb07 09c0 	add.w	r9, r7, r0, lsl #3
  40847a:	46cc      	mov	ip, r9
  40847c:	4680      	mov	r8, r0
  40847e:	f8dc 300c 	ldr.w	r3, [ip, #12]
  408482:	459c      	cmp	ip, r3
  408484:	d107      	bne.n	408496 <_malloc_r+0x106>
  408486:	e16d      	b.n	408764 <_malloc_r+0x3d4>
  408488:	2a00      	cmp	r2, #0
  40848a:	f280 817b 	bge.w	408784 <_malloc_r+0x3f4>
  40848e:	68db      	ldr	r3, [r3, #12]
  408490:	459c      	cmp	ip, r3
  408492:	f000 8167 	beq.w	408764 <_malloc_r+0x3d4>
  408496:	6859      	ldr	r1, [r3, #4]
  408498:	f021 0103 	bic.w	r1, r1, #3
  40849c:	1b8a      	subs	r2, r1, r6
  40849e:	2a0f      	cmp	r2, #15
  4084a0:	ddf2      	ble.n	408488 <_malloc_r+0xf8>
  4084a2:	f8d3 c00c 	ldr.w	ip, [r3, #12]
  4084a6:	f8d3 8008 	ldr.w	r8, [r3, #8]
  4084aa:	9300      	str	r3, [sp, #0]
  4084ac:	199c      	adds	r4, r3, r6
  4084ae:	4628      	mov	r0, r5
  4084b0:	f046 0601 	orr.w	r6, r6, #1
  4084b4:	f042 0501 	orr.w	r5, r2, #1
  4084b8:	605e      	str	r6, [r3, #4]
  4084ba:	f8c8 c00c 	str.w	ip, [r8, #12]
  4084be:	f8cc 8008 	str.w	r8, [ip, #8]
  4084c2:	617c      	str	r4, [r7, #20]
  4084c4:	613c      	str	r4, [r7, #16]
  4084c6:	f8c4 e00c 	str.w	lr, [r4, #12]
  4084ca:	f8c4 e008 	str.w	lr, [r4, #8]
  4084ce:	6065      	str	r5, [r4, #4]
  4084d0:	505a      	str	r2, [r3, r1]
  4084d2:	f000 fadf 	bl	408a94 <__malloc_unlock>
  4084d6:	9b00      	ldr	r3, [sp, #0]
  4084d8:	f103 0408 	add.w	r4, r3, #8
  4084dc:	e01e      	b.n	40851c <_malloc_r+0x18c>
  4084de:	2910      	cmp	r1, #16
  4084e0:	d820      	bhi.n	408524 <_malloc_r+0x194>
  4084e2:	f000 fad1 	bl	408a88 <__malloc_lock>
  4084e6:	2610      	movs	r6, #16
  4084e8:	2318      	movs	r3, #24
  4084ea:	2002      	movs	r0, #2
  4084ec:	4f79      	ldr	r7, [pc, #484]	; (4086d4 <_malloc_r+0x344>)
  4084ee:	443b      	add	r3, r7
  4084f0:	f1a3 0208 	sub.w	r2, r3, #8
  4084f4:	685c      	ldr	r4, [r3, #4]
  4084f6:	4294      	cmp	r4, r2
  4084f8:	f000 813d 	beq.w	408776 <_malloc_r+0x3e6>
  4084fc:	6863      	ldr	r3, [r4, #4]
  4084fe:	68e1      	ldr	r1, [r4, #12]
  408500:	68a6      	ldr	r6, [r4, #8]
  408502:	f023 0303 	bic.w	r3, r3, #3
  408506:	4423      	add	r3, r4
  408508:	4628      	mov	r0, r5
  40850a:	685a      	ldr	r2, [r3, #4]
  40850c:	60f1      	str	r1, [r6, #12]
  40850e:	f042 0201 	orr.w	r2, r2, #1
  408512:	608e      	str	r6, [r1, #8]
  408514:	605a      	str	r2, [r3, #4]
  408516:	f000 fabd 	bl	408a94 <__malloc_unlock>
  40851a:	3408      	adds	r4, #8
  40851c:	4620      	mov	r0, r4
  40851e:	b003      	add	sp, #12
  408520:	e8bd 8ff0 	ldmia.w	sp!, {r4, r5, r6, r7, r8, r9, sl, fp, pc}
  408524:	2400      	movs	r4, #0
  408526:	230c      	movs	r3, #12
  408528:	4620      	mov	r0, r4
  40852a:	602b      	str	r3, [r5, #0]
  40852c:	b003      	add	sp, #12
  40852e:	e8bd 8ff0 	ldmia.w	sp!, {r4, r5, r6, r7, r8, r9, sl, fp, pc}
  408532:	2040      	movs	r0, #64	; 0x40
  408534:	f44f 7300 	mov.w	r3, #512	; 0x200
  408538:	f04f 0e3f 	mov.w	lr, #63	; 0x3f
  40853c:	e74a      	b.n	4083d4 <_malloc_r+0x44>
  40853e:	4423      	add	r3, r4
  408540:	68e1      	ldr	r1, [r4, #12]
  408542:	685a      	ldr	r2, [r3, #4]
  408544:	68a6      	ldr	r6, [r4, #8]
  408546:	f042 0201 	orr.w	r2, r2, #1
  40854a:	60f1      	str	r1, [r6, #12]
  40854c:	4628      	mov	r0, r5
  40854e:	608e      	str	r6, [r1, #8]
  408550:	605a      	str	r2, [r3, #4]
  408552:	f000 fa9f 	bl	408a94 <__malloc_unlock>
  408556:	3408      	adds	r4, #8
  408558:	4620      	mov	r0, r4
  40855a:	b003      	add	sp, #12
  40855c:	e8bd 8ff0 	ldmia.w	sp!, {r4, r5, r6, r7, r8, r9, sl, fp, pc}
  408560:	4423      	add	r3, r4
  408562:	4628      	mov	r0, r5
  408564:	685a      	ldr	r2, [r3, #4]
  408566:	f042 0201 	orr.w	r2, r2, #1
  40856a:	605a      	str	r2, [r3, #4]
  40856c:	f000 fa92 	bl	408a94 <__malloc_unlock>
  408570:	3408      	adds	r4, #8
  408572:	4620      	mov	r0, r4
  408574:	b003      	add	sp, #12
  408576:	e8bd 8ff0 	ldmia.w	sp!, {r4, r5, r6, r7, r8, r9, sl, fp, pc}
  40857a:	68bc      	ldr	r4, [r7, #8]
  40857c:	6863      	ldr	r3, [r4, #4]
  40857e:	f023 0803 	bic.w	r8, r3, #3
  408582:	45b0      	cmp	r8, r6
  408584:	d304      	bcc.n	408590 <_malloc_r+0x200>
  408586:	eba8 0306 	sub.w	r3, r8, r6
  40858a:	2b0f      	cmp	r3, #15
  40858c:	f300 8085 	bgt.w	40869a <_malloc_r+0x30a>
  408590:	f8df 9158 	ldr.w	r9, [pc, #344]	; 4086ec <_malloc_r+0x35c>
  408594:	4b50      	ldr	r3, [pc, #320]	; (4086d8 <_malloc_r+0x348>)
  408596:	f8d9 2000 	ldr.w	r2, [r9]
  40859a:	681b      	ldr	r3, [r3, #0]
  40859c:	3201      	adds	r2, #1
  40859e:	4433      	add	r3, r6
  4085a0:	eb04 0a08 	add.w	sl, r4, r8
  4085a4:	f000 8155 	beq.w	408852 <_malloc_r+0x4c2>
  4085a8:	f503 5380 	add.w	r3, r3, #4096	; 0x1000
  4085ac:	330f      	adds	r3, #15
  4085ae:	f423 6b7f 	bic.w	fp, r3, #4080	; 0xff0
  4085b2:	f02b 0b0f 	bic.w	fp, fp, #15
  4085b6:	4659      	mov	r1, fp
  4085b8:	4628      	mov	r0, r5
  4085ba:	f000 fc17 	bl	408dec <_sbrk_r>
  4085be:	1c41      	adds	r1, r0, #1
  4085c0:	4602      	mov	r2, r0
  4085c2:	f000 80fc 	beq.w	4087be <_malloc_r+0x42e>
  4085c6:	4582      	cmp	sl, r0
  4085c8:	f200 80f7 	bhi.w	4087ba <_malloc_r+0x42a>
  4085cc:	4b43      	ldr	r3, [pc, #268]	; (4086dc <_malloc_r+0x34c>)
  4085ce:	6819      	ldr	r1, [r3, #0]
  4085d0:	4459      	add	r1, fp
  4085d2:	6019      	str	r1, [r3, #0]
  4085d4:	f000 814d 	beq.w	408872 <_malloc_r+0x4e2>
  4085d8:	f8d9 0000 	ldr.w	r0, [r9]
  4085dc:	3001      	adds	r0, #1
  4085de:	bf1b      	ittet	ne
  4085e0:	eba2 0a0a 	subne.w	sl, r2, sl
  4085e4:	4451      	addne	r1, sl
  4085e6:	f8c9 2000 	streq.w	r2, [r9]
  4085ea:	6019      	strne	r1, [r3, #0]
  4085ec:	f012 0107 	ands.w	r1, r2, #7
  4085f0:	f000 8115 	beq.w	40881e <_malloc_r+0x48e>
  4085f4:	f1c1 0008 	rsb	r0, r1, #8
  4085f8:	f5c1 5180 	rsb	r1, r1, #4096	; 0x1000
  4085fc:	4402      	add	r2, r0
  4085fe:	3108      	adds	r1, #8
  408600:	eb02 090b 	add.w	r9, r2, fp
  408604:	f3c9 090b 	ubfx	r9, r9, #0, #12
  408608:	eba1 0909 	sub.w	r9, r1, r9
  40860c:	4649      	mov	r1, r9
  40860e:	4628      	mov	r0, r5
  408610:	9301      	str	r3, [sp, #4]
  408612:	9200      	str	r2, [sp, #0]
  408614:	f000 fbea 	bl	408dec <_sbrk_r>
  408618:	1c43      	adds	r3, r0, #1
  40861a:	e89d 000c 	ldmia.w	sp, {r2, r3}
  40861e:	f000 8143 	beq.w	4088a8 <_malloc_r+0x518>
  408622:	1a80      	subs	r0, r0, r2
  408624:	4448      	add	r0, r9
  408626:	f040 0001 	orr.w	r0, r0, #1
  40862a:	6819      	ldr	r1, [r3, #0]
  40862c:	60ba      	str	r2, [r7, #8]
  40862e:	4449      	add	r1, r9
  408630:	42bc      	cmp	r4, r7
  408632:	6050      	str	r0, [r2, #4]
  408634:	6019      	str	r1, [r3, #0]
  408636:	d017      	beq.n	408668 <_malloc_r+0x2d8>
  408638:	f1b8 0f0f 	cmp.w	r8, #15
  40863c:	f240 80fb 	bls.w	408836 <_malloc_r+0x4a6>
  408640:	6860      	ldr	r0, [r4, #4]
  408642:	f1a8 020c 	sub.w	r2, r8, #12
  408646:	f022 0207 	bic.w	r2, r2, #7
  40864a:	eb04 0e02 	add.w	lr, r4, r2
  40864e:	f000 0001 	and.w	r0, r0, #1
  408652:	f04f 0c05 	mov.w	ip, #5
  408656:	4310      	orrs	r0, r2
  408658:	2a0f      	cmp	r2, #15
  40865a:	6060      	str	r0, [r4, #4]
  40865c:	f8ce c004 	str.w	ip, [lr, #4]
  408660:	f8ce c008 	str.w	ip, [lr, #8]
  408664:	f200 8117 	bhi.w	408896 <_malloc_r+0x506>
  408668:	4b1d      	ldr	r3, [pc, #116]	; (4086e0 <_malloc_r+0x350>)
  40866a:	68bc      	ldr	r4, [r7, #8]
  40866c:	681a      	ldr	r2, [r3, #0]
  40866e:	4291      	cmp	r1, r2
  408670:	bf88      	it	hi
  408672:	6019      	strhi	r1, [r3, #0]
  408674:	4b1b      	ldr	r3, [pc, #108]	; (4086e4 <_malloc_r+0x354>)
  408676:	681a      	ldr	r2, [r3, #0]
  408678:	4291      	cmp	r1, r2
  40867a:	6862      	ldr	r2, [r4, #4]
  40867c:	bf88      	it	hi
  40867e:	6019      	strhi	r1, [r3, #0]
  408680:	f022 0203 	bic.w	r2, r2, #3
  408684:	4296      	cmp	r6, r2
  408686:	eba2 0306 	sub.w	r3, r2, r6
  40868a:	d801      	bhi.n	408690 <_malloc_r+0x300>
  40868c:	2b0f      	cmp	r3, #15
  40868e:	dc04      	bgt.n	40869a <_malloc_r+0x30a>
  408690:	4628      	mov	r0, r5
  408692:	f000 f9ff 	bl	408a94 <__malloc_unlock>
  408696:	2400      	movs	r4, #0
  408698:	e740      	b.n	40851c <_malloc_r+0x18c>
  40869a:	19a2      	adds	r2, r4, r6
  40869c:	f043 0301 	orr.w	r3, r3, #1
  4086a0:	f046 0601 	orr.w	r6, r6, #1
  4086a4:	6066      	str	r6, [r4, #4]
  4086a6:	4628      	mov	r0, r5
  4086a8:	60ba      	str	r2, [r7, #8]
  4086aa:	6053      	str	r3, [r2, #4]
  4086ac:	f000 f9f2 	bl	408a94 <__malloc_unlock>
  4086b0:	3408      	adds	r4, #8
  4086b2:	4620      	mov	r0, r4
  4086b4:	b003      	add	sp, #12
  4086b6:	e8bd 8ff0 	ldmia.w	sp!, {r4, r5, r6, r7, r8, r9, sl, fp, pc}
  4086ba:	2b14      	cmp	r3, #20
  4086bc:	d971      	bls.n	4087a2 <_malloc_r+0x412>
  4086be:	2b54      	cmp	r3, #84	; 0x54
  4086c0:	f200 80a3 	bhi.w	40880a <_malloc_r+0x47a>
  4086c4:	0b33      	lsrs	r3, r6, #12
  4086c6:	f103 006f 	add.w	r0, r3, #111	; 0x6f
  4086ca:	f103 0e6e 	add.w	lr, r3, #110	; 0x6e
  4086ce:	00c3      	lsls	r3, r0, #3
  4086d0:	e680      	b.n	4083d4 <_malloc_r+0x44>
  4086d2:	bf00      	nop
  4086d4:	204005d0 	.word	0x204005d0
  4086d8:	20403988 	.word	0x20403988
  4086dc:	20403958 	.word	0x20403958
  4086e0:	20403980 	.word	0x20403980
  4086e4:	20403984 	.word	0x20403984
  4086e8:	204005d8 	.word	0x204005d8
  4086ec:	204009d8 	.word	0x204009d8
  4086f0:	0a5a      	lsrs	r2, r3, #9
  4086f2:	2a04      	cmp	r2, #4
  4086f4:	d95b      	bls.n	4087ae <_malloc_r+0x41e>
  4086f6:	2a14      	cmp	r2, #20
  4086f8:	f200 80ae 	bhi.w	408858 <_malloc_r+0x4c8>
  4086fc:	f102 015c 	add.w	r1, r2, #92	; 0x5c
  408700:	00c9      	lsls	r1, r1, #3
  408702:	325b      	adds	r2, #91	; 0x5b
  408704:	eb07 0c01 	add.w	ip, r7, r1
  408708:	5879      	ldr	r1, [r7, r1]
  40870a:	f1ac 0c08 	sub.w	ip, ip, #8
  40870e:	458c      	cmp	ip, r1
  408710:	f000 8088 	beq.w	408824 <_malloc_r+0x494>
  408714:	684a      	ldr	r2, [r1, #4]
  408716:	f022 0203 	bic.w	r2, r2, #3
  40871a:	4293      	cmp	r3, r2
  40871c:	d273      	bcs.n	408806 <_malloc_r+0x476>
  40871e:	6889      	ldr	r1, [r1, #8]
  408720:	458c      	cmp	ip, r1
  408722:	d1f7      	bne.n	408714 <_malloc_r+0x384>
  408724:	f8dc 200c 	ldr.w	r2, [ip, #12]
  408728:	687b      	ldr	r3, [r7, #4]
  40872a:	60e2      	str	r2, [r4, #12]
  40872c:	f8c4 c008 	str.w	ip, [r4, #8]
  408730:	6094      	str	r4, [r2, #8]
  408732:	f8cc 400c 	str.w	r4, [ip, #12]
  408736:	e68f      	b.n	408458 <_malloc_r+0xc8>
  408738:	19a1      	adds	r1, r4, r6
  40873a:	f046 0c01 	orr.w	ip, r6, #1
  40873e:	f042 0601 	orr.w	r6, r2, #1
  408742:	f8c4 c004 	str.w	ip, [r4, #4]
  408746:	4628      	mov	r0, r5
  408748:	6179      	str	r1, [r7, #20]
  40874a:	6139      	str	r1, [r7, #16]
  40874c:	f8c1 e00c 	str.w	lr, [r1, #12]
  408750:	f8c1 e008 	str.w	lr, [r1, #8]
  408754:	604e      	str	r6, [r1, #4]
  408756:	50e2      	str	r2, [r4, r3]
  408758:	f000 f99c 	bl	408a94 <__malloc_unlock>
  40875c:	3408      	adds	r4, #8
  40875e:	e6dd      	b.n	40851c <_malloc_r+0x18c>
  408760:	687b      	ldr	r3, [r7, #4]
  408762:	e679      	b.n	408458 <_malloc_r+0xc8>
  408764:	f108 0801 	add.w	r8, r8, #1
  408768:	f018 0f03 	tst.w	r8, #3
  40876c:	f10c 0c08 	add.w	ip, ip, #8
  408770:	f47f ae85 	bne.w	40847e <_malloc_r+0xee>
  408774:	e02d      	b.n	4087d2 <_malloc_r+0x442>
  408776:	68dc      	ldr	r4, [r3, #12]
  408778:	42a3      	cmp	r3, r4
  40877a:	bf08      	it	eq
  40877c:	3002      	addeq	r0, #2
  40877e:	f43f ae3e 	beq.w	4083fe <_malloc_r+0x6e>
  408782:	e6bb      	b.n	4084fc <_malloc_r+0x16c>
  408784:	4419      	add	r1, r3
  408786:	461c      	mov	r4, r3
  408788:	684a      	ldr	r2, [r1, #4]
  40878a:	68db      	ldr	r3, [r3, #12]
  40878c:	f854 6f08 	ldr.w	r6, [r4, #8]!
  408790:	f042 0201 	orr.w	r2, r2, #1
  408794:	604a      	str	r2, [r1, #4]
  408796:	4628      	mov	r0, r5
  408798:	60f3      	str	r3, [r6, #12]
  40879a:	609e      	str	r6, [r3, #8]
  40879c:	f000 f97a 	bl	408a94 <__malloc_unlock>
  4087a0:	e6bc      	b.n	40851c <_malloc_r+0x18c>
  4087a2:	f103 005c 	add.w	r0, r3, #92	; 0x5c
  4087a6:	f103 0e5b 	add.w	lr, r3, #91	; 0x5b
  4087aa:	00c3      	lsls	r3, r0, #3
  4087ac:	e612      	b.n	4083d4 <_malloc_r+0x44>
  4087ae:	099a      	lsrs	r2, r3, #6
  4087b0:	f102 0139 	add.w	r1, r2, #57	; 0x39
  4087b4:	00c9      	lsls	r1, r1, #3
  4087b6:	3238      	adds	r2, #56	; 0x38
  4087b8:	e7a4      	b.n	408704 <_malloc_r+0x374>
  4087ba:	42bc      	cmp	r4, r7
  4087bc:	d054      	beq.n	408868 <_malloc_r+0x4d8>
  4087be:	68bc      	ldr	r4, [r7, #8]
  4087c0:	6862      	ldr	r2, [r4, #4]
  4087c2:	f022 0203 	bic.w	r2, r2, #3
  4087c6:	e75d      	b.n	408684 <_malloc_r+0x2f4>
  4087c8:	f859 3908 	ldr.w	r3, [r9], #-8
  4087cc:	4599      	cmp	r9, r3
  4087ce:	f040 8086 	bne.w	4088de <_malloc_r+0x54e>
  4087d2:	f010 0f03 	tst.w	r0, #3
  4087d6:	f100 30ff 	add.w	r0, r0, #4294967295
  4087da:	d1f5      	bne.n	4087c8 <_malloc_r+0x438>
  4087dc:	687b      	ldr	r3, [r7, #4]
  4087de:	ea23 0304 	bic.w	r3, r3, r4
  4087e2:	607b      	str	r3, [r7, #4]
  4087e4:	0064      	lsls	r4, r4, #1
  4087e6:	429c      	cmp	r4, r3
  4087e8:	f63f aec7 	bhi.w	40857a <_malloc_r+0x1ea>
  4087ec:	2c00      	cmp	r4, #0
  4087ee:	f43f aec4 	beq.w	40857a <_malloc_r+0x1ea>
  4087f2:	421c      	tst	r4, r3
  4087f4:	4640      	mov	r0, r8
  4087f6:	f47f ae3e 	bne.w	408476 <_malloc_r+0xe6>
  4087fa:	0064      	lsls	r4, r4, #1
  4087fc:	421c      	tst	r4, r3
  4087fe:	f100 0004 	add.w	r0, r0, #4
  408802:	d0fa      	beq.n	4087fa <_malloc_r+0x46a>
  408804:	e637      	b.n	408476 <_malloc_r+0xe6>
  408806:	468c      	mov	ip, r1
  408808:	e78c      	b.n	408724 <_malloc_r+0x394>
  40880a:	f5b3 7faa 	cmp.w	r3, #340	; 0x154
  40880e:	d815      	bhi.n	40883c <_malloc_r+0x4ac>
  408810:	0bf3      	lsrs	r3, r6, #15
  408812:	f103 0078 	add.w	r0, r3, #120	; 0x78
  408816:	f103 0e77 	add.w	lr, r3, #119	; 0x77
  40881a:	00c3      	lsls	r3, r0, #3
  40881c:	e5da      	b.n	4083d4 <_malloc_r+0x44>
  40881e:	f44f 5180 	mov.w	r1, #4096	; 0x1000
  408822:	e6ed      	b.n	408600 <_malloc_r+0x270>
  408824:	687b      	ldr	r3, [r7, #4]
  408826:	1092      	asrs	r2, r2, #2
  408828:	2101      	movs	r1, #1
  40882a:	fa01 f202 	lsl.w	r2, r1, r2
  40882e:	4313      	orrs	r3, r2
  408830:	607b      	str	r3, [r7, #4]
  408832:	4662      	mov	r2, ip
  408834:	e779      	b.n	40872a <_malloc_r+0x39a>
  408836:	2301      	movs	r3, #1
  408838:	6053      	str	r3, [r2, #4]
  40883a:	e729      	b.n	408690 <_malloc_r+0x300>
  40883c:	f240 5254 	movw	r2, #1364	; 0x554
  408840:	4293      	cmp	r3, r2
  408842:	d822      	bhi.n	40888a <_malloc_r+0x4fa>
  408844:	0cb3      	lsrs	r3, r6, #18
  408846:	f103 007d 	add.w	r0, r3, #125	; 0x7d
  40884a:	f103 0e7c 	add.w	lr, r3, #124	; 0x7c
  40884e:	00c3      	lsls	r3, r0, #3
  408850:	e5c0      	b.n	4083d4 <_malloc_r+0x44>
  408852:	f103 0b10 	add.w	fp, r3, #16
  408856:	e6ae      	b.n	4085b6 <_malloc_r+0x226>
  408858:	2a54      	cmp	r2, #84	; 0x54
  40885a:	d829      	bhi.n	4088b0 <_malloc_r+0x520>
  40885c:	0b1a      	lsrs	r2, r3, #12
  40885e:	f102 016f 	add.w	r1, r2, #111	; 0x6f
  408862:	00c9      	lsls	r1, r1, #3
  408864:	326e      	adds	r2, #110	; 0x6e
  408866:	e74d      	b.n	408704 <_malloc_r+0x374>
  408868:	4b20      	ldr	r3, [pc, #128]	; (4088ec <_malloc_r+0x55c>)
  40886a:	6819      	ldr	r1, [r3, #0]
  40886c:	4459      	add	r1, fp
  40886e:	6019      	str	r1, [r3, #0]
  408870:	e6b2      	b.n	4085d8 <_malloc_r+0x248>
  408872:	f3ca 000b 	ubfx	r0, sl, #0, #12
  408876:	2800      	cmp	r0, #0
  408878:	f47f aeae 	bne.w	4085d8 <_malloc_r+0x248>
  40887c:	eb08 030b 	add.w	r3, r8, fp
  408880:	68ba      	ldr	r2, [r7, #8]
  408882:	f043 0301 	orr.w	r3, r3, #1
  408886:	6053      	str	r3, [r2, #4]
  408888:	e6ee      	b.n	408668 <_malloc_r+0x2d8>
  40888a:	207f      	movs	r0, #127	; 0x7f
  40888c:	f44f 737e 	mov.w	r3, #1016	; 0x3f8
  408890:	f04f 0e7e 	mov.w	lr, #126	; 0x7e
  408894:	e59e      	b.n	4083d4 <_malloc_r+0x44>
  408896:	f104 0108 	add.w	r1, r4, #8
  40889a:	4628      	mov	r0, r5
  40889c:	9300      	str	r3, [sp, #0]
  40889e:	f7ff fa59 	bl	407d54 <_free_r>
  4088a2:	9b00      	ldr	r3, [sp, #0]
  4088a4:	6819      	ldr	r1, [r3, #0]
  4088a6:	e6df      	b.n	408668 <_malloc_r+0x2d8>
  4088a8:	2001      	movs	r0, #1
  4088aa:	f04f 0900 	mov.w	r9, #0
  4088ae:	e6bc      	b.n	40862a <_malloc_r+0x29a>
  4088b0:	f5b2 7faa 	cmp.w	r2, #340	; 0x154
  4088b4:	d805      	bhi.n	4088c2 <_malloc_r+0x532>
  4088b6:	0bda      	lsrs	r2, r3, #15
  4088b8:	f102 0178 	add.w	r1, r2, #120	; 0x78
  4088bc:	00c9      	lsls	r1, r1, #3
  4088be:	3277      	adds	r2, #119	; 0x77
  4088c0:	e720      	b.n	408704 <_malloc_r+0x374>
  4088c2:	f240 5154 	movw	r1, #1364	; 0x554
  4088c6:	428a      	cmp	r2, r1
  4088c8:	d805      	bhi.n	4088d6 <_malloc_r+0x546>
  4088ca:	0c9a      	lsrs	r2, r3, #18
  4088cc:	f102 017d 	add.w	r1, r2, #125	; 0x7d
  4088d0:	00c9      	lsls	r1, r1, #3
  4088d2:	327c      	adds	r2, #124	; 0x7c
  4088d4:	e716      	b.n	408704 <_malloc_r+0x374>
  4088d6:	f44f 717e 	mov.w	r1, #1016	; 0x3f8
  4088da:	227e      	movs	r2, #126	; 0x7e
  4088dc:	e712      	b.n	408704 <_malloc_r+0x374>
  4088de:	687b      	ldr	r3, [r7, #4]
  4088e0:	e780      	b.n	4087e4 <_malloc_r+0x454>
  4088e2:	08f0      	lsrs	r0, r6, #3
  4088e4:	f106 0308 	add.w	r3, r6, #8
  4088e8:	e600      	b.n	4084ec <_malloc_r+0x15c>
  4088ea:	bf00      	nop
  4088ec:	20403958 	.word	0x20403958

004088f0 <__ascii_mbtowc>:
  4088f0:	b082      	sub	sp, #8
  4088f2:	b149      	cbz	r1, 408908 <__ascii_mbtowc+0x18>
  4088f4:	b15a      	cbz	r2, 40890e <__ascii_mbtowc+0x1e>
  4088f6:	b16b      	cbz	r3, 408914 <__ascii_mbtowc+0x24>
  4088f8:	7813      	ldrb	r3, [r2, #0]
  4088fa:	600b      	str	r3, [r1, #0]
  4088fc:	7812      	ldrb	r2, [r2, #0]
  4088fe:	1c10      	adds	r0, r2, #0
  408900:	bf18      	it	ne
  408902:	2001      	movne	r0, #1
  408904:	b002      	add	sp, #8
  408906:	4770      	bx	lr
  408908:	a901      	add	r1, sp, #4
  40890a:	2a00      	cmp	r2, #0
  40890c:	d1f3      	bne.n	4088f6 <__ascii_mbtowc+0x6>
  40890e:	4610      	mov	r0, r2
  408910:	b002      	add	sp, #8
  408912:	4770      	bx	lr
  408914:	f06f 0001 	mvn.w	r0, #1
  408918:	e7f4      	b.n	408904 <__ascii_mbtowc+0x14>
  40891a:	bf00      	nop
  40891c:	0000      	movs	r0, r0
	...

00408920 <memchr>:
  408920:	f001 01ff 	and.w	r1, r1, #255	; 0xff
  408924:	2a10      	cmp	r2, #16
  408926:	db2b      	blt.n	408980 <memchr+0x60>
  408928:	f010 0f07 	tst.w	r0, #7
  40892c:	d008      	beq.n	408940 <memchr+0x20>
  40892e:	f810 3b01 	ldrb.w	r3, [r0], #1
  408932:	3a01      	subs	r2, #1
  408934:	428b      	cmp	r3, r1
  408936:	d02d      	beq.n	408994 <memchr+0x74>
  408938:	f010 0f07 	tst.w	r0, #7
  40893c:	b342      	cbz	r2, 408990 <memchr+0x70>
  40893e:	d1f6      	bne.n	40892e <memchr+0xe>
  408940:	b4f0      	push	{r4, r5, r6, r7}
  408942:	ea41 2101 	orr.w	r1, r1, r1, lsl #8
  408946:	ea41 4101 	orr.w	r1, r1, r1, lsl #16
  40894a:	f022 0407 	bic.w	r4, r2, #7
  40894e:	f07f 0700 	mvns.w	r7, #0
  408952:	2300      	movs	r3, #0
  408954:	e8f0 5602 	ldrd	r5, r6, [r0], #8
  408958:	3c08      	subs	r4, #8
  40895a:	ea85 0501 	eor.w	r5, r5, r1
  40895e:	ea86 0601 	eor.w	r6, r6, r1
  408962:	fa85 f547 	uadd8	r5, r5, r7
  408966:	faa3 f587 	sel	r5, r3, r7
  40896a:	fa86 f647 	uadd8	r6, r6, r7
  40896e:	faa5 f687 	sel	r6, r5, r7
  408972:	b98e      	cbnz	r6, 408998 <memchr+0x78>
  408974:	d1ee      	bne.n	408954 <memchr+0x34>
  408976:	bcf0      	pop	{r4, r5, r6, r7}
  408978:	f001 01ff 	and.w	r1, r1, #255	; 0xff
  40897c:	f002 0207 	and.w	r2, r2, #7
  408980:	b132      	cbz	r2, 408990 <memchr+0x70>
  408982:	f810 3b01 	ldrb.w	r3, [r0], #1
  408986:	3a01      	subs	r2, #1
  408988:	ea83 0301 	eor.w	r3, r3, r1
  40898c:	b113      	cbz	r3, 408994 <memchr+0x74>
  40898e:	d1f8      	bne.n	408982 <memchr+0x62>
  408990:	2000      	movs	r0, #0
  408992:	4770      	bx	lr
  408994:	3801      	subs	r0, #1
  408996:	4770      	bx	lr
  408998:	2d00      	cmp	r5, #0
  40899a:	bf06      	itte	eq
  40899c:	4635      	moveq	r5, r6
  40899e:	3803      	subeq	r0, #3
  4089a0:	3807      	subne	r0, #7
  4089a2:	f015 0f01 	tst.w	r5, #1
  4089a6:	d107      	bne.n	4089b8 <memchr+0x98>
  4089a8:	3001      	adds	r0, #1
  4089aa:	f415 7f80 	tst.w	r5, #256	; 0x100
  4089ae:	bf02      	ittt	eq
  4089b0:	3001      	addeq	r0, #1
  4089b2:	f415 3fc0 	tsteq.w	r5, #98304	; 0x18000
  4089b6:	3001      	addeq	r0, #1
  4089b8:	bcf0      	pop	{r4, r5, r6, r7}
  4089ba:	3801      	subs	r0, #1
  4089bc:	4770      	bx	lr
  4089be:	bf00      	nop

004089c0 <memmove>:
  4089c0:	4288      	cmp	r0, r1
  4089c2:	b5f0      	push	{r4, r5, r6, r7, lr}
  4089c4:	d90d      	bls.n	4089e2 <memmove+0x22>
  4089c6:	188b      	adds	r3, r1, r2
  4089c8:	4298      	cmp	r0, r3
  4089ca:	d20a      	bcs.n	4089e2 <memmove+0x22>
  4089cc:	1884      	adds	r4, r0, r2
  4089ce:	2a00      	cmp	r2, #0
  4089d0:	d051      	beq.n	408a76 <memmove+0xb6>
  4089d2:	4622      	mov	r2, r4
  4089d4:	f813 4d01 	ldrb.w	r4, [r3, #-1]!
  4089d8:	f802 4d01 	strb.w	r4, [r2, #-1]!
  4089dc:	4299      	cmp	r1, r3
  4089de:	d1f9      	bne.n	4089d4 <memmove+0x14>
  4089e0:	bdf0      	pop	{r4, r5, r6, r7, pc}
  4089e2:	2a0f      	cmp	r2, #15
  4089e4:	d948      	bls.n	408a78 <memmove+0xb8>
  4089e6:	ea41 0300 	orr.w	r3, r1, r0
  4089ea:	079b      	lsls	r3, r3, #30
  4089ec:	d146      	bne.n	408a7c <memmove+0xbc>
  4089ee:	f100 0410 	add.w	r4, r0, #16
  4089f2:	f101 0310 	add.w	r3, r1, #16
  4089f6:	4615      	mov	r5, r2
  4089f8:	f853 6c10 	ldr.w	r6, [r3, #-16]
  4089fc:	f844 6c10 	str.w	r6, [r4, #-16]
  408a00:	f853 6c0c 	ldr.w	r6, [r3, #-12]
  408a04:	f844 6c0c 	str.w	r6, [r4, #-12]
  408a08:	f853 6c08 	ldr.w	r6, [r3, #-8]
  408a0c:	f844 6c08 	str.w	r6, [r4, #-8]
  408a10:	3d10      	subs	r5, #16
  408a12:	f853 6c04 	ldr.w	r6, [r3, #-4]
  408a16:	f844 6c04 	str.w	r6, [r4, #-4]
  408a1a:	2d0f      	cmp	r5, #15
  408a1c:	f103 0310 	add.w	r3, r3, #16
  408a20:	f104 0410 	add.w	r4, r4, #16
  408a24:	d8e8      	bhi.n	4089f8 <memmove+0x38>
  408a26:	f1a2 0310 	sub.w	r3, r2, #16
  408a2a:	f023 030f 	bic.w	r3, r3, #15
  408a2e:	f002 0e0f 	and.w	lr, r2, #15
  408a32:	3310      	adds	r3, #16
  408a34:	f1be 0f03 	cmp.w	lr, #3
  408a38:	4419      	add	r1, r3
  408a3a:	4403      	add	r3, r0
  408a3c:	d921      	bls.n	408a82 <memmove+0xc2>
  408a3e:	1f1e      	subs	r6, r3, #4
  408a40:	460d      	mov	r5, r1
  408a42:	4674      	mov	r4, lr
  408a44:	3c04      	subs	r4, #4
  408a46:	f855 7b04 	ldr.w	r7, [r5], #4
  408a4a:	f846 7f04 	str.w	r7, [r6, #4]!
  408a4e:	2c03      	cmp	r4, #3
  408a50:	d8f8      	bhi.n	408a44 <memmove+0x84>
  408a52:	f1ae 0404 	sub.w	r4, lr, #4
  408a56:	f024 0403 	bic.w	r4, r4, #3
  408a5a:	3404      	adds	r4, #4
  408a5c:	4421      	add	r1, r4
  408a5e:	4423      	add	r3, r4
  408a60:	f002 0203 	and.w	r2, r2, #3
  408a64:	b162      	cbz	r2, 408a80 <memmove+0xc0>
  408a66:	3b01      	subs	r3, #1
  408a68:	440a      	add	r2, r1
  408a6a:	f811 4b01 	ldrb.w	r4, [r1], #1
  408a6e:	f803 4f01 	strb.w	r4, [r3, #1]!
  408a72:	428a      	cmp	r2, r1
  408a74:	d1f9      	bne.n	408a6a <memmove+0xaa>
  408a76:	bdf0      	pop	{r4, r5, r6, r7, pc}
  408a78:	4603      	mov	r3, r0
  408a7a:	e7f3      	b.n	408a64 <memmove+0xa4>
  408a7c:	4603      	mov	r3, r0
  408a7e:	e7f2      	b.n	408a66 <memmove+0xa6>
  408a80:	bdf0      	pop	{r4, r5, r6, r7, pc}
  408a82:	4672      	mov	r2, lr
  408a84:	e7ee      	b.n	408a64 <memmove+0xa4>
  408a86:	bf00      	nop

00408a88 <__malloc_lock>:
  408a88:	4801      	ldr	r0, [pc, #4]	; (408a90 <__malloc_lock+0x8>)
  408a8a:	f7ff bbfd 	b.w	408288 <__retarget_lock_acquire_recursive>
  408a8e:	bf00      	nop
  408a90:	20404a30 	.word	0x20404a30

00408a94 <__malloc_unlock>:
  408a94:	4801      	ldr	r0, [pc, #4]	; (408a9c <__malloc_unlock+0x8>)
  408a96:	f7ff bbf9 	b.w	40828c <__retarget_lock_release_recursive>
  408a9a:	bf00      	nop
  408a9c:	20404a30 	.word	0x20404a30

00408aa0 <_realloc_r>:
  408aa0:	2900      	cmp	r1, #0
  408aa2:	f000 8095 	beq.w	408bd0 <_realloc_r+0x130>
  408aa6:	e92d 4ff0 	stmdb	sp!, {r4, r5, r6, r7, r8, r9, sl, fp, lr}
  408aaa:	460d      	mov	r5, r1
  408aac:	4616      	mov	r6, r2
  408aae:	b083      	sub	sp, #12
  408ab0:	4680      	mov	r8, r0
  408ab2:	f106 070b 	add.w	r7, r6, #11
  408ab6:	f7ff ffe7 	bl	408a88 <__malloc_lock>
  408aba:	f855 ec04 	ldr.w	lr, [r5, #-4]
  408abe:	2f16      	cmp	r7, #22
  408ac0:	f02e 0403 	bic.w	r4, lr, #3
  408ac4:	f1a5 0908 	sub.w	r9, r5, #8
  408ac8:	d83c      	bhi.n	408b44 <_realloc_r+0xa4>
  408aca:	2210      	movs	r2, #16
  408acc:	4617      	mov	r7, r2
  408ace:	42be      	cmp	r6, r7
  408ad0:	d83d      	bhi.n	408b4e <_realloc_r+0xae>
  408ad2:	4294      	cmp	r4, r2
  408ad4:	da43      	bge.n	408b5e <_realloc_r+0xbe>
  408ad6:	4bc4      	ldr	r3, [pc, #784]	; (408de8 <_realloc_r+0x348>)
  408ad8:	6899      	ldr	r1, [r3, #8]
  408ada:	eb09 0004 	add.w	r0, r9, r4
  408ade:	4288      	cmp	r0, r1
  408ae0:	f000 80b4 	beq.w	408c4c <_realloc_r+0x1ac>
  408ae4:	6843      	ldr	r3, [r0, #4]
  408ae6:	f023 0101 	bic.w	r1, r3, #1
  408aea:	4401      	add	r1, r0
  408aec:	6849      	ldr	r1, [r1, #4]
  408aee:	07c9      	lsls	r1, r1, #31
  408af0:	d54c      	bpl.n	408b8c <_realloc_r+0xec>
  408af2:	f01e 0f01 	tst.w	lr, #1
  408af6:	f000 809b 	beq.w	408c30 <_realloc_r+0x190>
  408afa:	4631      	mov	r1, r6
  408afc:	4640      	mov	r0, r8
  408afe:	f7ff fc47 	bl	408390 <_malloc_r>
  408b02:	4606      	mov	r6, r0
  408b04:	2800      	cmp	r0, #0
  408b06:	d03a      	beq.n	408b7e <_realloc_r+0xde>
  408b08:	f855 3c04 	ldr.w	r3, [r5, #-4]
  408b0c:	f023 0301 	bic.w	r3, r3, #1
  408b10:	444b      	add	r3, r9
  408b12:	f1a0 0208 	sub.w	r2, r0, #8
  408b16:	429a      	cmp	r2, r3
  408b18:	f000 8121 	beq.w	408d5e <_realloc_r+0x2be>
  408b1c:	1f22      	subs	r2, r4, #4
  408b1e:	2a24      	cmp	r2, #36	; 0x24
  408b20:	f200 8107 	bhi.w	408d32 <_realloc_r+0x292>
  408b24:	2a13      	cmp	r2, #19
  408b26:	f200 80db 	bhi.w	408ce0 <_realloc_r+0x240>
  408b2a:	4603      	mov	r3, r0
  408b2c:	462a      	mov	r2, r5
  408b2e:	6811      	ldr	r1, [r2, #0]
  408b30:	6019      	str	r1, [r3, #0]
  408b32:	6851      	ldr	r1, [r2, #4]
  408b34:	6059      	str	r1, [r3, #4]
  408b36:	6892      	ldr	r2, [r2, #8]
  408b38:	609a      	str	r2, [r3, #8]
  408b3a:	4629      	mov	r1, r5
  408b3c:	4640      	mov	r0, r8
  408b3e:	f7ff f909 	bl	407d54 <_free_r>
  408b42:	e01c      	b.n	408b7e <_realloc_r+0xde>
  408b44:	f027 0707 	bic.w	r7, r7, #7
  408b48:	2f00      	cmp	r7, #0
  408b4a:	463a      	mov	r2, r7
  408b4c:	dabf      	bge.n	408ace <_realloc_r+0x2e>
  408b4e:	2600      	movs	r6, #0
  408b50:	230c      	movs	r3, #12
  408b52:	4630      	mov	r0, r6
  408b54:	f8c8 3000 	str.w	r3, [r8]
  408b58:	b003      	add	sp, #12
  408b5a:	e8bd 8ff0 	ldmia.w	sp!, {r4, r5, r6, r7, r8, r9, sl, fp, pc}
  408b5e:	462e      	mov	r6, r5
  408b60:	1be3      	subs	r3, r4, r7
  408b62:	2b0f      	cmp	r3, #15
  408b64:	d81e      	bhi.n	408ba4 <_realloc_r+0x104>
  408b66:	f8d9 3004 	ldr.w	r3, [r9, #4]
  408b6a:	f003 0301 	and.w	r3, r3, #1
  408b6e:	4323      	orrs	r3, r4
  408b70:	444c      	add	r4, r9
  408b72:	f8c9 3004 	str.w	r3, [r9, #4]
  408b76:	6863      	ldr	r3, [r4, #4]
  408b78:	f043 0301 	orr.w	r3, r3, #1
  408b7c:	6063      	str	r3, [r4, #4]
  408b7e:	4640      	mov	r0, r8
  408b80:	f7ff ff88 	bl	408a94 <__malloc_unlock>
  408b84:	4630      	mov	r0, r6
  408b86:	b003      	add	sp, #12
  408b88:	e8bd 8ff0 	ldmia.w	sp!, {r4, r5, r6, r7, r8, r9, sl, fp, pc}
  408b8c:	f023 0303 	bic.w	r3, r3, #3
  408b90:	18e1      	adds	r1, r4, r3
  408b92:	4291      	cmp	r1, r2
  408b94:	db1f      	blt.n	408bd6 <_realloc_r+0x136>
  408b96:	68c3      	ldr	r3, [r0, #12]
  408b98:	6882      	ldr	r2, [r0, #8]
  408b9a:	462e      	mov	r6, r5
  408b9c:	60d3      	str	r3, [r2, #12]
  408b9e:	460c      	mov	r4, r1
  408ba0:	609a      	str	r2, [r3, #8]
  408ba2:	e7dd      	b.n	408b60 <_realloc_r+0xc0>
  408ba4:	f8d9 2004 	ldr.w	r2, [r9, #4]
  408ba8:	eb09 0107 	add.w	r1, r9, r7
  408bac:	f002 0201 	and.w	r2, r2, #1
  408bb0:	444c      	add	r4, r9
  408bb2:	f043 0301 	orr.w	r3, r3, #1
  408bb6:	4317      	orrs	r7, r2
  408bb8:	f8c9 7004 	str.w	r7, [r9, #4]
  408bbc:	604b      	str	r3, [r1, #4]
  408bbe:	6863      	ldr	r3, [r4, #4]
  408bc0:	f043 0301 	orr.w	r3, r3, #1
  408bc4:	3108      	adds	r1, #8
  408bc6:	6063      	str	r3, [r4, #4]
  408bc8:	4640      	mov	r0, r8
  408bca:	f7ff f8c3 	bl	407d54 <_free_r>
  408bce:	e7d6      	b.n	408b7e <_realloc_r+0xde>
  408bd0:	4611      	mov	r1, r2
  408bd2:	f7ff bbdd 	b.w	408390 <_malloc_r>
  408bd6:	f01e 0f01 	tst.w	lr, #1
  408bda:	d18e      	bne.n	408afa <_realloc_r+0x5a>
  408bdc:	f855 1c08 	ldr.w	r1, [r5, #-8]
  408be0:	eba9 0a01 	sub.w	sl, r9, r1
  408be4:	f8da 1004 	ldr.w	r1, [sl, #4]
  408be8:	f021 0103 	bic.w	r1, r1, #3
  408bec:	440b      	add	r3, r1
  408bee:	4423      	add	r3, r4
  408bf0:	4293      	cmp	r3, r2
  408bf2:	db25      	blt.n	408c40 <_realloc_r+0x1a0>
  408bf4:	68c2      	ldr	r2, [r0, #12]
  408bf6:	6881      	ldr	r1, [r0, #8]
  408bf8:	4656      	mov	r6, sl
  408bfa:	60ca      	str	r2, [r1, #12]
  408bfc:	6091      	str	r1, [r2, #8]
  408bfe:	f8da 100c 	ldr.w	r1, [sl, #12]
  408c02:	f856 0f08 	ldr.w	r0, [r6, #8]!
  408c06:	1f22      	subs	r2, r4, #4
  408c08:	2a24      	cmp	r2, #36	; 0x24
  408c0a:	60c1      	str	r1, [r0, #12]
  408c0c:	6088      	str	r0, [r1, #8]
  408c0e:	f200 8094 	bhi.w	408d3a <_realloc_r+0x29a>
  408c12:	2a13      	cmp	r2, #19
  408c14:	d96f      	bls.n	408cf6 <_realloc_r+0x256>
  408c16:	6829      	ldr	r1, [r5, #0]
  408c18:	f8ca 1008 	str.w	r1, [sl, #8]
  408c1c:	6869      	ldr	r1, [r5, #4]
  408c1e:	f8ca 100c 	str.w	r1, [sl, #12]
  408c22:	2a1b      	cmp	r2, #27
  408c24:	f200 80a2 	bhi.w	408d6c <_realloc_r+0x2cc>
  408c28:	3508      	adds	r5, #8
  408c2a:	f10a 0210 	add.w	r2, sl, #16
  408c2e:	e063      	b.n	408cf8 <_realloc_r+0x258>
  408c30:	f855 3c08 	ldr.w	r3, [r5, #-8]
  408c34:	eba9 0a03 	sub.w	sl, r9, r3
  408c38:	f8da 1004 	ldr.w	r1, [sl, #4]
  408c3c:	f021 0103 	bic.w	r1, r1, #3
  408c40:	1863      	adds	r3, r4, r1
  408c42:	4293      	cmp	r3, r2
  408c44:	f6ff af59 	blt.w	408afa <_realloc_r+0x5a>
  408c48:	4656      	mov	r6, sl
  408c4a:	e7d8      	b.n	408bfe <_realloc_r+0x15e>
  408c4c:	6841      	ldr	r1, [r0, #4]
  408c4e:	f021 0b03 	bic.w	fp, r1, #3
  408c52:	44a3      	add	fp, r4
  408c54:	f107 0010 	add.w	r0, r7, #16
  408c58:	4583      	cmp	fp, r0
  408c5a:	da56      	bge.n	408d0a <_realloc_r+0x26a>
  408c5c:	f01e 0f01 	tst.w	lr, #1
  408c60:	f47f af4b 	bne.w	408afa <_realloc_r+0x5a>
  408c64:	f855 1c08 	ldr.w	r1, [r5, #-8]
  408c68:	eba9 0a01 	sub.w	sl, r9, r1
  408c6c:	f8da 1004 	ldr.w	r1, [sl, #4]
  408c70:	f021 0103 	bic.w	r1, r1, #3
  408c74:	448b      	add	fp, r1
  408c76:	4558      	cmp	r0, fp
  408c78:	dce2      	bgt.n	408c40 <_realloc_r+0x1a0>
  408c7a:	4656      	mov	r6, sl
  408c7c:	f8da 100c 	ldr.w	r1, [sl, #12]
  408c80:	f856 0f08 	ldr.w	r0, [r6, #8]!
  408c84:	1f22      	subs	r2, r4, #4
  408c86:	2a24      	cmp	r2, #36	; 0x24
  408c88:	60c1      	str	r1, [r0, #12]
  408c8a:	6088      	str	r0, [r1, #8]
  408c8c:	f200 808f 	bhi.w	408dae <_realloc_r+0x30e>
  408c90:	2a13      	cmp	r2, #19
  408c92:	f240 808a 	bls.w	408daa <_realloc_r+0x30a>
  408c96:	6829      	ldr	r1, [r5, #0]
  408c98:	f8ca 1008 	str.w	r1, [sl, #8]
  408c9c:	6869      	ldr	r1, [r5, #4]
  408c9e:	f8ca 100c 	str.w	r1, [sl, #12]
  408ca2:	2a1b      	cmp	r2, #27
  408ca4:	f200 808a 	bhi.w	408dbc <_realloc_r+0x31c>
  408ca8:	3508      	adds	r5, #8
  408caa:	f10a 0210 	add.w	r2, sl, #16
  408cae:	6829      	ldr	r1, [r5, #0]
  408cb0:	6011      	str	r1, [r2, #0]
  408cb2:	6869      	ldr	r1, [r5, #4]
  408cb4:	6051      	str	r1, [r2, #4]
  408cb6:	68a9      	ldr	r1, [r5, #8]
  408cb8:	6091      	str	r1, [r2, #8]
  408cba:	eb0a 0107 	add.w	r1, sl, r7
  408cbe:	ebab 0207 	sub.w	r2, fp, r7
  408cc2:	f042 0201 	orr.w	r2, r2, #1
  408cc6:	6099      	str	r1, [r3, #8]
  408cc8:	604a      	str	r2, [r1, #4]
  408cca:	f8da 3004 	ldr.w	r3, [sl, #4]
  408cce:	f003 0301 	and.w	r3, r3, #1
  408cd2:	431f      	orrs	r7, r3
  408cd4:	4640      	mov	r0, r8
  408cd6:	f8ca 7004 	str.w	r7, [sl, #4]
  408cda:	f7ff fedb 	bl	408a94 <__malloc_unlock>
  408cde:	e751      	b.n	408b84 <_realloc_r+0xe4>
  408ce0:	682b      	ldr	r3, [r5, #0]
  408ce2:	6003      	str	r3, [r0, #0]
  408ce4:	686b      	ldr	r3, [r5, #4]
  408ce6:	6043      	str	r3, [r0, #4]
  408ce8:	2a1b      	cmp	r2, #27
  408cea:	d82d      	bhi.n	408d48 <_realloc_r+0x2a8>
  408cec:	f100 0308 	add.w	r3, r0, #8
  408cf0:	f105 0208 	add.w	r2, r5, #8
  408cf4:	e71b      	b.n	408b2e <_realloc_r+0x8e>
  408cf6:	4632      	mov	r2, r6
  408cf8:	6829      	ldr	r1, [r5, #0]
  408cfa:	6011      	str	r1, [r2, #0]
  408cfc:	6869      	ldr	r1, [r5, #4]
  408cfe:	6051      	str	r1, [r2, #4]
  408d00:	68a9      	ldr	r1, [r5, #8]
  408d02:	6091      	str	r1, [r2, #8]
  408d04:	461c      	mov	r4, r3
  408d06:	46d1      	mov	r9, sl
  408d08:	e72a      	b.n	408b60 <_realloc_r+0xc0>
  408d0a:	eb09 0107 	add.w	r1, r9, r7
  408d0e:	ebab 0b07 	sub.w	fp, fp, r7
  408d12:	f04b 0201 	orr.w	r2, fp, #1
  408d16:	6099      	str	r1, [r3, #8]
  408d18:	604a      	str	r2, [r1, #4]
  408d1a:	f855 3c04 	ldr.w	r3, [r5, #-4]
  408d1e:	f003 0301 	and.w	r3, r3, #1
  408d22:	431f      	orrs	r7, r3
  408d24:	4640      	mov	r0, r8
  408d26:	f845 7c04 	str.w	r7, [r5, #-4]
  408d2a:	f7ff feb3 	bl	408a94 <__malloc_unlock>
  408d2e:	462e      	mov	r6, r5
  408d30:	e728      	b.n	408b84 <_realloc_r+0xe4>
  408d32:	4629      	mov	r1, r5
  408d34:	f7ff fe44 	bl	4089c0 <memmove>
  408d38:	e6ff      	b.n	408b3a <_realloc_r+0x9a>
  408d3a:	4629      	mov	r1, r5
  408d3c:	4630      	mov	r0, r6
  408d3e:	461c      	mov	r4, r3
  408d40:	46d1      	mov	r9, sl
  408d42:	f7ff fe3d 	bl	4089c0 <memmove>
  408d46:	e70b      	b.n	408b60 <_realloc_r+0xc0>
  408d48:	68ab      	ldr	r3, [r5, #8]
  408d4a:	6083      	str	r3, [r0, #8]
  408d4c:	68eb      	ldr	r3, [r5, #12]
  408d4e:	60c3      	str	r3, [r0, #12]
  408d50:	2a24      	cmp	r2, #36	; 0x24
  408d52:	d017      	beq.n	408d84 <_realloc_r+0x2e4>
  408d54:	f100 0310 	add.w	r3, r0, #16
  408d58:	f105 0210 	add.w	r2, r5, #16
  408d5c:	e6e7      	b.n	408b2e <_realloc_r+0x8e>
  408d5e:	f850 3c04 	ldr.w	r3, [r0, #-4]
  408d62:	f023 0303 	bic.w	r3, r3, #3
  408d66:	441c      	add	r4, r3
  408d68:	462e      	mov	r6, r5
  408d6a:	e6f9      	b.n	408b60 <_realloc_r+0xc0>
  408d6c:	68a9      	ldr	r1, [r5, #8]
  408d6e:	f8ca 1010 	str.w	r1, [sl, #16]
  408d72:	68e9      	ldr	r1, [r5, #12]
  408d74:	f8ca 1014 	str.w	r1, [sl, #20]
  408d78:	2a24      	cmp	r2, #36	; 0x24
  408d7a:	d00c      	beq.n	408d96 <_realloc_r+0x2f6>
  408d7c:	3510      	adds	r5, #16
  408d7e:	f10a 0218 	add.w	r2, sl, #24
  408d82:	e7b9      	b.n	408cf8 <_realloc_r+0x258>
  408d84:	692b      	ldr	r3, [r5, #16]
  408d86:	6103      	str	r3, [r0, #16]
  408d88:	696b      	ldr	r3, [r5, #20]
  408d8a:	6143      	str	r3, [r0, #20]
  408d8c:	f105 0218 	add.w	r2, r5, #24
  408d90:	f100 0318 	add.w	r3, r0, #24
  408d94:	e6cb      	b.n	408b2e <_realloc_r+0x8e>
  408d96:	692a      	ldr	r2, [r5, #16]
  408d98:	f8ca 2018 	str.w	r2, [sl, #24]
  408d9c:	696a      	ldr	r2, [r5, #20]
  408d9e:	f8ca 201c 	str.w	r2, [sl, #28]
  408da2:	3518      	adds	r5, #24
  408da4:	f10a 0220 	add.w	r2, sl, #32
  408da8:	e7a6      	b.n	408cf8 <_realloc_r+0x258>
  408daa:	4632      	mov	r2, r6
  408dac:	e77f      	b.n	408cae <_realloc_r+0x20e>
  408dae:	4629      	mov	r1, r5
  408db0:	4630      	mov	r0, r6
  408db2:	9301      	str	r3, [sp, #4]
  408db4:	f7ff fe04 	bl	4089c0 <memmove>
  408db8:	9b01      	ldr	r3, [sp, #4]
  408dba:	e77e      	b.n	408cba <_realloc_r+0x21a>
  408dbc:	68a9      	ldr	r1, [r5, #8]
  408dbe:	f8ca 1010 	str.w	r1, [sl, #16]
  408dc2:	68e9      	ldr	r1, [r5, #12]
  408dc4:	f8ca 1014 	str.w	r1, [sl, #20]
  408dc8:	2a24      	cmp	r2, #36	; 0x24
  408dca:	d003      	beq.n	408dd4 <_realloc_r+0x334>
  408dcc:	3510      	adds	r5, #16
  408dce:	f10a 0218 	add.w	r2, sl, #24
  408dd2:	e76c      	b.n	408cae <_realloc_r+0x20e>
  408dd4:	692a      	ldr	r2, [r5, #16]
  408dd6:	f8ca 2018 	str.w	r2, [sl, #24]
  408dda:	696a      	ldr	r2, [r5, #20]
  408ddc:	f8ca 201c 	str.w	r2, [sl, #28]
  408de0:	3518      	adds	r5, #24
  408de2:	f10a 0220 	add.w	r2, sl, #32
  408de6:	e762      	b.n	408cae <_realloc_r+0x20e>
  408de8:	204005d0 	.word	0x204005d0

00408dec <_sbrk_r>:
  408dec:	b538      	push	{r3, r4, r5, lr}
  408dee:	4c07      	ldr	r4, [pc, #28]	; (408e0c <_sbrk_r+0x20>)
  408df0:	2300      	movs	r3, #0
  408df2:	4605      	mov	r5, r0
  408df4:	4608      	mov	r0, r1
  408df6:	6023      	str	r3, [r4, #0]
  408df8:	f7f8 f96e 	bl	4010d8 <_sbrk>
  408dfc:	1c43      	adds	r3, r0, #1
  408dfe:	d000      	beq.n	408e02 <_sbrk_r+0x16>
  408e00:	bd38      	pop	{r3, r4, r5, pc}
  408e02:	6823      	ldr	r3, [r4, #0]
  408e04:	2b00      	cmp	r3, #0
  408e06:	d0fb      	beq.n	408e00 <_sbrk_r+0x14>
  408e08:	602b      	str	r3, [r5, #0]
  408e0a:	bd38      	pop	{r3, r4, r5, pc}
  408e0c:	20404a44 	.word	0x20404a44

00408e10 <__sread>:
  408e10:	b510      	push	{r4, lr}
  408e12:	460c      	mov	r4, r1
  408e14:	f9b1 100e 	ldrsh.w	r1, [r1, #14]
  408e18:	f000 f9f6 	bl	409208 <_read_r>
  408e1c:	2800      	cmp	r0, #0
  408e1e:	db03      	blt.n	408e28 <__sread+0x18>
  408e20:	6d23      	ldr	r3, [r4, #80]	; 0x50
  408e22:	4403      	add	r3, r0
  408e24:	6523      	str	r3, [r4, #80]	; 0x50
  408e26:	bd10      	pop	{r4, pc}
  408e28:	89a3      	ldrh	r3, [r4, #12]
  408e2a:	f423 5380 	bic.w	r3, r3, #4096	; 0x1000
  408e2e:	81a3      	strh	r3, [r4, #12]
  408e30:	bd10      	pop	{r4, pc}
  408e32:	bf00      	nop

00408e34 <__swrite>:
  408e34:	e92d 41f0 	stmdb	sp!, {r4, r5, r6, r7, r8, lr}
  408e38:	4616      	mov	r6, r2
  408e3a:	f9b1 200c 	ldrsh.w	r2, [r1, #12]
  408e3e:	461f      	mov	r7, r3
  408e40:	05d3      	lsls	r3, r2, #23
  408e42:	460c      	mov	r4, r1
  408e44:	4605      	mov	r5, r0
  408e46:	d507      	bpl.n	408e58 <__swrite+0x24>
  408e48:	2200      	movs	r2, #0
  408e4a:	2302      	movs	r3, #2
  408e4c:	f9b1 100e 	ldrsh.w	r1, [r1, #14]
  408e50:	f000 f9c4 	bl	4091dc <_lseek_r>
  408e54:	f9b4 200c 	ldrsh.w	r2, [r4, #12]
  408e58:	f9b4 100e 	ldrsh.w	r1, [r4, #14]
  408e5c:	f422 5280 	bic.w	r2, r2, #4096	; 0x1000
  408e60:	81a2      	strh	r2, [r4, #12]
  408e62:	463b      	mov	r3, r7
  408e64:	4632      	mov	r2, r6
  408e66:	4628      	mov	r0, r5
  408e68:	e8bd 41f0 	ldmia.w	sp!, {r4, r5, r6, r7, r8, lr}
  408e6c:	f000 b8a4 	b.w	408fb8 <_write_r>

00408e70 <__sseek>:
  408e70:	b510      	push	{r4, lr}
  408e72:	460c      	mov	r4, r1
  408e74:	f9b1 100e 	ldrsh.w	r1, [r1, #14]
  408e78:	f000 f9b0 	bl	4091dc <_lseek_r>
  408e7c:	89a3      	ldrh	r3, [r4, #12]
  408e7e:	1c42      	adds	r2, r0, #1
  408e80:	bf0e      	itee	eq
  408e82:	f423 5380 	biceq.w	r3, r3, #4096	; 0x1000
  408e86:	f443 5380 	orrne.w	r3, r3, #4096	; 0x1000
  408e8a:	6520      	strne	r0, [r4, #80]	; 0x50
  408e8c:	81a3      	strh	r3, [r4, #12]
  408e8e:	bd10      	pop	{r4, pc}

00408e90 <__sclose>:
  408e90:	f9b1 100e 	ldrsh.w	r1, [r1, #14]
  408e94:	f000 b908 	b.w	4090a8 <_close_r>

00408e98 <__swbuf_r>:
  408e98:	b5f8      	push	{r3, r4, r5, r6, r7, lr}
  408e9a:	460d      	mov	r5, r1
  408e9c:	4614      	mov	r4, r2
  408e9e:	4606      	mov	r6, r0
  408ea0:	b110      	cbz	r0, 408ea8 <__swbuf_r+0x10>
  408ea2:	6b83      	ldr	r3, [r0, #56]	; 0x38
  408ea4:	2b00      	cmp	r3, #0
  408ea6:	d04b      	beq.n	408f40 <__swbuf_r+0xa8>
  408ea8:	f9b4 200c 	ldrsh.w	r2, [r4, #12]
  408eac:	69a3      	ldr	r3, [r4, #24]
  408eae:	60a3      	str	r3, [r4, #8]
  408eb0:	b291      	uxth	r1, r2
  408eb2:	0708      	lsls	r0, r1, #28
  408eb4:	d539      	bpl.n	408f2a <__swbuf_r+0x92>
  408eb6:	6923      	ldr	r3, [r4, #16]
  408eb8:	2b00      	cmp	r3, #0
  408eba:	d036      	beq.n	408f2a <__swbuf_r+0x92>
  408ebc:	b2ed      	uxtb	r5, r5
  408ebe:	0489      	lsls	r1, r1, #18
  408ec0:	462f      	mov	r7, r5
  408ec2:	d515      	bpl.n	408ef0 <__swbuf_r+0x58>
  408ec4:	6822      	ldr	r2, [r4, #0]
  408ec6:	6961      	ldr	r1, [r4, #20]
  408ec8:	1ad3      	subs	r3, r2, r3
  408eca:	428b      	cmp	r3, r1
  408ecc:	da1c      	bge.n	408f08 <__swbuf_r+0x70>
  408ece:	3301      	adds	r3, #1
  408ed0:	68a1      	ldr	r1, [r4, #8]
  408ed2:	1c50      	adds	r0, r2, #1
  408ed4:	3901      	subs	r1, #1
  408ed6:	60a1      	str	r1, [r4, #8]
  408ed8:	6020      	str	r0, [r4, #0]
  408eda:	7015      	strb	r5, [r2, #0]
  408edc:	6962      	ldr	r2, [r4, #20]
  408ede:	429a      	cmp	r2, r3
  408ee0:	d01a      	beq.n	408f18 <__swbuf_r+0x80>
  408ee2:	89a3      	ldrh	r3, [r4, #12]
  408ee4:	07db      	lsls	r3, r3, #31
  408ee6:	d501      	bpl.n	408eec <__swbuf_r+0x54>
  408ee8:	2d0a      	cmp	r5, #10
  408eea:	d015      	beq.n	408f18 <__swbuf_r+0x80>
  408eec:	4638      	mov	r0, r7
  408eee:	bdf8      	pop	{r3, r4, r5, r6, r7, pc}
  408ef0:	6e61      	ldr	r1, [r4, #100]	; 0x64
  408ef2:	f442 5200 	orr.w	r2, r2, #8192	; 0x2000
  408ef6:	f421 5100 	bic.w	r1, r1, #8192	; 0x2000
  408efa:	81a2      	strh	r2, [r4, #12]
  408efc:	6822      	ldr	r2, [r4, #0]
  408efe:	6661      	str	r1, [r4, #100]	; 0x64
  408f00:	6961      	ldr	r1, [r4, #20]
  408f02:	1ad3      	subs	r3, r2, r3
  408f04:	428b      	cmp	r3, r1
  408f06:	dbe2      	blt.n	408ece <__swbuf_r+0x36>
  408f08:	4621      	mov	r1, r4
  408f0a:	4630      	mov	r0, r6
  408f0c:	f7fe fda4 	bl	407a58 <_fflush_r>
  408f10:	b940      	cbnz	r0, 408f24 <__swbuf_r+0x8c>
  408f12:	6822      	ldr	r2, [r4, #0]
  408f14:	2301      	movs	r3, #1
  408f16:	e7db      	b.n	408ed0 <__swbuf_r+0x38>
  408f18:	4621      	mov	r1, r4
  408f1a:	4630      	mov	r0, r6
  408f1c:	f7fe fd9c 	bl	407a58 <_fflush_r>
  408f20:	2800      	cmp	r0, #0
  408f22:	d0e3      	beq.n	408eec <__swbuf_r+0x54>
  408f24:	f04f 37ff 	mov.w	r7, #4294967295
  408f28:	e7e0      	b.n	408eec <__swbuf_r+0x54>
  408f2a:	4621      	mov	r1, r4
  408f2c:	4630      	mov	r0, r6
  408f2e:	f7fe fc7f 	bl	407830 <__swsetup_r>
  408f32:	2800      	cmp	r0, #0
  408f34:	d1f6      	bne.n	408f24 <__swbuf_r+0x8c>
  408f36:	f9b4 200c 	ldrsh.w	r2, [r4, #12]
  408f3a:	6923      	ldr	r3, [r4, #16]
  408f3c:	b291      	uxth	r1, r2
  408f3e:	e7bd      	b.n	408ebc <__swbuf_r+0x24>
  408f40:	f7fe fde2 	bl	407b08 <__sinit>
  408f44:	e7b0      	b.n	408ea8 <__swbuf_r+0x10>
  408f46:	bf00      	nop

00408f48 <_wcrtomb_r>:
  408f48:	b5f0      	push	{r4, r5, r6, r7, lr}
  408f4a:	4606      	mov	r6, r0
  408f4c:	b085      	sub	sp, #20
  408f4e:	461f      	mov	r7, r3
  408f50:	b189      	cbz	r1, 408f76 <_wcrtomb_r+0x2e>
  408f52:	4c10      	ldr	r4, [pc, #64]	; (408f94 <_wcrtomb_r+0x4c>)
  408f54:	4d10      	ldr	r5, [pc, #64]	; (408f98 <_wcrtomb_r+0x50>)
  408f56:	6824      	ldr	r4, [r4, #0]
  408f58:	6b64      	ldr	r4, [r4, #52]	; 0x34
  408f5a:	2c00      	cmp	r4, #0
  408f5c:	bf08      	it	eq
  408f5e:	462c      	moveq	r4, r5
  408f60:	f8d4 40e0 	ldr.w	r4, [r4, #224]	; 0xe0
  408f64:	47a0      	blx	r4
  408f66:	1c43      	adds	r3, r0, #1
  408f68:	d103      	bne.n	408f72 <_wcrtomb_r+0x2a>
  408f6a:	2200      	movs	r2, #0
  408f6c:	238a      	movs	r3, #138	; 0x8a
  408f6e:	603a      	str	r2, [r7, #0]
  408f70:	6033      	str	r3, [r6, #0]
  408f72:	b005      	add	sp, #20
  408f74:	bdf0      	pop	{r4, r5, r6, r7, pc}
  408f76:	460c      	mov	r4, r1
  408f78:	4906      	ldr	r1, [pc, #24]	; (408f94 <_wcrtomb_r+0x4c>)
  408f7a:	4a07      	ldr	r2, [pc, #28]	; (408f98 <_wcrtomb_r+0x50>)
  408f7c:	6809      	ldr	r1, [r1, #0]
  408f7e:	6b49      	ldr	r1, [r1, #52]	; 0x34
  408f80:	2900      	cmp	r1, #0
  408f82:	bf08      	it	eq
  408f84:	4611      	moveq	r1, r2
  408f86:	4622      	mov	r2, r4
  408f88:	f8d1 40e0 	ldr.w	r4, [r1, #224]	; 0xe0
  408f8c:	a901      	add	r1, sp, #4
  408f8e:	47a0      	blx	r4
  408f90:	e7e9      	b.n	408f66 <_wcrtomb_r+0x1e>
  408f92:	bf00      	nop
  408f94:	20400034 	.word	0x20400034
  408f98:	20400464 	.word	0x20400464

00408f9c <__ascii_wctomb>:
  408f9c:	b121      	cbz	r1, 408fa8 <__ascii_wctomb+0xc>
  408f9e:	2aff      	cmp	r2, #255	; 0xff
  408fa0:	d804      	bhi.n	408fac <__ascii_wctomb+0x10>
  408fa2:	700a      	strb	r2, [r1, #0]
  408fa4:	2001      	movs	r0, #1
  408fa6:	4770      	bx	lr
  408fa8:	4608      	mov	r0, r1
  408faa:	4770      	bx	lr
  408fac:	238a      	movs	r3, #138	; 0x8a
  408fae:	6003      	str	r3, [r0, #0]
  408fb0:	f04f 30ff 	mov.w	r0, #4294967295
  408fb4:	4770      	bx	lr
  408fb6:	bf00      	nop

00408fb8 <_write_r>:
  408fb8:	b570      	push	{r4, r5, r6, lr}
  408fba:	460d      	mov	r5, r1
  408fbc:	4c08      	ldr	r4, [pc, #32]	; (408fe0 <_write_r+0x28>)
  408fbe:	4611      	mov	r1, r2
  408fc0:	4606      	mov	r6, r0
  408fc2:	461a      	mov	r2, r3
  408fc4:	4628      	mov	r0, r5
  408fc6:	2300      	movs	r3, #0
  408fc8:	6023      	str	r3, [r4, #0]
  408fca:	f7f7 fab7 	bl	40053c <_write>
  408fce:	1c43      	adds	r3, r0, #1
  408fd0:	d000      	beq.n	408fd4 <_write_r+0x1c>
  408fd2:	bd70      	pop	{r4, r5, r6, pc}
  408fd4:	6823      	ldr	r3, [r4, #0]
  408fd6:	2b00      	cmp	r3, #0
  408fd8:	d0fb      	beq.n	408fd2 <_write_r+0x1a>
  408fda:	6033      	str	r3, [r6, #0]
  408fdc:	bd70      	pop	{r4, r5, r6, pc}
  408fde:	bf00      	nop
  408fe0:	20404a44 	.word	0x20404a44

00408fe4 <__register_exitproc>:
  408fe4:	e92d 43f8 	stmdb	sp!, {r3, r4, r5, r6, r7, r8, r9, lr}
  408fe8:	4d2c      	ldr	r5, [pc, #176]	; (40909c <__register_exitproc+0xb8>)
  408fea:	4606      	mov	r6, r0
  408fec:	6828      	ldr	r0, [r5, #0]
  408fee:	4698      	mov	r8, r3
  408ff0:	460f      	mov	r7, r1
  408ff2:	4691      	mov	r9, r2
  408ff4:	f7ff f948 	bl	408288 <__retarget_lock_acquire_recursive>
  408ff8:	4b29      	ldr	r3, [pc, #164]	; (4090a0 <__register_exitproc+0xbc>)
  408ffa:	681c      	ldr	r4, [r3, #0]
  408ffc:	f8d4 3148 	ldr.w	r3, [r4, #328]	; 0x148
  409000:	2b00      	cmp	r3, #0
  409002:	d03e      	beq.n	409082 <__register_exitproc+0x9e>
  409004:	685a      	ldr	r2, [r3, #4]
  409006:	2a1f      	cmp	r2, #31
  409008:	dc1c      	bgt.n	409044 <__register_exitproc+0x60>
  40900a:	f102 0e01 	add.w	lr, r2, #1
  40900e:	b176      	cbz	r6, 40902e <__register_exitproc+0x4a>
  409010:	eb03 0182 	add.w	r1, r3, r2, lsl #2
  409014:	2401      	movs	r4, #1
  409016:	f8c1 9088 	str.w	r9, [r1, #136]	; 0x88
  40901a:	f8d3 0188 	ldr.w	r0, [r3, #392]	; 0x188
  40901e:	4094      	lsls	r4, r2
  409020:	4320      	orrs	r0, r4
  409022:	2e02      	cmp	r6, #2
  409024:	f8c3 0188 	str.w	r0, [r3, #392]	; 0x188
  409028:	f8c1 8108 	str.w	r8, [r1, #264]	; 0x108
  40902c:	d023      	beq.n	409076 <__register_exitproc+0x92>
  40902e:	3202      	adds	r2, #2
  409030:	f8c3 e004 	str.w	lr, [r3, #4]
  409034:	6828      	ldr	r0, [r5, #0]
  409036:	f843 7022 	str.w	r7, [r3, r2, lsl #2]
  40903a:	f7ff f927 	bl	40828c <__retarget_lock_release_recursive>
  40903e:	2000      	movs	r0, #0
  409040:	e8bd 83f8 	ldmia.w	sp!, {r3, r4, r5, r6, r7, r8, r9, pc}
  409044:	4b17      	ldr	r3, [pc, #92]	; (4090a4 <__register_exitproc+0xc0>)
  409046:	b30b      	cbz	r3, 40908c <__register_exitproc+0xa8>
  409048:	f44f 70c8 	mov.w	r0, #400	; 0x190
  40904c:	f7ff f998 	bl	408380 <malloc>
  409050:	4603      	mov	r3, r0
  409052:	b1d8      	cbz	r0, 40908c <__register_exitproc+0xa8>
  409054:	f8d4 2148 	ldr.w	r2, [r4, #328]	; 0x148
  409058:	6002      	str	r2, [r0, #0]
  40905a:	2100      	movs	r1, #0
  40905c:	6041      	str	r1, [r0, #4]
  40905e:	460a      	mov	r2, r1
  409060:	f8c4 0148 	str.w	r0, [r4, #328]	; 0x148
  409064:	f04f 0e01 	mov.w	lr, #1
  409068:	f8c0 1188 	str.w	r1, [r0, #392]	; 0x188
  40906c:	f8c0 118c 	str.w	r1, [r0, #396]	; 0x18c
  409070:	2e00      	cmp	r6, #0
  409072:	d0dc      	beq.n	40902e <__register_exitproc+0x4a>
  409074:	e7cc      	b.n	409010 <__register_exitproc+0x2c>
  409076:	f8d3 118c 	ldr.w	r1, [r3, #396]	; 0x18c
  40907a:	430c      	orrs	r4, r1
  40907c:	f8c3 418c 	str.w	r4, [r3, #396]	; 0x18c
  409080:	e7d5      	b.n	40902e <__register_exitproc+0x4a>
  409082:	f504 73a6 	add.w	r3, r4, #332	; 0x14c
  409086:	f8c4 3148 	str.w	r3, [r4, #328]	; 0x148
  40908a:	e7bb      	b.n	409004 <__register_exitproc+0x20>
  40908c:	6828      	ldr	r0, [r5, #0]
  40908e:	f7ff f8fd 	bl	40828c <__retarget_lock_release_recursive>
  409092:	f04f 30ff 	mov.w	r0, #4294967295
  409096:	e8bd 83f8 	ldmia.w	sp!, {r3, r4, r5, r6, r7, r8, r9, pc}
  40909a:	bf00      	nop
  40909c:	20400460 	.word	0x20400460
  4090a0:	0040a1c0 	.word	0x0040a1c0
  4090a4:	00408381 	.word	0x00408381

004090a8 <_close_r>:
  4090a8:	b538      	push	{r3, r4, r5, lr}
  4090aa:	4c07      	ldr	r4, [pc, #28]	; (4090c8 <_close_r+0x20>)
  4090ac:	2300      	movs	r3, #0
  4090ae:	4605      	mov	r5, r0
  4090b0:	4608      	mov	r0, r1
  4090b2:	6023      	str	r3, [r4, #0]
  4090b4:	f7f8 f826 	bl	401104 <_close>
  4090b8:	1c43      	adds	r3, r0, #1
  4090ba:	d000      	beq.n	4090be <_close_r+0x16>
  4090bc:	bd38      	pop	{r3, r4, r5, pc}
  4090be:	6823      	ldr	r3, [r4, #0]
  4090c0:	2b00      	cmp	r3, #0
  4090c2:	d0fb      	beq.n	4090bc <_close_r+0x14>
  4090c4:	602b      	str	r3, [r5, #0]
  4090c6:	bd38      	pop	{r3, r4, r5, pc}
  4090c8:	20404a44 	.word	0x20404a44

004090cc <_fclose_r>:
  4090cc:	b570      	push	{r4, r5, r6, lr}
  4090ce:	b159      	cbz	r1, 4090e8 <_fclose_r+0x1c>
  4090d0:	4605      	mov	r5, r0
  4090d2:	460c      	mov	r4, r1
  4090d4:	b110      	cbz	r0, 4090dc <_fclose_r+0x10>
  4090d6:	6b83      	ldr	r3, [r0, #56]	; 0x38
  4090d8:	2b00      	cmp	r3, #0
  4090da:	d03c      	beq.n	409156 <_fclose_r+0x8a>
  4090dc:	6e63      	ldr	r3, [r4, #100]	; 0x64
  4090de:	07d8      	lsls	r0, r3, #31
  4090e0:	d505      	bpl.n	4090ee <_fclose_r+0x22>
  4090e2:	f9b4 300c 	ldrsh.w	r3, [r4, #12]
  4090e6:	b92b      	cbnz	r3, 4090f4 <_fclose_r+0x28>
  4090e8:	2600      	movs	r6, #0
  4090ea:	4630      	mov	r0, r6
  4090ec:	bd70      	pop	{r4, r5, r6, pc}
  4090ee:	89a3      	ldrh	r3, [r4, #12]
  4090f0:	0599      	lsls	r1, r3, #22
  4090f2:	d53c      	bpl.n	40916e <_fclose_r+0xa2>
  4090f4:	4621      	mov	r1, r4
  4090f6:	4628      	mov	r0, r5
  4090f8:	f7fe fc0e 	bl	407918 <__sflush_r>
  4090fc:	6ae3      	ldr	r3, [r4, #44]	; 0x2c
  4090fe:	4606      	mov	r6, r0
  409100:	b133      	cbz	r3, 409110 <_fclose_r+0x44>
  409102:	69e1      	ldr	r1, [r4, #28]
  409104:	4628      	mov	r0, r5
  409106:	4798      	blx	r3
  409108:	2800      	cmp	r0, #0
  40910a:	bfb8      	it	lt
  40910c:	f04f 36ff 	movlt.w	r6, #4294967295
  409110:	89a3      	ldrh	r3, [r4, #12]
  409112:	061a      	lsls	r2, r3, #24
  409114:	d422      	bmi.n	40915c <_fclose_r+0x90>
  409116:	6b21      	ldr	r1, [r4, #48]	; 0x30
  409118:	b141      	cbz	r1, 40912c <_fclose_r+0x60>
  40911a:	f104 0340 	add.w	r3, r4, #64	; 0x40
  40911e:	4299      	cmp	r1, r3
  409120:	d002      	beq.n	409128 <_fclose_r+0x5c>
  409122:	4628      	mov	r0, r5
  409124:	f7fe fe16 	bl	407d54 <_free_r>
  409128:	2300      	movs	r3, #0
  40912a:	6323      	str	r3, [r4, #48]	; 0x30
  40912c:	6c61      	ldr	r1, [r4, #68]	; 0x44
  40912e:	b121      	cbz	r1, 40913a <_fclose_r+0x6e>
  409130:	4628      	mov	r0, r5
  409132:	f7fe fe0f 	bl	407d54 <_free_r>
  409136:	2300      	movs	r3, #0
  409138:	6463      	str	r3, [r4, #68]	; 0x44
  40913a:	f7fe fd11 	bl	407b60 <__sfp_lock_acquire>
  40913e:	6e63      	ldr	r3, [r4, #100]	; 0x64
  409140:	2200      	movs	r2, #0
  409142:	07db      	lsls	r3, r3, #31
  409144:	81a2      	strh	r2, [r4, #12]
  409146:	d50e      	bpl.n	409166 <_fclose_r+0x9a>
  409148:	6da0      	ldr	r0, [r4, #88]	; 0x58
  40914a:	f7ff f89b 	bl	408284 <__retarget_lock_close_recursive>
  40914e:	f7fe fd0d 	bl	407b6c <__sfp_lock_release>
  409152:	4630      	mov	r0, r6
  409154:	bd70      	pop	{r4, r5, r6, pc}
  409156:	f7fe fcd7 	bl	407b08 <__sinit>
  40915a:	e7bf      	b.n	4090dc <_fclose_r+0x10>
  40915c:	6921      	ldr	r1, [r4, #16]
  40915e:	4628      	mov	r0, r5
  409160:	f7fe fdf8 	bl	407d54 <_free_r>
  409164:	e7d7      	b.n	409116 <_fclose_r+0x4a>
  409166:	6da0      	ldr	r0, [r4, #88]	; 0x58
  409168:	f7ff f890 	bl	40828c <__retarget_lock_release_recursive>
  40916c:	e7ec      	b.n	409148 <_fclose_r+0x7c>
  40916e:	6da0      	ldr	r0, [r4, #88]	; 0x58
  409170:	f7ff f88a 	bl	408288 <__retarget_lock_acquire_recursive>
  409174:	f9b4 300c 	ldrsh.w	r3, [r4, #12]
  409178:	2b00      	cmp	r3, #0
  40917a:	d1bb      	bne.n	4090f4 <_fclose_r+0x28>
  40917c:	6e66      	ldr	r6, [r4, #100]	; 0x64
  40917e:	f016 0601 	ands.w	r6, r6, #1
  409182:	d1b1      	bne.n	4090e8 <_fclose_r+0x1c>
  409184:	6da0      	ldr	r0, [r4, #88]	; 0x58
  409186:	f7ff f881 	bl	40828c <__retarget_lock_release_recursive>
  40918a:	4630      	mov	r0, r6
  40918c:	bd70      	pop	{r4, r5, r6, pc}
  40918e:	bf00      	nop

00409190 <_fstat_r>:
  409190:	b538      	push	{r3, r4, r5, lr}
  409192:	460b      	mov	r3, r1
  409194:	4c07      	ldr	r4, [pc, #28]	; (4091b4 <_fstat_r+0x24>)
  409196:	4605      	mov	r5, r0
  409198:	4611      	mov	r1, r2
  40919a:	4618      	mov	r0, r3
  40919c:	2300      	movs	r3, #0
  40919e:	6023      	str	r3, [r4, #0]
  4091a0:	f7f7 ffb3 	bl	40110a <_fstat>
  4091a4:	1c43      	adds	r3, r0, #1
  4091a6:	d000      	beq.n	4091aa <_fstat_r+0x1a>
  4091a8:	bd38      	pop	{r3, r4, r5, pc}
  4091aa:	6823      	ldr	r3, [r4, #0]
  4091ac:	2b00      	cmp	r3, #0
  4091ae:	d0fb      	beq.n	4091a8 <_fstat_r+0x18>
  4091b0:	602b      	str	r3, [r5, #0]
  4091b2:	bd38      	pop	{r3, r4, r5, pc}
  4091b4:	20404a44 	.word	0x20404a44

004091b8 <_isatty_r>:
  4091b8:	b538      	push	{r3, r4, r5, lr}
  4091ba:	4c07      	ldr	r4, [pc, #28]	; (4091d8 <_isatty_r+0x20>)
  4091bc:	2300      	movs	r3, #0
  4091be:	4605      	mov	r5, r0
  4091c0:	4608      	mov	r0, r1
  4091c2:	6023      	str	r3, [r4, #0]
  4091c4:	f7f7 ffa6 	bl	401114 <_isatty>
  4091c8:	1c43      	adds	r3, r0, #1
  4091ca:	d000      	beq.n	4091ce <_isatty_r+0x16>
  4091cc:	bd38      	pop	{r3, r4, r5, pc}
  4091ce:	6823      	ldr	r3, [r4, #0]
  4091d0:	2b00      	cmp	r3, #0
  4091d2:	d0fb      	beq.n	4091cc <_isatty_r+0x14>
  4091d4:	602b      	str	r3, [r5, #0]
  4091d6:	bd38      	pop	{r3, r4, r5, pc}
  4091d8:	20404a44 	.word	0x20404a44

004091dc <_lseek_r>:
  4091dc:	b570      	push	{r4, r5, r6, lr}
  4091de:	460d      	mov	r5, r1
  4091e0:	4c08      	ldr	r4, [pc, #32]	; (409204 <_lseek_r+0x28>)
  4091e2:	4611      	mov	r1, r2
  4091e4:	4606      	mov	r6, r0
  4091e6:	461a      	mov	r2, r3
  4091e8:	4628      	mov	r0, r5
  4091ea:	2300      	movs	r3, #0
  4091ec:	6023      	str	r3, [r4, #0]
  4091ee:	f7f7 ff93 	bl	401118 <_lseek>
  4091f2:	1c43      	adds	r3, r0, #1
  4091f4:	d000      	beq.n	4091f8 <_lseek_r+0x1c>
  4091f6:	bd70      	pop	{r4, r5, r6, pc}
  4091f8:	6823      	ldr	r3, [r4, #0]
  4091fa:	2b00      	cmp	r3, #0
  4091fc:	d0fb      	beq.n	4091f6 <_lseek_r+0x1a>
  4091fe:	6033      	str	r3, [r6, #0]
  409200:	bd70      	pop	{r4, r5, r6, pc}
  409202:	bf00      	nop
  409204:	20404a44 	.word	0x20404a44

00409208 <_read_r>:
  409208:	b570      	push	{r4, r5, r6, lr}
  40920a:	460d      	mov	r5, r1
  40920c:	4c08      	ldr	r4, [pc, #32]	; (409230 <_read_r+0x28>)
  40920e:	4611      	mov	r1, r2
  409210:	4606      	mov	r6, r0
  409212:	461a      	mov	r2, r3
  409214:	4628      	mov	r0, r5
  409216:	2300      	movs	r3, #0
  409218:	6023      	str	r3, [r4, #0]
  40921a:	f7f7 f96f 	bl	4004fc <_read>
  40921e:	1c43      	adds	r3, r0, #1
  409220:	d000      	beq.n	409224 <_read_r+0x1c>
  409222:	bd70      	pop	{r4, r5, r6, pc}
  409224:	6823      	ldr	r3, [r4, #0]
  409226:	2b00      	cmp	r3, #0
  409228:	d0fb      	beq.n	409222 <_read_r+0x1a>
  40922a:	6033      	str	r3, [r6, #0]
  40922c:	bd70      	pop	{r4, r5, r6, pc}
  40922e:	bf00      	nop
  409230:	20404a44 	.word	0x20404a44

00409234 <__aeabi_uldivmod>:
  409234:	b953      	cbnz	r3, 40924c <__aeabi_uldivmod+0x18>
  409236:	b94a      	cbnz	r2, 40924c <__aeabi_uldivmod+0x18>
  409238:	2900      	cmp	r1, #0
  40923a:	bf08      	it	eq
  40923c:	2800      	cmpeq	r0, #0
  40923e:	bf1c      	itt	ne
  409240:	f04f 31ff 	movne.w	r1, #4294967295
  409244:	f04f 30ff 	movne.w	r0, #4294967295
  409248:	f000 b97a 	b.w	409540 <__aeabi_idiv0>
  40924c:	f1ad 0c08 	sub.w	ip, sp, #8
  409250:	e96d ce04 	strd	ip, lr, [sp, #-16]!
  409254:	f000 f806 	bl	409264 <__udivmoddi4>
  409258:	f8dd e004 	ldr.w	lr, [sp, #4]
  40925c:	e9dd 2302 	ldrd	r2, r3, [sp, #8]
  409260:	b004      	add	sp, #16
  409262:	4770      	bx	lr

00409264 <__udivmoddi4>:
  409264:	e92d 47f0 	stmdb	sp!, {r4, r5, r6, r7, r8, r9, sl, lr}
  409268:	468c      	mov	ip, r1
  40926a:	460d      	mov	r5, r1
  40926c:	4604      	mov	r4, r0
  40926e:	9e08      	ldr	r6, [sp, #32]
  409270:	2b00      	cmp	r3, #0
  409272:	d151      	bne.n	409318 <__udivmoddi4+0xb4>
  409274:	428a      	cmp	r2, r1
  409276:	4617      	mov	r7, r2
  409278:	d96d      	bls.n	409356 <__udivmoddi4+0xf2>
  40927a:	fab2 fe82 	clz	lr, r2
  40927e:	f1be 0f00 	cmp.w	lr, #0
  409282:	d00b      	beq.n	40929c <__udivmoddi4+0x38>
  409284:	f1ce 0c20 	rsb	ip, lr, #32
  409288:	fa01 f50e 	lsl.w	r5, r1, lr
  40928c:	fa20 fc0c 	lsr.w	ip, r0, ip
  409290:	fa02 f70e 	lsl.w	r7, r2, lr
  409294:	ea4c 0c05 	orr.w	ip, ip, r5
  409298:	fa00 f40e 	lsl.w	r4, r0, lr
  40929c:	ea4f 4a17 	mov.w	sl, r7, lsr #16
  4092a0:	0c25      	lsrs	r5, r4, #16
  4092a2:	fbbc f8fa 	udiv	r8, ip, sl
  4092a6:	fa1f f987 	uxth.w	r9, r7
  4092aa:	fb0a cc18 	mls	ip, sl, r8, ip
  4092ae:	ea45 450c 	orr.w	r5, r5, ip, lsl #16
  4092b2:	fb08 f309 	mul.w	r3, r8, r9
  4092b6:	42ab      	cmp	r3, r5
  4092b8:	d90a      	bls.n	4092d0 <__udivmoddi4+0x6c>
  4092ba:	19ed      	adds	r5, r5, r7
  4092bc:	f108 32ff 	add.w	r2, r8, #4294967295
  4092c0:	f080 8123 	bcs.w	40950a <__udivmoddi4+0x2a6>
  4092c4:	42ab      	cmp	r3, r5
  4092c6:	f240 8120 	bls.w	40950a <__udivmoddi4+0x2a6>
  4092ca:	f1a8 0802 	sub.w	r8, r8, #2
  4092ce:	443d      	add	r5, r7
  4092d0:	1aed      	subs	r5, r5, r3
  4092d2:	b2a4      	uxth	r4, r4
  4092d4:	fbb5 f0fa 	udiv	r0, r5, sl
  4092d8:	fb0a 5510 	mls	r5, sl, r0, r5
  4092dc:	ea44 4405 	orr.w	r4, r4, r5, lsl #16
  4092e0:	fb00 f909 	mul.w	r9, r0, r9
  4092e4:	45a1      	cmp	r9, r4
  4092e6:	d909      	bls.n	4092fc <__udivmoddi4+0x98>
  4092e8:	19e4      	adds	r4, r4, r7
  4092ea:	f100 33ff 	add.w	r3, r0, #4294967295
  4092ee:	f080 810a 	bcs.w	409506 <__udivmoddi4+0x2a2>
  4092f2:	45a1      	cmp	r9, r4
  4092f4:	f240 8107 	bls.w	409506 <__udivmoddi4+0x2a2>
  4092f8:	3802      	subs	r0, #2
  4092fa:	443c      	add	r4, r7
  4092fc:	eba4 0409 	sub.w	r4, r4, r9
  409300:	ea40 4008 	orr.w	r0, r0, r8, lsl #16
  409304:	2100      	movs	r1, #0
  409306:	2e00      	cmp	r6, #0
  409308:	d061      	beq.n	4093ce <__udivmoddi4+0x16a>
  40930a:	fa24 f40e 	lsr.w	r4, r4, lr
  40930e:	2300      	movs	r3, #0
  409310:	6034      	str	r4, [r6, #0]
  409312:	6073      	str	r3, [r6, #4]
  409314:	e8bd 87f0 	ldmia.w	sp!, {r4, r5, r6, r7, r8, r9, sl, pc}
  409318:	428b      	cmp	r3, r1
  40931a:	d907      	bls.n	40932c <__udivmoddi4+0xc8>
  40931c:	2e00      	cmp	r6, #0
  40931e:	d054      	beq.n	4093ca <__udivmoddi4+0x166>
  409320:	2100      	movs	r1, #0
  409322:	e886 0021 	stmia.w	r6, {r0, r5}
  409326:	4608      	mov	r0, r1
  409328:	e8bd 87f0 	ldmia.w	sp!, {r4, r5, r6, r7, r8, r9, sl, pc}
  40932c:	fab3 f183 	clz	r1, r3
  409330:	2900      	cmp	r1, #0
  409332:	f040 808e 	bne.w	409452 <__udivmoddi4+0x1ee>
  409336:	42ab      	cmp	r3, r5
  409338:	d302      	bcc.n	409340 <__udivmoddi4+0xdc>
  40933a:	4282      	cmp	r2, r0
  40933c:	f200 80fa 	bhi.w	409534 <__udivmoddi4+0x2d0>
  409340:	1a84      	subs	r4, r0, r2
  409342:	eb65 0503 	sbc.w	r5, r5, r3
  409346:	2001      	movs	r0, #1
  409348:	46ac      	mov	ip, r5
  40934a:	2e00      	cmp	r6, #0
  40934c:	d03f      	beq.n	4093ce <__udivmoddi4+0x16a>
  40934e:	e886 1010 	stmia.w	r6, {r4, ip}
  409352:	e8bd 87f0 	ldmia.w	sp!, {r4, r5, r6, r7, r8, r9, sl, pc}
  409356:	b912      	cbnz	r2, 40935e <__udivmoddi4+0xfa>
  409358:	2701      	movs	r7, #1
  40935a:	fbb7 f7f2 	udiv	r7, r7, r2
  40935e:	fab7 fe87 	clz	lr, r7
  409362:	f1be 0f00 	cmp.w	lr, #0
  409366:	d134      	bne.n	4093d2 <__udivmoddi4+0x16e>
  409368:	1beb      	subs	r3, r5, r7
  40936a:	0c3a      	lsrs	r2, r7, #16
  40936c:	fa1f fc87 	uxth.w	ip, r7
  409370:	2101      	movs	r1, #1
  409372:	fbb3 f8f2 	udiv	r8, r3, r2
  409376:	0c25      	lsrs	r5, r4, #16
  409378:	fb02 3318 	mls	r3, r2, r8, r3
  40937c:	ea45 4503 	orr.w	r5, r5, r3, lsl #16
  409380:	fb0c f308 	mul.w	r3, ip, r8
  409384:	42ab      	cmp	r3, r5
  409386:	d907      	bls.n	409398 <__udivmoddi4+0x134>
  409388:	19ed      	adds	r5, r5, r7
  40938a:	f108 30ff 	add.w	r0, r8, #4294967295
  40938e:	d202      	bcs.n	409396 <__udivmoddi4+0x132>
  409390:	42ab      	cmp	r3, r5
  409392:	f200 80d1 	bhi.w	409538 <__udivmoddi4+0x2d4>
  409396:	4680      	mov	r8, r0
  409398:	1aed      	subs	r5, r5, r3
  40939a:	b2a3      	uxth	r3, r4
  40939c:	fbb5 f0f2 	udiv	r0, r5, r2
  4093a0:	fb02 5510 	mls	r5, r2, r0, r5
  4093a4:	ea43 4405 	orr.w	r4, r3, r5, lsl #16
  4093a8:	fb0c fc00 	mul.w	ip, ip, r0
  4093ac:	45a4      	cmp	ip, r4
  4093ae:	d907      	bls.n	4093c0 <__udivmoddi4+0x15c>
  4093b0:	19e4      	adds	r4, r4, r7
  4093b2:	f100 33ff 	add.w	r3, r0, #4294967295
  4093b6:	d202      	bcs.n	4093be <__udivmoddi4+0x15a>
  4093b8:	45a4      	cmp	ip, r4
  4093ba:	f200 80b8 	bhi.w	40952e <__udivmoddi4+0x2ca>
  4093be:	4618      	mov	r0, r3
  4093c0:	eba4 040c 	sub.w	r4, r4, ip
  4093c4:	ea40 4008 	orr.w	r0, r0, r8, lsl #16
  4093c8:	e79d      	b.n	409306 <__udivmoddi4+0xa2>
  4093ca:	4631      	mov	r1, r6
  4093cc:	4630      	mov	r0, r6
  4093ce:	e8bd 87f0 	ldmia.w	sp!, {r4, r5, r6, r7, r8, r9, sl, pc}
  4093d2:	f1ce 0420 	rsb	r4, lr, #32
  4093d6:	fa05 f30e 	lsl.w	r3, r5, lr
  4093da:	fa07 f70e 	lsl.w	r7, r7, lr
  4093de:	fa20 f804 	lsr.w	r8, r0, r4
  4093e2:	0c3a      	lsrs	r2, r7, #16
  4093e4:	fa25 f404 	lsr.w	r4, r5, r4
  4093e8:	ea48 0803 	orr.w	r8, r8, r3
  4093ec:	fbb4 f1f2 	udiv	r1, r4, r2
  4093f0:	ea4f 4518 	mov.w	r5, r8, lsr #16
  4093f4:	fb02 4411 	mls	r4, r2, r1, r4
  4093f8:	fa1f fc87 	uxth.w	ip, r7
  4093fc:	ea45 4504 	orr.w	r5, r5, r4, lsl #16
  409400:	fb01 f30c 	mul.w	r3, r1, ip
  409404:	42ab      	cmp	r3, r5
  409406:	fa00 f40e 	lsl.w	r4, r0, lr
  40940a:	d909      	bls.n	409420 <__udivmoddi4+0x1bc>
  40940c:	19ed      	adds	r5, r5, r7
  40940e:	f101 30ff 	add.w	r0, r1, #4294967295
  409412:	f080 808a 	bcs.w	40952a <__udivmoddi4+0x2c6>
  409416:	42ab      	cmp	r3, r5
  409418:	f240 8087 	bls.w	40952a <__udivmoddi4+0x2c6>
  40941c:	3902      	subs	r1, #2
  40941e:	443d      	add	r5, r7
  409420:	1aeb      	subs	r3, r5, r3
  409422:	fa1f f588 	uxth.w	r5, r8
  409426:	fbb3 f0f2 	udiv	r0, r3, r2
  40942a:	fb02 3310 	mls	r3, r2, r0, r3
  40942e:	ea45 4503 	orr.w	r5, r5, r3, lsl #16
  409432:	fb00 f30c 	mul.w	r3, r0, ip
  409436:	42ab      	cmp	r3, r5
  409438:	d907      	bls.n	40944a <__udivmoddi4+0x1e6>
  40943a:	19ed      	adds	r5, r5, r7
  40943c:	f100 38ff 	add.w	r8, r0, #4294967295
  409440:	d26f      	bcs.n	409522 <__udivmoddi4+0x2be>
  409442:	42ab      	cmp	r3, r5
  409444:	d96d      	bls.n	409522 <__udivmoddi4+0x2be>
  409446:	3802      	subs	r0, #2
  409448:	443d      	add	r5, r7
  40944a:	1aeb      	subs	r3, r5, r3
  40944c:	ea40 4101 	orr.w	r1, r0, r1, lsl #16
  409450:	e78f      	b.n	409372 <__udivmoddi4+0x10e>
  409452:	f1c1 0720 	rsb	r7, r1, #32
  409456:	fa22 f807 	lsr.w	r8, r2, r7
  40945a:	408b      	lsls	r3, r1
  40945c:	fa05 f401 	lsl.w	r4, r5, r1
  409460:	ea48 0303 	orr.w	r3, r8, r3
  409464:	fa20 fe07 	lsr.w	lr, r0, r7
  409468:	ea4f 4c13 	mov.w	ip, r3, lsr #16
  40946c:	40fd      	lsrs	r5, r7
  40946e:	ea4e 0e04 	orr.w	lr, lr, r4
  409472:	fbb5 f9fc 	udiv	r9, r5, ip
  409476:	ea4f 441e 	mov.w	r4, lr, lsr #16
  40947a:	fb0c 5519 	mls	r5, ip, r9, r5
  40947e:	fa1f f883 	uxth.w	r8, r3
  409482:	ea44 4505 	orr.w	r5, r4, r5, lsl #16
  409486:	fb09 f408 	mul.w	r4, r9, r8
  40948a:	42ac      	cmp	r4, r5
  40948c:	fa02 f201 	lsl.w	r2, r2, r1
  409490:	fa00 fa01 	lsl.w	sl, r0, r1
  409494:	d908      	bls.n	4094a8 <__udivmoddi4+0x244>
  409496:	18ed      	adds	r5, r5, r3
  409498:	f109 30ff 	add.w	r0, r9, #4294967295
  40949c:	d243      	bcs.n	409526 <__udivmoddi4+0x2c2>
  40949e:	42ac      	cmp	r4, r5
  4094a0:	d941      	bls.n	409526 <__udivmoddi4+0x2c2>
  4094a2:	f1a9 0902 	sub.w	r9, r9, #2
  4094a6:	441d      	add	r5, r3
  4094a8:	1b2d      	subs	r5, r5, r4
  4094aa:	fa1f fe8e 	uxth.w	lr, lr
  4094ae:	fbb5 f0fc 	udiv	r0, r5, ip
  4094b2:	fb0c 5510 	mls	r5, ip, r0, r5
  4094b6:	ea4e 4405 	orr.w	r4, lr, r5, lsl #16
  4094ba:	fb00 f808 	mul.w	r8, r0, r8
  4094be:	45a0      	cmp	r8, r4
  4094c0:	d907      	bls.n	4094d2 <__udivmoddi4+0x26e>
  4094c2:	18e4      	adds	r4, r4, r3
  4094c4:	f100 35ff 	add.w	r5, r0, #4294967295
  4094c8:	d229      	bcs.n	40951e <__udivmoddi4+0x2ba>
  4094ca:	45a0      	cmp	r8, r4
  4094cc:	d927      	bls.n	40951e <__udivmoddi4+0x2ba>
  4094ce:	3802      	subs	r0, #2
  4094d0:	441c      	add	r4, r3
  4094d2:	ea40 4009 	orr.w	r0, r0, r9, lsl #16
  4094d6:	eba4 0408 	sub.w	r4, r4, r8
  4094da:	fba0 8902 	umull	r8, r9, r0, r2
  4094de:	454c      	cmp	r4, r9
  4094e0:	46c6      	mov	lr, r8
  4094e2:	464d      	mov	r5, r9
  4094e4:	d315      	bcc.n	409512 <__udivmoddi4+0x2ae>
  4094e6:	d012      	beq.n	40950e <__udivmoddi4+0x2aa>
  4094e8:	b156      	cbz	r6, 409500 <__udivmoddi4+0x29c>
  4094ea:	ebba 030e 	subs.w	r3, sl, lr
  4094ee:	eb64 0405 	sbc.w	r4, r4, r5
  4094f2:	fa04 f707 	lsl.w	r7, r4, r7
  4094f6:	40cb      	lsrs	r3, r1
  4094f8:	431f      	orrs	r7, r3
  4094fa:	40cc      	lsrs	r4, r1
  4094fc:	6037      	str	r7, [r6, #0]
  4094fe:	6074      	str	r4, [r6, #4]
  409500:	2100      	movs	r1, #0
  409502:	e8bd 87f0 	ldmia.w	sp!, {r4, r5, r6, r7, r8, r9, sl, pc}
  409506:	4618      	mov	r0, r3
  409508:	e6f8      	b.n	4092fc <__udivmoddi4+0x98>
  40950a:	4690      	mov	r8, r2
  40950c:	e6e0      	b.n	4092d0 <__udivmoddi4+0x6c>
  40950e:	45c2      	cmp	sl, r8
  409510:	d2ea      	bcs.n	4094e8 <__udivmoddi4+0x284>
  409512:	ebb8 0e02 	subs.w	lr, r8, r2
  409516:	eb69 0503 	sbc.w	r5, r9, r3
  40951a:	3801      	subs	r0, #1
  40951c:	e7e4      	b.n	4094e8 <__udivmoddi4+0x284>
  40951e:	4628      	mov	r0, r5
  409520:	e7d7      	b.n	4094d2 <__udivmoddi4+0x26e>
  409522:	4640      	mov	r0, r8
  409524:	e791      	b.n	40944a <__udivmoddi4+0x1e6>
  409526:	4681      	mov	r9, r0
  409528:	e7be      	b.n	4094a8 <__udivmoddi4+0x244>
  40952a:	4601      	mov	r1, r0
  40952c:	e778      	b.n	409420 <__udivmoddi4+0x1bc>
  40952e:	3802      	subs	r0, #2
  409530:	443c      	add	r4, r7
  409532:	e745      	b.n	4093c0 <__udivmoddi4+0x15c>
  409534:	4608      	mov	r0, r1
  409536:	e708      	b.n	40934a <__udivmoddi4+0xe6>
  409538:	f1a8 0802 	sub.w	r8, r8, #2
  40953c:	443d      	add	r5, r7
  40953e:	e72b      	b.n	409398 <__udivmoddi4+0x134>

00409540 <__aeabi_idiv0>:
  409540:	4770      	bx	lr
  409542:	bf00      	nop

00409544 <CSWTCH.4>:
  409544:	0100 0300 0200 0000                         ........

0040954c <ip_addr_any>:
  40954c:	0000 0000 2e2e 732f 6372 412f 4653 742f     ....../src/ASF/t
  40955c:	6968 6472 6170 7472 2f79 776c 7069 6c2f     hirdparty/lwip/l
  40956c:	6977 2d70 2e31 2e34 2f31 7273 2f63 6f63     wip-1.4.1/src/co
  40957c:	6572 6d2f 6d65 2e70 0063 656d 706d 6d5f     re/memp.c.memp_m
  40958c:	6c61 6f6c 3a63 7420 7079 2065 203c 454d     alloc: type < ME
  40959c:	504d 4d5f 5841 4100 7373 7265 6974 6e6f     MP_MAX.Assertion
  4095ac:	2220 7325 2022 6166 6c69 6465 6120 2074      "%s" failed at 
  4095bc:	696c 656e 2520 2064 6e69 2520 0a73 0000     line %d in %s...

004095cc <memp_num>:
  4095cc:	0004 0001 0002 0001 0008 0002 0003 0002     ................
  4095dc:	0004                                        ..

004095de <memp_sizes>:
  4095de:	001c 0020 0098 0020 0014 0020 0010 0010     .. ... ... .....
  4095ee:	0610 6828 2120 203d 554e 4c4c 2029 2626     ..(h != NULL) &&
  4095fe:	2820 2074 3d21 4e20 4c55 294c 2820 7270      (t != NULL) (pr
  40960e:	676f 6172 6d6d 7265 7620 6f69 616c 6574     ogrammer violate
  40961e:	2073 5041 2949 7000 7562 5f66 6f63 7970     s API).pbuf_copy
  40962e:	203a 6174 6772 7465 6e20 746f 6220 6769     : target not big
  40963e:	6520 6f6e 6775 2068 6f74 6820 6c6f 2064      enough to hold 
  40964e:	6f73 7275 6563 7000 745f 206f 3d21 4e20     source.p_to != N
  40965e:	4c55 004c 6270 6675 635f 706f 2879 2029     ULL.pbuf_copy() 
  40966e:	6f64 7365 6e20 746f 6120 6c6c 776f 7020     does not allow p
  40967e:	6361 656b 2074 7571 7565 7365 0a21 7000     acket queues!..p
  40968e:	7562 5f66 6f63 7970 705f 7261 6974 6c61     buf_copy_partial
  40969e:	203a 6e69 6176 696c 2064 7562 0066 6270     : invalid buf.pb
  4096ae:	6675 635f 706f 5f79 6170 7472 6169 3a6c     uf_copy_partial:
  4096be:	6920 766e 6c61 6469 6420 7461 7061 7274      invalid dataptr
  4096ce:	2e00 2f2e 7273 2f63 5341 2f46 6874 7269     .../src/ASF/thir
  4096de:	7064 7261 7974 6c2f 6977 2f70 776c 7069     dparty/lwip/lwip
  4096ee:	312d 342e 312e 732f 6372 632f 726f 2f65     -1.4.1/src/core/
  4096fe:	6270 6675 632e 6900 636e 6572 656d 746e     pbuf.c.increment
  40970e:	6d5f 6761 696e 7574 6564 3c20 203d 2d70     _magnitude <= p-
  40971e:	6c3e 6e65 4c00 5349 4554 004e 5953 5f4e     >len.LISTEN.SYN_
  40972e:	4553 544e 5300 4e59 525f 5643 0044 5345     SENT.SYN_RCVD.ES
  40973e:	4154 4c42 5349 4548 0044 4946 5f4e 4157     TABLISHED.FIN_WA
  40974e:	5449 315f 4600 4e49 575f 4941 5f54 0032     IT_1.FIN_WAIT_2.
  40975e:	4c43 534f 5f45 4157 5449 4300 4f4c 4953     CLOSE_WAIT.CLOSI
  40976e:	474e 4c00 5341 5f54 4341 004b 4954 454d     NG.LAST_ACK.TIME
  40977e:	575f 4941 0054 6374 5f70 6c61 6f6c 3a63     _WAIT.tcp_alloc:
  40978e:	6b20 6c69 696c 676e 6f20 6666 6f20 646c      killing off old
  40979e:	7365 2074 4954 454d 572d 4941 2054 6f63     est TIME-WAIT co
  4097ae:	6e6e 6365 6974 6e6f 000a 6374 5f70 696b     nnection..tcp_ki
  4097be:	6c6c 745f 6d69 7765 6961 3a74 6b20 6c69     ll_timewait: kil
  4097ce:	696c 676e 6f20 646c 7365 2074 4954 454d     ling oldest TIME
  4097de:	572d 4941 2054 4350 2042 7025 2820 6425     -WAIT PCB %p (%d
  4097ee:	0a29 7400 7063 615f 6c6c 636f 203a 696b     )..tcp_alloc: ki
  4097fe:	6c6c 6e69 2067 6f63 6e6e 6365 6974 6e6f     lling connection
  40980e:	7720 7469 2068 7270 6f69 6c20 776f 7265      with prio lower
  40981e:	7420 6168 206e 6425 000a 6374 5f70 696b      than %d..tcp_ki
  40982e:	6c6c 705f 6972 3a6f 6b20 6c69 696c 676e     ll_prio: killing
  40983e:	6f20 646c 7365 2074 4350 2042 7025 2820      oldest PCB %p (
  40984e:	6425 0a29 0100                                   %d)..

00409853 <tcp_backoff>:
  409853:	0201 0403 0605 0707 0707 0707 2e07 2f2e     .............../
  409863:	7273 2f63 5341 2f46 6874 7269 7064 7261     src/ASF/thirdpar
  409873:	7974 6c2f 6977 2f70 776c 7069 312d 342e     ty/lwip/lwip-1.4
  409883:	312e 732f 6372 632f 726f 2f65 6374 2e70     .1/src/core/tcp.
  409893:	0063 6374 5f70 6962 646e 203a 6163 206e     c.tcp_bind: can 
  4098a3:	6e6f 796c 6220 6e69 2064 6e69 7320 6174     only bind in sta
  4098b3:	6574 4320 4f4c 4553 0044 6374 5f70 6962     te CLOSED.tcp_bi
  4098c3:	646e 203a 6962 646e 7420 206f 6f70 7472     nd: bind to port
  4098d3:	2520 7568 000a 6374 5f70 6c63 736f 3a65      %hu..tcp_close:
  4098e3:	6320 6f6c 6973 676e 6920 206e 5400 5043      closing in .TCP
  4098f3:	6820 6165 6564 3a72 000a 2d2b 2d2d 2d2d      header:..+-----
  409903:	2d2d 2d2d 2d2d 2d2d 2d2d 2d2d 2d2d 2d2d     ----------------
  409913:	2d2d 2d2d 2d2d 2d2d 2d2d 0a2b 7c00 2020     ----------+..|  
  409923:	2020 3525 7568 2020 2020 2020 207c 2020       %5hu      |   
  409933:	2520 6835 2075 2020 2020 7c20 2820 7273      %5hu      | (sr
  409943:	2063 6f70 7472 202c 6564 7473 7020 726f     c port, dest por
  409953:	2974 000a 207c 2020 2020 2020 2020 2020     t)..|           
  409963:	3025 3031 2075 2020 2020 2020 2020 7c20     %010u          |
  409973:	2820 6573 2071 6f6e 0a29 7c00 2020 2020      (seq no)..|    
  409983:	2020 2020 2020 2520 3130 7530 2020 2020            %010u    
  409993:	2020 2020 2020 207c 6128 6b63 6e20 296f           | (ack no)
  4099a3:	000a 207c 3225 7568 7c20 2020 7c20 6825     ..| %2hu |   |%h
  4099b3:	2575 7568 6825 2575 7568 6825 2575 7568     u%hu%hu%hu%hu%hu
  4099c3:	207c 2020 2020 3525 7568 2020 2020 7c20     |     %5hu     |
  4099d3:	2820 6468 6c72 6e65 202c 6c66 6761 2073      (hdrlen, flags 
  4099e3:	0028 2c29 7720 6e69 0a29 7c00 2020 2020     (.), win)..|    
  4099f3:	7830 3025 6834 2078 2020 2020 207c 2020     0x%04hx     |   
  409a03:	2020 3525 7568 2020 2020 7c20 2820 6863       %5hu     | (ch
  409a13:	736b 6d75 202c 7275 7067 0a29 4600 4e49     ksum, urgp)..FIN
  409a23:	0020 5953 204e 5200 5453 0020 5350 2048      .SYN .RST .PSH 
  409a33:	4100 4b43 0020 5255 2047 4500 4543 0020     .ACK .URG .ECE .
  409a43:	5743 2052 5300 6174 6574 203a 7325 000a     CWR .State: %s..
  409a53:	6374 5f70 6166 7473 6d74 3a72 6420 6c65     tcp_fasttmr: del
  409a63:	7961 6465 4120 4b43 000a 6374 5f70 696c     ayed ACK..tcp_li
  409a73:	7473 6e65 203a 6370 2062 6c61 6572 6461     sten: pcb alread
  409a83:	2079 6f63 6e6e 6365 6574 0064 d400               y connected..

00409a90 <tcp_pcb_lists>:
  409a90:	49d4 2040 49dc 2040 49cc 2040 49e0 2040     .I@ .I@ .I@ .I@ 
  409aa0:	6374 5f70 6370 5f62 7570 6772 0a65 7400     tcp_pcb_purge..t
  409ab0:	7063 705f 6263 705f 7275 6567 203a 6164     cp_pcb_purge: da
  409ac0:	6174 6c20 6665 2074 6e6f 2d20 723e 6665     ta left on ->ref
  409ad0:	7375 6465 645f 7461 0a61 7400 7063 705f     used_data..tcp_p
  409ae0:	6263 705f 7275 6567 203a 6f6e 2074 6c61     cb_purge: not al
  409af0:	206c 6164 6174 7320 6e65 0a74 7400 7063     l data sent..tcp
  409b00:	705f 6263 705f 7275 6567 203a 6164 6174     _pcb_purge: data
  409b10:	6c20 6665 2074 6e6f 2d20 753e 616e 6b63      left on ->unack
  409b20:	6465 000a 6374 5f70 6370 5f62 7570 6772     ed..tcp_pcb_purg
  409b30:	3a65 6420 7461 2061 656c 7466 6f20 206e     e: data left on 
  409b40:	3e2d 6f6f 6573 0a71 0300                         ->ooseq..

00409b49 <tcp_persist_backoff>:
  409b49:	0603 180c 6030 7478 7063 725f 6365 6576     ....0`xtcp_recve
  409b59:	3a64 7220 6365 6576 7669 6465 2520 7568     d: recveived %hu
  409b69:	6220 7479 7365 202c 6e77 2064 6825 2075      bytes, wnd %hu 
  409b79:	2528 7568 2e29 000a 6374 5f70 6c73 776f     (%hu)...tcp_slow
  409b89:	6d74 3a72 6e20 206f 6361 6974 6576 7020     tmr: no active p
  409b99:	6263 0a73 7400 7063 735f 6f6c 7477 726d     cbs..tcp_slowtmr
  409ba9:	203a 7270 636f 7365 6973 676e 6120 7463     : processing act
  409bb9:	7669 2065 6370 0a62 7400 7063 735f 6f6c     ive pcb..tcp_slo
  409bc9:	7477 726d 203a 616d 2078 5953 204e 6572     wtmr: max SYN re
  409bd9:	7274 6569 2073 6572 6361 6568 0a64 7400     tries reached..t
  409be9:	7063 735f 6f6c 7477 726d 203a 616d 2078     cp_slowtmr: max 
  409bf9:	4144 4154 7220 7465 6972 7365 7220 6165     DATA retries rea
  409c09:	6863 6465 000a 6374 5f70 6c73 776f 6d74     ched..tcp_slowtm
  409c19:	3a72 7220 6d65 766f 6e69 2067 6370 2062     r: removing pcb 
  409c29:	7473 6375 206b 6e69 4620 4e49 572d 4941     stuck in FIN-WAI
  409c39:	2d54 0a32 7400 7063 735f 6f6c 7477 726d     T-2..tcp_slowtmr
  409c49:	203a 454b 5045 4c41 5649 2045 6974 656d     : KEEPALIVE time
  409c59:	756f 2e74 4120 6f62 7472 6e69 2067 6f63     out. Aborting co
  409c69:	6e6e 6365 6974 6e6f 7420 206f 6825 2e75     nnection to %hu.
  409c79:	6825 2e75 6825 2e75 6825 2e75 000a 6374     %hu.%hu.%hu...tc
  409c89:	5f70 6c73 776f 6d74 3a72 7220 6d65 766f     p_slowtmr: remov
  409c99:	6e69 2067 6370 2062 7473 6375 206b 6e69     ing pcb stuck in
  409ca9:	5320 4e59 522d 5643 0a44 7400 7063 735f      SYN-RCVD..tcp_s
  409cb9:	6f6c 7477 726d 203a 6572 6f6d 6976 676e     lowtmr: removing
  409cc9:	7020 6263 7320 7574 6b63 6920 206e 414c      pcb stuck in LA
  409cd9:	5453 412d 4b43 000a 6374 5f70 6c73 776f     ST-ACK..tcp_slow
  409ce9:	6d74 3a72 7020 6c6f 696c 676e 6120 7070     tmr: polling app
  409cf9:	696c 6163 6974 6e6f 000a b600                    lication...

00409d04 <tcp_state_str>:
  409d04:	98b6 0040 9723 0040 972a 0040 9733 0040     ..@.#.@.*.@.3.@.
  409d14:	973c 0040 9748 0040 9753 0040 975e 0040     <.@.H.@.S.@.^.@.
  409d24:	9769 0040 9771 0040 977a 0040 4354 2050     i.@.q.@.z.@.TCP 
  409d34:	6f63 6e6e 6365 6974 6e6f 7220 7165 6575     connection reque
  409d44:	7473 2520 7568 2d20 203e 6825 2e75 000a     st %hu -> %hu...
  409d54:	6374 5f70 696c 7473 6e65 695f 706e 7475     tcp_listen_input
  409d64:	203a 696c 7473 6e65 6220 6361 6c6b 676f     : listen backlog
  409d74:	6520 6378 6565 6564 2064 6f66 2072 6f70      exceeded for po
  409d84:	7472 2520 7568 000a 6374 5f70 696c 7473     rt %hu..tcp_list
  409d94:	6e65 695f 706e 7475 203a 6f63 6c75 2064     en_input: could 
  409da4:	6f6e 2074 6c61 6f6c 6163 6574 5020 4243     not allocate PCB
  409db4:	000a 4354 2050 6f63 6e6e 6365 6974 6e6f     ..TCP connection
  409dc4:	6520 7473 6261 696c 6873 6465 2520 7568      established %hu
  409dd4:	2d20 203e 6825 2e75 000a 4354 2050 6f63      -> %hu...TCP co
  409de4:	6e6e 6365 6974 6e6f 6320 6f6c 6573 3a64     nnection closed:
  409df4:	4620 4e49 575f 4941 5f54 2031 6825 2075      FIN_WAIT_1 %hu 
  409e04:	3e2d 2520 7568 0a2e 5400 5043 6320 6e6f     -> %hu...TCP con
  409e14:	656e 7463 6f69 206e 6c63 736f 6465 203a     nection closed: 
  409e24:	4946 5f4e 4157 5449 325f 2520 7568 2d20     FIN_WAIT_2 %hu -
  409e34:	203e 6825 2e75 000a 4354 2050 6f63 6e6e     > %hu...TCP conn
  409e44:	6365 6974 6e6f 6320 6f6c 6573 3a64 4320     ection closed: C
  409e54:	4f4c 4953 474e 2520 7568 2d20 203e 6825     LOSING %hu -> %h
  409e64:	2e75 000a 4354 2050 6f63 6e6e 6365 6974     u...TCP connecti
  409e74:	6e6f 6320 6f6c 6573 3a64 4c20 5341 5f54     on closed: LAST_
  409e84:	4341 204b 6825 2075 3e2d 2520 7568 0a2e     ACK %hu -> %hu..
  409e94:	7400 7063 705f 6f72 6563 7373 203a 6e75     .tcp_process: un
  409ea4:	6361 6563 7470 6261 656c 7220 7365 7465     acceptable reset
  409eb4:	7320 7165 6f6e 2520 2075 6372 5f76 786e      seqno %u rcv_nx
  409ec4:	2074 7525 000a 6374 5f70 656b 7065 6c61     t %u..tcp_keepal
  409ed4:	7669 3a65 7320 6e65 6964 676e 4b20 4545     ive: sending KEE
  409ee4:	4150 494c 4556 7020 6f72 6562 7420 206f     PALIVE probe to 
  409ef4:	6825 2e75 6825 2e75 6825 2e75 6825 0a75     %hu.%hu.%hu.%hu.
  409f04:	7400 7063 6b5f 6565 6170 696c 6576 203a     .tcp_keepalive: 
  409f14:	6374 5f70 6974 6b63 2073 7525 2020 7020     tcp_ticks %u   p
  409f24:	6263 3e2d 6d74 2072 7525 7020 6263 3e2d     cb->tmr %u pcb->
  409f34:	656b 7065 635f 746e 735f 6e65 2074 6825     keep_cnt_sent %h
  409f44:	0a75 7400 7063 6b5f 6565 6170 696c 6576     u..tcp_keepalive
  409f54:	203a 6f63 6c75 2064 6f6e 2074 6c61 6f6c     : could not allo
  409f64:	6163 6574 6d20 6d65 726f 2079 6f66 2072     cate memory for 
  409f74:	6270 6675 000a 6374 5f70 656b 7065 6c61     pbuf..tcp_keepal
  409f84:	7669 3a65 7320 7165 6f6e 2520 2075 6361     ive: seqno %u ac
  409f94:	6e6b 206f 7525 0a2e 7400 7063 725f 7473     kno %u...tcp_rst
  409fa4:	203a 6f63 6c75 2064 6f6e 2074 6c61 6f6c     : could not allo
  409fb4:	6163 6574 6d20 6d65 726f 2079 6f66 2072     cate memory for 
  409fc4:	6270 6675 000a 2e2e 732f 6372 412f 4653     pbuf..../src/ASF
  409fd4:	742f 6968 6472 6170 7472 2f79 776c 7069     /thirdparty/lwip
  409fe4:	6c2f 6977 2d70 2e31 2e34 2f31 7273 2f63     /lwip-1.4.1/src/
  409ff4:	6f63 6572 742f 7063 6f5f 7475 632e 7400     core/tcp_out.c.t
  40a004:	7063 775f 6972 6574 203a 7261 2067 3d3d     cp_write: arg ==
  40a014:	4e20 4c55 204c 7028 6f72 7267 6d61 656d      NULL (programme
  40a024:	2072 6976 6c6f 7461 7365 4120 4950 0029     r violates API).
  40a034:	6374 5f70 657a 6f72 775f 6e69 6f64 5f77     tcp_zero_window_
  40a044:	7270 626f 3a65 7320 6e65 6964 676e 5a20     probe: sending Z
  40a054:	5245 204f 4957 444e 574f 7020 6f72 6562     ERO WINDOW probe
  40a064:	7420 206f 6825 2e75 6825 2e75 6825 2e75      to %hu.%hu.%hu.
  40a074:	6825 0a75 7400 7063 7a5f 7265 5f6f 6977     %hu..tcp_zero_wi
  40a084:	646e 776f 705f 6f72 6562 203a 6374 5f70     ndow_probe: tcp_
  40a094:	6974 6b63 2073 7525 2020 7020 6263 3e2d     ticks %u   pcb->
  40a0a4:	6d74 2072 7525 7020 6263 3e2d 656b 7065     tmr %u pcb->keep
  40a0b4:	635f 746e 735f 6e65 2074 6825 0a75 7400     _cnt_sent %hu..t
  40a0c4:	7063 7a5f 7265 5f6f 6977 646e 776f 705f     cp_zero_window_p
  40a0d4:	6f72 6562 203a 6f6e 6d20 6d65 726f 2079     robe: no memory 
  40a0e4:	6f66 2072 6270 6675 000a 6374 5f70 657a     for pbuf..tcp_ze
  40a0f4:	6f72 775f 6e69 6f64 5f77 7270 626f 3a65     ro_window_probe:
  40a104:	7320 7165 6f6e 2520 2075 6361 6e6b 206f      seqno %u ackno 
  40a114:	7525 0a2e ff00                                   %u...

0040a119 <ethbroadcast>:
  40a119:	ffff ffff ffff                              ......

0040a11f <ethzero>:
  40a11f:	0000 0000 0000 7453 7461 6369 4920 2050     ......Static IP 
  40a12f:	6441 7264 7365 2073 7341 6973 6e67 6465     Address Assigned
  40a13f:	0a0d 4900 3d50 4e00 7465 6f77 6b72 7520     ...IP=.Network u
  40a14f:	2070 7325 0a0d 4e00 7465 6f77 6b72 6420     p %s...Network d
  40a15f:	776f 0d6e 000a 2d2d 5220 7761 4820 5454     own...-- Raw HTT
  40a16f:	2050 6142 6973 2063 7845 6d61 6c70 2065     P Basic Example 
  40a17f:	2d2d 0a0d 2d2d 5320 4d41 3756 2d31 4c58     --..-- SAMV71-XL
  40a18f:	5254 2041 2d2d 0a0d 2d2d 4320 6d6f 6970     TRA --..-- Compi
  40a19f:	656c 3a64 4d20 7261 2020 2038 3032 3032     led: Mar  8 2020
  40a1af:	3220 3a30 3331 353a 2034 2d2d 0a0d 0000      20:13:54 --....
	...

0040a1c0 <_global_impure_ptr>:
  40a1c0:	0038 2040 000a 0000 3130 3332 3534 3736     8.@ ....01234567
  40a1d0:	3938 4241 4443 4645 0000 0000 3130 3332     89ABCDEF....0123
  40a1e0:	3534 3736 3938 6261 6463 6665 0000 0000     456789abcdef....
  40a1f0:	6e28 6c75 296c 0000                         (null)..

0040a1f8 <blanks.7217>:
  40a1f8:	2020 2020 2020 2020 2020 2020 2020 2020                     

0040a208 <zeroes.7218>:
  40a208:	3030 3030 3030 3030 3030 3030 3030 3030     0000000000000000
  40a218:	0043 0000 4f50 4953 0058 0000 002e 0000     C...POSIX.......

0040a228 <_ctype_>:
  40a228:	2000 2020 2020 2020 2020 2828 2828 2028     .         ((((( 
  40a238:	2020 2020 2020 2020 2020 2020 2020 2020                     
  40a248:	8820 1010 1010 1010 1010 1010 1010 1010      ...............
  40a258:	0410 0404 0404 0404 0404 1004 1010 1010     ................
  40a268:	1010 4141 4141 4141 0101 0101 0101 0101     ..AAAAAA........
  40a278:	0101 0101 0101 0101 0101 0101 1010 1010     ................
  40a288:	1010 4242 4242 4242 0202 0202 0202 0202     ..BBBBBB........
  40a298:	0202 0202 0202 0202 0202 0202 1010 1010     ................
  40a2a8:	0020 0000 0000 0000 0000 0000 0000 0000      ...............
	...

0040a32c <_init>:
  40a32c:	b5f8      	push	{r3, r4, r5, r6, r7, lr}
  40a32e:	bf00      	nop
  40a330:	bcf8      	pop	{r3, r4, r5, r6, r7}
  40a332:	bc08      	pop	{r3}
  40a334:	469e      	mov	lr, r3
  40a336:	4770      	bx	lr

0040a338 <__init_array_start>:
  40a338:	004078f9 	.word	0x004078f9

0040a33c <__frame_dummy_init_array_entry>:
  40a33c:	0040018d                                ..@.

0040a340 <_fini>:
  40a340:	b5f8      	push	{r3, r4, r5, r6, r7, lr}
  40a342:	bf00      	nop
  40a344:	bcf8      	pop	{r3, r4, r5, r6, r7}
  40a346:	bc08      	pop	{r3}
  40a348:	469e      	mov	lr, r3
  40a34a:	4770      	bx	lr

0040a34c <__fini_array_start>:
  40a34c:	00400169 	.word	0x00400169
